   1              		.cpu cortex-m3
   2              		.arch armv7-m
   3              		.fpu softvfp
   4              		.eabi_attribute 20, 1
   5              		.eabi_attribute 21, 1
   6              		.eabi_attribute 23, 3
   7              		.eabi_attribute 24, 1
   8              		.eabi_attribute 25, 1
   9              		.eabi_attribute 26, 1
  10              		.eabi_attribute 30, 1
  11              		.eabi_attribute 34, 1
  12              		.eabi_attribute 18, 4
  13              		.file	"nt_gpio.c"
  14              		.text
  15              	.Ltext0:
  16              		.cfi_sections	.debug_frame
  17              		.file 1 "C:/Users/nace/OneDrive/Desktop/STM32/Projects_nace/NUCLEO_LL_Project_LCD/STM32_template_p
  18              		.section	.text.nt_gpioPinInit,"ax",%progbits
  19              		.align	1
  20              		.global	nt_gpioPinInit
  21              		.syntax unified
  22              		.thumb
  23              		.thumb_func
  25              	nt_gpioPinInit:
  26              	.LVL0:
  27              	.LFB145:
   1:C:/Users/nace/OneDrive/Desktop/STM32/Projects_nace/NUCLEO_LL_Project_LCD/STM32_template_proj/Core/Src\nt_gpio.c **** 
   2:C:/Users/nace/OneDrive/Desktop/STM32/Projects_nace/NUCLEO_LL_Project_LCD/STM32_template_proj/Core/Src\nt_gpio.c **** #include <stdint.h>
   3:C:/Users/nace/OneDrive/Desktop/STM32/Projects_nace/NUCLEO_LL_Project_LCD/STM32_template_proj/Core/Src\nt_gpio.c **** 
   4:C:/Users/nace/OneDrive/Desktop/STM32/Projects_nace/NUCLEO_LL_Project_LCD/STM32_template_proj/Core/Src\nt_gpio.c **** #include "stm32f103xb.h"
   5:C:/Users/nace/OneDrive/Desktop/STM32/Projects_nace/NUCLEO_LL_Project_LCD/STM32_template_proj/Core/Src\nt_gpio.c **** #include "stm32f1xx_ll_bus.h"
   6:C:/Users/nace/OneDrive/Desktop/STM32/Projects_nace/NUCLEO_LL_Project_LCD/STM32_template_proj/Core/Src\nt_gpio.c **** #include "stm32f1xx_ll_gpio.h"
   7:C:/Users/nace/OneDrive/Desktop/STM32/Projects_nace/NUCLEO_LL_Project_LCD/STM32_template_proj/Core/Src\nt_gpio.c **** #include "stm32f1xx_ll_utils.h"
   8:C:/Users/nace/OneDrive/Desktop/STM32/Projects_nace/NUCLEO_LL_Project_LCD/STM32_template_proj/Core/Src\nt_gpio.c **** 
   9:C:/Users/nace/OneDrive/Desktop/STM32/Projects_nace/NUCLEO_LL_Project_LCD/STM32_template_proj/Core/Src\nt_gpio.c **** #include "nt_time_utils.h"
  10:C:/Users/nace/OneDrive/Desktop/STM32/Projects_nace/NUCLEO_LL_Project_LCD/STM32_template_proj/Core/Src\nt_gpio.c **** #include "nt_gpio.h"
  11:C:/Users/nace/OneDrive/Desktop/STM32/Projects_nace/NUCLEO_LL_Project_LCD/STM32_template_proj/Core/Src\nt_gpio.c **** 
  12:C:/Users/nace/OneDrive/Desktop/STM32/Projects_nace/NUCLEO_LL_Project_LCD/STM32_template_proj/Core/Src\nt_gpio.c **** void nt_gpioPinInit(nt_PinDefStruct_t *pin_def, uint32_t port, uint32_t pin, uint32_t mode, nt_PinT
  13:C:/Users/nace/OneDrive/Desktop/STM32/Projects_nace/NUCLEO_LL_Project_LCD/STM32_template_proj/Core/Src\nt_gpio.c **** {
  28              		.loc 1 13 1 view -0
  29              		.cfi_startproc
  30              		@ args = 4, pretend = 0, frame = 40
  31              		@ frame_needed = 0, uses_anonymous_args = 0
  32              		.loc 1 13 1 is_stmt 0 view .LVU1
  33 0000 30B5     		push	{r4, r5, lr}
  34              		.cfi_def_cfa_offset 12
  35              		.cfi_offset 4, -12
  36              		.cfi_offset 5, -8
  37              		.cfi_offset 14, -4
  38 0002 8BB0     		sub	sp, sp, #44
  39              		.cfi_def_cfa_offset 56
  40 0004 9DF838C0 		ldrb	ip, [sp, #56]	@ zero_extendqisi2
  14:C:/Users/nace/OneDrive/Desktop/STM32/Projects_nace/NUCLEO_LL_Project_LCD/STM32_template_proj/Core/Src\nt_gpio.c ****     //naredi case ki vklopijo uro periferije preko Port var-a
  15:C:/Users/nace/OneDrive/Desktop/STM32/Projects_nace/NUCLEO_LL_Project_LCD/STM32_template_proj/Core/Src\nt_gpio.c ****     LL_APB2_GRP1_EnableClock(LL_APB2_GRP1_PERIPH_GPIOA);
  41              		.loc 1 15 5 is_stmt 1 view .LVU2
  42              	.LVL1:
  43              	.LBB18:
  44              	.LBI18:
  45              		.file 2 "C:/Users/nace/OneDrive/Desktop/STM32/Projects_nace/NUCLEO_LL_Project_LCD/STM32_template_p
   1:C:/Users/nace/OneDrive/Desktop/STM32/Projects_nace/NUCLEO_LL_Project_LCD/STM32_template_proj/Drivers/STM32F1xx_HAL_Driver/Inc\stm32f1xx_ll_bus.h **** /**
   2:C:/Users/nace/OneDrive/Desktop/STM32/Projects_nace/NUCLEO_LL_Project_LCD/STM32_template_proj/Drivers/STM32F1xx_HAL_Driver/Inc\stm32f1xx_ll_bus.h ****   ******************************************************************************
   3:C:/Users/nace/OneDrive/Desktop/STM32/Projects_nace/NUCLEO_LL_Project_LCD/STM32_template_proj/Drivers/STM32F1xx_HAL_Driver/Inc\stm32f1xx_ll_bus.h ****   * @file    stm32f1xx_ll_bus.h
   4:C:/Users/nace/OneDrive/Desktop/STM32/Projects_nace/NUCLEO_LL_Project_LCD/STM32_template_proj/Drivers/STM32F1xx_HAL_Driver/Inc\stm32f1xx_ll_bus.h ****   * @author  MCD Application Team
   5:C:/Users/nace/OneDrive/Desktop/STM32/Projects_nace/NUCLEO_LL_Project_LCD/STM32_template_proj/Drivers/STM32F1xx_HAL_Driver/Inc\stm32f1xx_ll_bus.h ****   * @brief   Header file of BUS LL module.
   6:C:/Users/nace/OneDrive/Desktop/STM32/Projects_nace/NUCLEO_LL_Project_LCD/STM32_template_proj/Drivers/STM32F1xx_HAL_Driver/Inc\stm32f1xx_ll_bus.h **** 
   7:C:/Users/nace/OneDrive/Desktop/STM32/Projects_nace/NUCLEO_LL_Project_LCD/STM32_template_proj/Drivers/STM32F1xx_HAL_Driver/Inc\stm32f1xx_ll_bus.h ****   @verbatim
   8:C:/Users/nace/OneDrive/Desktop/STM32/Projects_nace/NUCLEO_LL_Project_LCD/STM32_template_proj/Drivers/STM32F1xx_HAL_Driver/Inc\stm32f1xx_ll_bus.h ****                       ##### RCC Limitations #####
   9:C:/Users/nace/OneDrive/Desktop/STM32/Projects_nace/NUCLEO_LL_Project_LCD/STM32_template_proj/Drivers/STM32F1xx_HAL_Driver/Inc\stm32f1xx_ll_bus.h ****   ==============================================================================
  10:C:/Users/nace/OneDrive/Desktop/STM32/Projects_nace/NUCLEO_LL_Project_LCD/STM32_template_proj/Drivers/STM32F1xx_HAL_Driver/Inc\stm32f1xx_ll_bus.h ****     [..]
  11:C:/Users/nace/OneDrive/Desktop/STM32/Projects_nace/NUCLEO_LL_Project_LCD/STM32_template_proj/Drivers/STM32F1xx_HAL_Driver/Inc\stm32f1xx_ll_bus.h ****       A delay between an RCC peripheral clock enable and the effective peripheral
  12:C:/Users/nace/OneDrive/Desktop/STM32/Projects_nace/NUCLEO_LL_Project_LCD/STM32_template_proj/Drivers/STM32F1xx_HAL_Driver/Inc\stm32f1xx_ll_bus.h ****       enabling should be taken into account in order to manage the peripheral read/write
  13:C:/Users/nace/OneDrive/Desktop/STM32/Projects_nace/NUCLEO_LL_Project_LCD/STM32_template_proj/Drivers/STM32F1xx_HAL_Driver/Inc\stm32f1xx_ll_bus.h ****       from/to registers.
  14:C:/Users/nace/OneDrive/Desktop/STM32/Projects_nace/NUCLEO_LL_Project_LCD/STM32_template_proj/Drivers/STM32F1xx_HAL_Driver/Inc\stm32f1xx_ll_bus.h ****       (+) This delay depends on the peripheral mapping.
  15:C:/Users/nace/OneDrive/Desktop/STM32/Projects_nace/NUCLEO_LL_Project_LCD/STM32_template_proj/Drivers/STM32F1xx_HAL_Driver/Inc\stm32f1xx_ll_bus.h ****         (++) AHB & APB peripherals, 1 dummy read is necessary
  16:C:/Users/nace/OneDrive/Desktop/STM32/Projects_nace/NUCLEO_LL_Project_LCD/STM32_template_proj/Drivers/STM32F1xx_HAL_Driver/Inc\stm32f1xx_ll_bus.h **** 
  17:C:/Users/nace/OneDrive/Desktop/STM32/Projects_nace/NUCLEO_LL_Project_LCD/STM32_template_proj/Drivers/STM32F1xx_HAL_Driver/Inc\stm32f1xx_ll_bus.h ****     [..]
  18:C:/Users/nace/OneDrive/Desktop/STM32/Projects_nace/NUCLEO_LL_Project_LCD/STM32_template_proj/Drivers/STM32F1xx_HAL_Driver/Inc\stm32f1xx_ll_bus.h ****       Workarounds:
  19:C:/Users/nace/OneDrive/Desktop/STM32/Projects_nace/NUCLEO_LL_Project_LCD/STM32_template_proj/Drivers/STM32F1xx_HAL_Driver/Inc\stm32f1xx_ll_bus.h ****       (#) For AHB & APB peripherals, a dummy read to the peripheral register has been
  20:C:/Users/nace/OneDrive/Desktop/STM32/Projects_nace/NUCLEO_LL_Project_LCD/STM32_template_proj/Drivers/STM32F1xx_HAL_Driver/Inc\stm32f1xx_ll_bus.h ****           inserted in each LL_{BUS}_GRP{x}_EnableClock() function.
  21:C:/Users/nace/OneDrive/Desktop/STM32/Projects_nace/NUCLEO_LL_Project_LCD/STM32_template_proj/Drivers/STM32F1xx_HAL_Driver/Inc\stm32f1xx_ll_bus.h **** 
  22:C:/Users/nace/OneDrive/Desktop/STM32/Projects_nace/NUCLEO_LL_Project_LCD/STM32_template_proj/Drivers/STM32F1xx_HAL_Driver/Inc\stm32f1xx_ll_bus.h ****   @endverbatim
  23:C:/Users/nace/OneDrive/Desktop/STM32/Projects_nace/NUCLEO_LL_Project_LCD/STM32_template_proj/Drivers/STM32F1xx_HAL_Driver/Inc\stm32f1xx_ll_bus.h ****   ******************************************************************************
  24:C:/Users/nace/OneDrive/Desktop/STM32/Projects_nace/NUCLEO_LL_Project_LCD/STM32_template_proj/Drivers/STM32F1xx_HAL_Driver/Inc\stm32f1xx_ll_bus.h ****   * @attention
  25:C:/Users/nace/OneDrive/Desktop/STM32/Projects_nace/NUCLEO_LL_Project_LCD/STM32_template_proj/Drivers/STM32F1xx_HAL_Driver/Inc\stm32f1xx_ll_bus.h ****   *
  26:C:/Users/nace/OneDrive/Desktop/STM32/Projects_nace/NUCLEO_LL_Project_LCD/STM32_template_proj/Drivers/STM32F1xx_HAL_Driver/Inc\stm32f1xx_ll_bus.h ****   * Copyright (c) 2016 STMicroelectronics.
  27:C:/Users/nace/OneDrive/Desktop/STM32/Projects_nace/NUCLEO_LL_Project_LCD/STM32_template_proj/Drivers/STM32F1xx_HAL_Driver/Inc\stm32f1xx_ll_bus.h ****   * All rights reserved.
  28:C:/Users/nace/OneDrive/Desktop/STM32/Projects_nace/NUCLEO_LL_Project_LCD/STM32_template_proj/Drivers/STM32F1xx_HAL_Driver/Inc\stm32f1xx_ll_bus.h ****   *
  29:C:/Users/nace/OneDrive/Desktop/STM32/Projects_nace/NUCLEO_LL_Project_LCD/STM32_template_proj/Drivers/STM32F1xx_HAL_Driver/Inc\stm32f1xx_ll_bus.h ****   * This software is licensed under terms that can be found in the LICENSE file in
  30:C:/Users/nace/OneDrive/Desktop/STM32/Projects_nace/NUCLEO_LL_Project_LCD/STM32_template_proj/Drivers/STM32F1xx_HAL_Driver/Inc\stm32f1xx_ll_bus.h ****   * the root directory of this software component.
  31:C:/Users/nace/OneDrive/Desktop/STM32/Projects_nace/NUCLEO_LL_Project_LCD/STM32_template_proj/Drivers/STM32F1xx_HAL_Driver/Inc\stm32f1xx_ll_bus.h ****   * If no LICENSE file comes with this software, it is provided AS-IS.
  32:C:/Users/nace/OneDrive/Desktop/STM32/Projects_nace/NUCLEO_LL_Project_LCD/STM32_template_proj/Drivers/STM32F1xx_HAL_Driver/Inc\stm32f1xx_ll_bus.h ****   ******************************************************************************
  33:C:/Users/nace/OneDrive/Desktop/STM32/Projects_nace/NUCLEO_LL_Project_LCD/STM32_template_proj/Drivers/STM32F1xx_HAL_Driver/Inc\stm32f1xx_ll_bus.h ****   */
  34:C:/Users/nace/OneDrive/Desktop/STM32/Projects_nace/NUCLEO_LL_Project_LCD/STM32_template_proj/Drivers/STM32F1xx_HAL_Driver/Inc\stm32f1xx_ll_bus.h **** 
  35:C:/Users/nace/OneDrive/Desktop/STM32/Projects_nace/NUCLEO_LL_Project_LCD/STM32_template_proj/Drivers/STM32F1xx_HAL_Driver/Inc\stm32f1xx_ll_bus.h **** /* Define to prevent recursive inclusion -------------------------------------*/
  36:C:/Users/nace/OneDrive/Desktop/STM32/Projects_nace/NUCLEO_LL_Project_LCD/STM32_template_proj/Drivers/STM32F1xx_HAL_Driver/Inc\stm32f1xx_ll_bus.h **** #ifndef __STM32F1xx_LL_BUS_H
  37:C:/Users/nace/OneDrive/Desktop/STM32/Projects_nace/NUCLEO_LL_Project_LCD/STM32_template_proj/Drivers/STM32F1xx_HAL_Driver/Inc\stm32f1xx_ll_bus.h **** #define __STM32F1xx_LL_BUS_H
  38:C:/Users/nace/OneDrive/Desktop/STM32/Projects_nace/NUCLEO_LL_Project_LCD/STM32_template_proj/Drivers/STM32F1xx_HAL_Driver/Inc\stm32f1xx_ll_bus.h **** 
  39:C:/Users/nace/OneDrive/Desktop/STM32/Projects_nace/NUCLEO_LL_Project_LCD/STM32_template_proj/Drivers/STM32F1xx_HAL_Driver/Inc\stm32f1xx_ll_bus.h **** #ifdef __cplusplus
  40:C:/Users/nace/OneDrive/Desktop/STM32/Projects_nace/NUCLEO_LL_Project_LCD/STM32_template_proj/Drivers/STM32F1xx_HAL_Driver/Inc\stm32f1xx_ll_bus.h **** extern "C" {
  41:C:/Users/nace/OneDrive/Desktop/STM32/Projects_nace/NUCLEO_LL_Project_LCD/STM32_template_proj/Drivers/STM32F1xx_HAL_Driver/Inc\stm32f1xx_ll_bus.h **** #endif
  42:C:/Users/nace/OneDrive/Desktop/STM32/Projects_nace/NUCLEO_LL_Project_LCD/STM32_template_proj/Drivers/STM32F1xx_HAL_Driver/Inc\stm32f1xx_ll_bus.h **** 
  43:C:/Users/nace/OneDrive/Desktop/STM32/Projects_nace/NUCLEO_LL_Project_LCD/STM32_template_proj/Drivers/STM32F1xx_HAL_Driver/Inc\stm32f1xx_ll_bus.h **** /* Includes ------------------------------------------------------------------*/
  44:C:/Users/nace/OneDrive/Desktop/STM32/Projects_nace/NUCLEO_LL_Project_LCD/STM32_template_proj/Drivers/STM32F1xx_HAL_Driver/Inc\stm32f1xx_ll_bus.h **** #include "stm32f1xx.h"
  45:C:/Users/nace/OneDrive/Desktop/STM32/Projects_nace/NUCLEO_LL_Project_LCD/STM32_template_proj/Drivers/STM32F1xx_HAL_Driver/Inc\stm32f1xx_ll_bus.h **** 
  46:C:/Users/nace/OneDrive/Desktop/STM32/Projects_nace/NUCLEO_LL_Project_LCD/STM32_template_proj/Drivers/STM32F1xx_HAL_Driver/Inc\stm32f1xx_ll_bus.h **** /** @addtogroup STM32F1xx_LL_Driver
  47:C:/Users/nace/OneDrive/Desktop/STM32/Projects_nace/NUCLEO_LL_Project_LCD/STM32_template_proj/Drivers/STM32F1xx_HAL_Driver/Inc\stm32f1xx_ll_bus.h ****   * @{
  48:C:/Users/nace/OneDrive/Desktop/STM32/Projects_nace/NUCLEO_LL_Project_LCD/STM32_template_proj/Drivers/STM32F1xx_HAL_Driver/Inc\stm32f1xx_ll_bus.h ****   */
  49:C:/Users/nace/OneDrive/Desktop/STM32/Projects_nace/NUCLEO_LL_Project_LCD/STM32_template_proj/Drivers/STM32F1xx_HAL_Driver/Inc\stm32f1xx_ll_bus.h **** 
  50:C:/Users/nace/OneDrive/Desktop/STM32/Projects_nace/NUCLEO_LL_Project_LCD/STM32_template_proj/Drivers/STM32F1xx_HAL_Driver/Inc\stm32f1xx_ll_bus.h **** #if defined(RCC)
  51:C:/Users/nace/OneDrive/Desktop/STM32/Projects_nace/NUCLEO_LL_Project_LCD/STM32_template_proj/Drivers/STM32F1xx_HAL_Driver/Inc\stm32f1xx_ll_bus.h **** 
  52:C:/Users/nace/OneDrive/Desktop/STM32/Projects_nace/NUCLEO_LL_Project_LCD/STM32_template_proj/Drivers/STM32F1xx_HAL_Driver/Inc\stm32f1xx_ll_bus.h **** /** @defgroup BUS_LL BUS
  53:C:/Users/nace/OneDrive/Desktop/STM32/Projects_nace/NUCLEO_LL_Project_LCD/STM32_template_proj/Drivers/STM32F1xx_HAL_Driver/Inc\stm32f1xx_ll_bus.h ****   * @{
  54:C:/Users/nace/OneDrive/Desktop/STM32/Projects_nace/NUCLEO_LL_Project_LCD/STM32_template_proj/Drivers/STM32F1xx_HAL_Driver/Inc\stm32f1xx_ll_bus.h ****   */
  55:C:/Users/nace/OneDrive/Desktop/STM32/Projects_nace/NUCLEO_LL_Project_LCD/STM32_template_proj/Drivers/STM32F1xx_HAL_Driver/Inc\stm32f1xx_ll_bus.h **** 
  56:C:/Users/nace/OneDrive/Desktop/STM32/Projects_nace/NUCLEO_LL_Project_LCD/STM32_template_proj/Drivers/STM32F1xx_HAL_Driver/Inc\stm32f1xx_ll_bus.h **** /* Private types -------------------------------------------------------------*/
  57:C:/Users/nace/OneDrive/Desktop/STM32/Projects_nace/NUCLEO_LL_Project_LCD/STM32_template_proj/Drivers/STM32F1xx_HAL_Driver/Inc\stm32f1xx_ll_bus.h **** /* Private variables ---------------------------------------------------------*/
  58:C:/Users/nace/OneDrive/Desktop/STM32/Projects_nace/NUCLEO_LL_Project_LCD/STM32_template_proj/Drivers/STM32F1xx_HAL_Driver/Inc\stm32f1xx_ll_bus.h **** 
  59:C:/Users/nace/OneDrive/Desktop/STM32/Projects_nace/NUCLEO_LL_Project_LCD/STM32_template_proj/Drivers/STM32F1xx_HAL_Driver/Inc\stm32f1xx_ll_bus.h **** /* Private constants ---------------------------------------------------------*/
  60:C:/Users/nace/OneDrive/Desktop/STM32/Projects_nace/NUCLEO_LL_Project_LCD/STM32_template_proj/Drivers/STM32F1xx_HAL_Driver/Inc\stm32f1xx_ll_bus.h **** #if defined(RCC_AHBRSTR_OTGFSRST) || defined(RCC_AHBRSTR_ETHMACRST)
  61:C:/Users/nace/OneDrive/Desktop/STM32/Projects_nace/NUCLEO_LL_Project_LCD/STM32_template_proj/Drivers/STM32F1xx_HAL_Driver/Inc\stm32f1xx_ll_bus.h **** #define RCC_AHBRSTR_SUPPORT
  62:C:/Users/nace/OneDrive/Desktop/STM32/Projects_nace/NUCLEO_LL_Project_LCD/STM32_template_proj/Drivers/STM32F1xx_HAL_Driver/Inc\stm32f1xx_ll_bus.h **** #endif /* RCC_AHBRSTR_OTGFSRST || RCC_AHBRSTR_ETHMACRST */
  63:C:/Users/nace/OneDrive/Desktop/STM32/Projects_nace/NUCLEO_LL_Project_LCD/STM32_template_proj/Drivers/STM32F1xx_HAL_Driver/Inc\stm32f1xx_ll_bus.h **** 
  64:C:/Users/nace/OneDrive/Desktop/STM32/Projects_nace/NUCLEO_LL_Project_LCD/STM32_template_proj/Drivers/STM32F1xx_HAL_Driver/Inc\stm32f1xx_ll_bus.h **** /* Private macros ------------------------------------------------------------*/
  65:C:/Users/nace/OneDrive/Desktop/STM32/Projects_nace/NUCLEO_LL_Project_LCD/STM32_template_proj/Drivers/STM32F1xx_HAL_Driver/Inc\stm32f1xx_ll_bus.h **** 
  66:C:/Users/nace/OneDrive/Desktop/STM32/Projects_nace/NUCLEO_LL_Project_LCD/STM32_template_proj/Drivers/STM32F1xx_HAL_Driver/Inc\stm32f1xx_ll_bus.h **** /* Exported types ------------------------------------------------------------*/
  67:C:/Users/nace/OneDrive/Desktop/STM32/Projects_nace/NUCLEO_LL_Project_LCD/STM32_template_proj/Drivers/STM32F1xx_HAL_Driver/Inc\stm32f1xx_ll_bus.h **** /* Exported constants --------------------------------------------------------*/
  68:C:/Users/nace/OneDrive/Desktop/STM32/Projects_nace/NUCLEO_LL_Project_LCD/STM32_template_proj/Drivers/STM32F1xx_HAL_Driver/Inc\stm32f1xx_ll_bus.h **** /** @defgroup BUS_LL_Exported_Constants BUS Exported Constants
  69:C:/Users/nace/OneDrive/Desktop/STM32/Projects_nace/NUCLEO_LL_Project_LCD/STM32_template_proj/Drivers/STM32F1xx_HAL_Driver/Inc\stm32f1xx_ll_bus.h ****   * @{
  70:C:/Users/nace/OneDrive/Desktop/STM32/Projects_nace/NUCLEO_LL_Project_LCD/STM32_template_proj/Drivers/STM32F1xx_HAL_Driver/Inc\stm32f1xx_ll_bus.h ****   */
  71:C:/Users/nace/OneDrive/Desktop/STM32/Projects_nace/NUCLEO_LL_Project_LCD/STM32_template_proj/Drivers/STM32F1xx_HAL_Driver/Inc\stm32f1xx_ll_bus.h **** 
  72:C:/Users/nace/OneDrive/Desktop/STM32/Projects_nace/NUCLEO_LL_Project_LCD/STM32_template_proj/Drivers/STM32F1xx_HAL_Driver/Inc\stm32f1xx_ll_bus.h **** /** @defgroup BUS_LL_EC_AHB1_GRP1_PERIPH  AHB1 GRP1 PERIPH
  73:C:/Users/nace/OneDrive/Desktop/STM32/Projects_nace/NUCLEO_LL_Project_LCD/STM32_template_proj/Drivers/STM32F1xx_HAL_Driver/Inc\stm32f1xx_ll_bus.h ****   * @{
  74:C:/Users/nace/OneDrive/Desktop/STM32/Projects_nace/NUCLEO_LL_Project_LCD/STM32_template_proj/Drivers/STM32F1xx_HAL_Driver/Inc\stm32f1xx_ll_bus.h ****   */
  75:C:/Users/nace/OneDrive/Desktop/STM32/Projects_nace/NUCLEO_LL_Project_LCD/STM32_template_proj/Drivers/STM32F1xx_HAL_Driver/Inc\stm32f1xx_ll_bus.h **** #define LL_AHB1_GRP1_PERIPH_ALL            (uint32_t)0xFFFFFFFFU
  76:C:/Users/nace/OneDrive/Desktop/STM32/Projects_nace/NUCLEO_LL_Project_LCD/STM32_template_proj/Drivers/STM32F1xx_HAL_Driver/Inc\stm32f1xx_ll_bus.h **** #define LL_AHB1_GRP1_PERIPH_CRC            RCC_AHBENR_CRCEN
  77:C:/Users/nace/OneDrive/Desktop/STM32/Projects_nace/NUCLEO_LL_Project_LCD/STM32_template_proj/Drivers/STM32F1xx_HAL_Driver/Inc\stm32f1xx_ll_bus.h **** #define LL_AHB1_GRP1_PERIPH_DMA1           RCC_AHBENR_DMA1EN
  78:C:/Users/nace/OneDrive/Desktop/STM32/Projects_nace/NUCLEO_LL_Project_LCD/STM32_template_proj/Drivers/STM32F1xx_HAL_Driver/Inc\stm32f1xx_ll_bus.h **** #if defined(DMA2)
  79:C:/Users/nace/OneDrive/Desktop/STM32/Projects_nace/NUCLEO_LL_Project_LCD/STM32_template_proj/Drivers/STM32F1xx_HAL_Driver/Inc\stm32f1xx_ll_bus.h **** #define LL_AHB1_GRP1_PERIPH_DMA2           RCC_AHBENR_DMA2EN
  80:C:/Users/nace/OneDrive/Desktop/STM32/Projects_nace/NUCLEO_LL_Project_LCD/STM32_template_proj/Drivers/STM32F1xx_HAL_Driver/Inc\stm32f1xx_ll_bus.h **** #endif /*DMA2*/
  81:C:/Users/nace/OneDrive/Desktop/STM32/Projects_nace/NUCLEO_LL_Project_LCD/STM32_template_proj/Drivers/STM32F1xx_HAL_Driver/Inc\stm32f1xx_ll_bus.h **** #if defined(ETH)
  82:C:/Users/nace/OneDrive/Desktop/STM32/Projects_nace/NUCLEO_LL_Project_LCD/STM32_template_proj/Drivers/STM32F1xx_HAL_Driver/Inc\stm32f1xx_ll_bus.h **** #define LL_AHB1_GRP1_PERIPH_ETHMAC         RCC_AHBENR_ETHMACEN
  83:C:/Users/nace/OneDrive/Desktop/STM32/Projects_nace/NUCLEO_LL_Project_LCD/STM32_template_proj/Drivers/STM32F1xx_HAL_Driver/Inc\stm32f1xx_ll_bus.h **** #define LL_AHB1_GRP1_PERIPH_ETHMACRX       RCC_AHBENR_ETHMACRXEN
  84:C:/Users/nace/OneDrive/Desktop/STM32/Projects_nace/NUCLEO_LL_Project_LCD/STM32_template_proj/Drivers/STM32F1xx_HAL_Driver/Inc\stm32f1xx_ll_bus.h **** #define LL_AHB1_GRP1_PERIPH_ETHMACTX       RCC_AHBENR_ETHMACTXEN
  85:C:/Users/nace/OneDrive/Desktop/STM32/Projects_nace/NUCLEO_LL_Project_LCD/STM32_template_proj/Drivers/STM32F1xx_HAL_Driver/Inc\stm32f1xx_ll_bus.h **** #endif /*ETH*/
  86:C:/Users/nace/OneDrive/Desktop/STM32/Projects_nace/NUCLEO_LL_Project_LCD/STM32_template_proj/Drivers/STM32F1xx_HAL_Driver/Inc\stm32f1xx_ll_bus.h **** #define LL_AHB1_GRP1_PERIPH_FLASH          RCC_AHBENR_FLITFEN
  87:C:/Users/nace/OneDrive/Desktop/STM32/Projects_nace/NUCLEO_LL_Project_LCD/STM32_template_proj/Drivers/STM32F1xx_HAL_Driver/Inc\stm32f1xx_ll_bus.h **** #if defined(FSMC_Bank1)
  88:C:/Users/nace/OneDrive/Desktop/STM32/Projects_nace/NUCLEO_LL_Project_LCD/STM32_template_proj/Drivers/STM32F1xx_HAL_Driver/Inc\stm32f1xx_ll_bus.h **** #define LL_AHB1_GRP1_PERIPH_FSMC           RCC_AHBENR_FSMCEN
  89:C:/Users/nace/OneDrive/Desktop/STM32/Projects_nace/NUCLEO_LL_Project_LCD/STM32_template_proj/Drivers/STM32F1xx_HAL_Driver/Inc\stm32f1xx_ll_bus.h **** #endif /*FSMC_Bank1*/
  90:C:/Users/nace/OneDrive/Desktop/STM32/Projects_nace/NUCLEO_LL_Project_LCD/STM32_template_proj/Drivers/STM32F1xx_HAL_Driver/Inc\stm32f1xx_ll_bus.h **** #if defined(USB_OTG_FS)
  91:C:/Users/nace/OneDrive/Desktop/STM32/Projects_nace/NUCLEO_LL_Project_LCD/STM32_template_proj/Drivers/STM32F1xx_HAL_Driver/Inc\stm32f1xx_ll_bus.h **** #define LL_AHB1_GRP1_PERIPH_OTGFS          RCC_AHBENR_OTGFSEN
  92:C:/Users/nace/OneDrive/Desktop/STM32/Projects_nace/NUCLEO_LL_Project_LCD/STM32_template_proj/Drivers/STM32F1xx_HAL_Driver/Inc\stm32f1xx_ll_bus.h **** #endif /*USB_OTG_FS*/
  93:C:/Users/nace/OneDrive/Desktop/STM32/Projects_nace/NUCLEO_LL_Project_LCD/STM32_template_proj/Drivers/STM32F1xx_HAL_Driver/Inc\stm32f1xx_ll_bus.h **** #if defined(SDIO)
  94:C:/Users/nace/OneDrive/Desktop/STM32/Projects_nace/NUCLEO_LL_Project_LCD/STM32_template_proj/Drivers/STM32F1xx_HAL_Driver/Inc\stm32f1xx_ll_bus.h **** #define LL_AHB1_GRP1_PERIPH_SDIO           RCC_AHBENR_SDIOEN
  95:C:/Users/nace/OneDrive/Desktop/STM32/Projects_nace/NUCLEO_LL_Project_LCD/STM32_template_proj/Drivers/STM32F1xx_HAL_Driver/Inc\stm32f1xx_ll_bus.h **** #endif /*SDIO*/
  96:C:/Users/nace/OneDrive/Desktop/STM32/Projects_nace/NUCLEO_LL_Project_LCD/STM32_template_proj/Drivers/STM32F1xx_HAL_Driver/Inc\stm32f1xx_ll_bus.h **** #define LL_AHB1_GRP1_PERIPH_SRAM           RCC_AHBENR_SRAMEN
  97:C:/Users/nace/OneDrive/Desktop/STM32/Projects_nace/NUCLEO_LL_Project_LCD/STM32_template_proj/Drivers/STM32F1xx_HAL_Driver/Inc\stm32f1xx_ll_bus.h **** /**
  98:C:/Users/nace/OneDrive/Desktop/STM32/Projects_nace/NUCLEO_LL_Project_LCD/STM32_template_proj/Drivers/STM32F1xx_HAL_Driver/Inc\stm32f1xx_ll_bus.h ****   * @}
  99:C:/Users/nace/OneDrive/Desktop/STM32/Projects_nace/NUCLEO_LL_Project_LCD/STM32_template_proj/Drivers/STM32F1xx_HAL_Driver/Inc\stm32f1xx_ll_bus.h ****   */
 100:C:/Users/nace/OneDrive/Desktop/STM32/Projects_nace/NUCLEO_LL_Project_LCD/STM32_template_proj/Drivers/STM32F1xx_HAL_Driver/Inc\stm32f1xx_ll_bus.h **** 
 101:C:/Users/nace/OneDrive/Desktop/STM32/Projects_nace/NUCLEO_LL_Project_LCD/STM32_template_proj/Drivers/STM32F1xx_HAL_Driver/Inc\stm32f1xx_ll_bus.h **** /** @defgroup BUS_LL_EC_APB1_GRP1_PERIPH  APB1 GRP1 PERIPH
 102:C:/Users/nace/OneDrive/Desktop/STM32/Projects_nace/NUCLEO_LL_Project_LCD/STM32_template_proj/Drivers/STM32F1xx_HAL_Driver/Inc\stm32f1xx_ll_bus.h ****   * @{
 103:C:/Users/nace/OneDrive/Desktop/STM32/Projects_nace/NUCLEO_LL_Project_LCD/STM32_template_proj/Drivers/STM32F1xx_HAL_Driver/Inc\stm32f1xx_ll_bus.h ****   */
 104:C:/Users/nace/OneDrive/Desktop/STM32/Projects_nace/NUCLEO_LL_Project_LCD/STM32_template_proj/Drivers/STM32F1xx_HAL_Driver/Inc\stm32f1xx_ll_bus.h **** #define LL_APB1_GRP1_PERIPH_ALL            (uint32_t)0xFFFFFFFFU
 105:C:/Users/nace/OneDrive/Desktop/STM32/Projects_nace/NUCLEO_LL_Project_LCD/STM32_template_proj/Drivers/STM32F1xx_HAL_Driver/Inc\stm32f1xx_ll_bus.h **** #define LL_APB1_GRP1_PERIPH_BKP            RCC_APB1ENR_BKPEN
 106:C:/Users/nace/OneDrive/Desktop/STM32/Projects_nace/NUCLEO_LL_Project_LCD/STM32_template_proj/Drivers/STM32F1xx_HAL_Driver/Inc\stm32f1xx_ll_bus.h **** #if defined(CAN1)
 107:C:/Users/nace/OneDrive/Desktop/STM32/Projects_nace/NUCLEO_LL_Project_LCD/STM32_template_proj/Drivers/STM32F1xx_HAL_Driver/Inc\stm32f1xx_ll_bus.h **** #define LL_APB1_GRP1_PERIPH_CAN1           RCC_APB1ENR_CAN1EN
 108:C:/Users/nace/OneDrive/Desktop/STM32/Projects_nace/NUCLEO_LL_Project_LCD/STM32_template_proj/Drivers/STM32F1xx_HAL_Driver/Inc\stm32f1xx_ll_bus.h **** #endif /*CAN1*/
 109:C:/Users/nace/OneDrive/Desktop/STM32/Projects_nace/NUCLEO_LL_Project_LCD/STM32_template_proj/Drivers/STM32F1xx_HAL_Driver/Inc\stm32f1xx_ll_bus.h **** #if defined(CAN2)
 110:C:/Users/nace/OneDrive/Desktop/STM32/Projects_nace/NUCLEO_LL_Project_LCD/STM32_template_proj/Drivers/STM32F1xx_HAL_Driver/Inc\stm32f1xx_ll_bus.h **** #define LL_APB1_GRP1_PERIPH_CAN2           RCC_APB1ENR_CAN2EN
 111:C:/Users/nace/OneDrive/Desktop/STM32/Projects_nace/NUCLEO_LL_Project_LCD/STM32_template_proj/Drivers/STM32F1xx_HAL_Driver/Inc\stm32f1xx_ll_bus.h **** #endif /*CAN2*/
 112:C:/Users/nace/OneDrive/Desktop/STM32/Projects_nace/NUCLEO_LL_Project_LCD/STM32_template_proj/Drivers/STM32F1xx_HAL_Driver/Inc\stm32f1xx_ll_bus.h **** #if defined(CEC)
 113:C:/Users/nace/OneDrive/Desktop/STM32/Projects_nace/NUCLEO_LL_Project_LCD/STM32_template_proj/Drivers/STM32F1xx_HAL_Driver/Inc\stm32f1xx_ll_bus.h **** #define LL_APB1_GRP1_PERIPH_CEC            RCC_APB1ENR_CECEN
 114:C:/Users/nace/OneDrive/Desktop/STM32/Projects_nace/NUCLEO_LL_Project_LCD/STM32_template_proj/Drivers/STM32F1xx_HAL_Driver/Inc\stm32f1xx_ll_bus.h **** #endif /*CEC*/
 115:C:/Users/nace/OneDrive/Desktop/STM32/Projects_nace/NUCLEO_LL_Project_LCD/STM32_template_proj/Drivers/STM32F1xx_HAL_Driver/Inc\stm32f1xx_ll_bus.h **** #if defined(DAC)
 116:C:/Users/nace/OneDrive/Desktop/STM32/Projects_nace/NUCLEO_LL_Project_LCD/STM32_template_proj/Drivers/STM32F1xx_HAL_Driver/Inc\stm32f1xx_ll_bus.h **** #define LL_APB1_GRP1_PERIPH_DAC1           RCC_APB1ENR_DACEN
 117:C:/Users/nace/OneDrive/Desktop/STM32/Projects_nace/NUCLEO_LL_Project_LCD/STM32_template_proj/Drivers/STM32F1xx_HAL_Driver/Inc\stm32f1xx_ll_bus.h **** #endif /*DAC*/
 118:C:/Users/nace/OneDrive/Desktop/STM32/Projects_nace/NUCLEO_LL_Project_LCD/STM32_template_proj/Drivers/STM32F1xx_HAL_Driver/Inc\stm32f1xx_ll_bus.h **** #define LL_APB1_GRP1_PERIPH_I2C1           RCC_APB1ENR_I2C1EN
 119:C:/Users/nace/OneDrive/Desktop/STM32/Projects_nace/NUCLEO_LL_Project_LCD/STM32_template_proj/Drivers/STM32F1xx_HAL_Driver/Inc\stm32f1xx_ll_bus.h **** 
 120:C:/Users/nace/OneDrive/Desktop/STM32/Projects_nace/NUCLEO_LL_Project_LCD/STM32_template_proj/Drivers/STM32F1xx_HAL_Driver/Inc\stm32f1xx_ll_bus.h **** #if defined(I2C2)
 121:C:/Users/nace/OneDrive/Desktop/STM32/Projects_nace/NUCLEO_LL_Project_LCD/STM32_template_proj/Drivers/STM32F1xx_HAL_Driver/Inc\stm32f1xx_ll_bus.h **** #define LL_APB1_GRP1_PERIPH_I2C2           RCC_APB1ENR_I2C2EN
 122:C:/Users/nace/OneDrive/Desktop/STM32/Projects_nace/NUCLEO_LL_Project_LCD/STM32_template_proj/Drivers/STM32F1xx_HAL_Driver/Inc\stm32f1xx_ll_bus.h **** #endif /*I2C2*/
 123:C:/Users/nace/OneDrive/Desktop/STM32/Projects_nace/NUCLEO_LL_Project_LCD/STM32_template_proj/Drivers/STM32F1xx_HAL_Driver/Inc\stm32f1xx_ll_bus.h **** 
 124:C:/Users/nace/OneDrive/Desktop/STM32/Projects_nace/NUCLEO_LL_Project_LCD/STM32_template_proj/Drivers/STM32F1xx_HAL_Driver/Inc\stm32f1xx_ll_bus.h **** #define LL_APB1_GRP1_PERIPH_PWR            RCC_APB1ENR_PWREN
 125:C:/Users/nace/OneDrive/Desktop/STM32/Projects_nace/NUCLEO_LL_Project_LCD/STM32_template_proj/Drivers/STM32F1xx_HAL_Driver/Inc\stm32f1xx_ll_bus.h **** 
 126:C:/Users/nace/OneDrive/Desktop/STM32/Projects_nace/NUCLEO_LL_Project_LCD/STM32_template_proj/Drivers/STM32F1xx_HAL_Driver/Inc\stm32f1xx_ll_bus.h **** #if defined(SPI2)
 127:C:/Users/nace/OneDrive/Desktop/STM32/Projects_nace/NUCLEO_LL_Project_LCD/STM32_template_proj/Drivers/STM32F1xx_HAL_Driver/Inc\stm32f1xx_ll_bus.h **** #define LL_APB1_GRP1_PERIPH_SPI2           RCC_APB1ENR_SPI2EN
 128:C:/Users/nace/OneDrive/Desktop/STM32/Projects_nace/NUCLEO_LL_Project_LCD/STM32_template_proj/Drivers/STM32F1xx_HAL_Driver/Inc\stm32f1xx_ll_bus.h **** #endif /*SPI2*/
 129:C:/Users/nace/OneDrive/Desktop/STM32/Projects_nace/NUCLEO_LL_Project_LCD/STM32_template_proj/Drivers/STM32F1xx_HAL_Driver/Inc\stm32f1xx_ll_bus.h **** 
 130:C:/Users/nace/OneDrive/Desktop/STM32/Projects_nace/NUCLEO_LL_Project_LCD/STM32_template_proj/Drivers/STM32F1xx_HAL_Driver/Inc\stm32f1xx_ll_bus.h **** #if defined(SPI3)
 131:C:/Users/nace/OneDrive/Desktop/STM32/Projects_nace/NUCLEO_LL_Project_LCD/STM32_template_proj/Drivers/STM32F1xx_HAL_Driver/Inc\stm32f1xx_ll_bus.h **** #define LL_APB1_GRP1_PERIPH_SPI3           RCC_APB1ENR_SPI3EN
 132:C:/Users/nace/OneDrive/Desktop/STM32/Projects_nace/NUCLEO_LL_Project_LCD/STM32_template_proj/Drivers/STM32F1xx_HAL_Driver/Inc\stm32f1xx_ll_bus.h **** #endif /*SPI3*/
 133:C:/Users/nace/OneDrive/Desktop/STM32/Projects_nace/NUCLEO_LL_Project_LCD/STM32_template_proj/Drivers/STM32F1xx_HAL_Driver/Inc\stm32f1xx_ll_bus.h **** 
 134:C:/Users/nace/OneDrive/Desktop/STM32/Projects_nace/NUCLEO_LL_Project_LCD/STM32_template_proj/Drivers/STM32F1xx_HAL_Driver/Inc\stm32f1xx_ll_bus.h **** #if defined(TIM12)
 135:C:/Users/nace/OneDrive/Desktop/STM32/Projects_nace/NUCLEO_LL_Project_LCD/STM32_template_proj/Drivers/STM32F1xx_HAL_Driver/Inc\stm32f1xx_ll_bus.h **** #define LL_APB1_GRP1_PERIPH_TIM12          RCC_APB1ENR_TIM12EN
 136:C:/Users/nace/OneDrive/Desktop/STM32/Projects_nace/NUCLEO_LL_Project_LCD/STM32_template_proj/Drivers/STM32F1xx_HAL_Driver/Inc\stm32f1xx_ll_bus.h **** #endif /*TIM12*/
 137:C:/Users/nace/OneDrive/Desktop/STM32/Projects_nace/NUCLEO_LL_Project_LCD/STM32_template_proj/Drivers/STM32F1xx_HAL_Driver/Inc\stm32f1xx_ll_bus.h **** #if defined(TIM13)
 138:C:/Users/nace/OneDrive/Desktop/STM32/Projects_nace/NUCLEO_LL_Project_LCD/STM32_template_proj/Drivers/STM32F1xx_HAL_Driver/Inc\stm32f1xx_ll_bus.h **** #define LL_APB1_GRP1_PERIPH_TIM13          RCC_APB1ENR_TIM13EN
 139:C:/Users/nace/OneDrive/Desktop/STM32/Projects_nace/NUCLEO_LL_Project_LCD/STM32_template_proj/Drivers/STM32F1xx_HAL_Driver/Inc\stm32f1xx_ll_bus.h **** #endif /*TIM13*/
 140:C:/Users/nace/OneDrive/Desktop/STM32/Projects_nace/NUCLEO_LL_Project_LCD/STM32_template_proj/Drivers/STM32F1xx_HAL_Driver/Inc\stm32f1xx_ll_bus.h **** #if defined(TIM14)
 141:C:/Users/nace/OneDrive/Desktop/STM32/Projects_nace/NUCLEO_LL_Project_LCD/STM32_template_proj/Drivers/STM32F1xx_HAL_Driver/Inc\stm32f1xx_ll_bus.h **** #define LL_APB1_GRP1_PERIPH_TIM14          RCC_APB1ENR_TIM14EN
 142:C:/Users/nace/OneDrive/Desktop/STM32/Projects_nace/NUCLEO_LL_Project_LCD/STM32_template_proj/Drivers/STM32F1xx_HAL_Driver/Inc\stm32f1xx_ll_bus.h **** #endif /*TIM14*/
 143:C:/Users/nace/OneDrive/Desktop/STM32/Projects_nace/NUCLEO_LL_Project_LCD/STM32_template_proj/Drivers/STM32F1xx_HAL_Driver/Inc\stm32f1xx_ll_bus.h **** #define LL_APB1_GRP1_PERIPH_TIM2           RCC_APB1ENR_TIM2EN
 144:C:/Users/nace/OneDrive/Desktop/STM32/Projects_nace/NUCLEO_LL_Project_LCD/STM32_template_proj/Drivers/STM32F1xx_HAL_Driver/Inc\stm32f1xx_ll_bus.h **** #define LL_APB1_GRP1_PERIPH_TIM3           RCC_APB1ENR_TIM3EN
 145:C:/Users/nace/OneDrive/Desktop/STM32/Projects_nace/NUCLEO_LL_Project_LCD/STM32_template_proj/Drivers/STM32F1xx_HAL_Driver/Inc\stm32f1xx_ll_bus.h **** #if defined(TIM4)
 146:C:/Users/nace/OneDrive/Desktop/STM32/Projects_nace/NUCLEO_LL_Project_LCD/STM32_template_proj/Drivers/STM32F1xx_HAL_Driver/Inc\stm32f1xx_ll_bus.h **** #define LL_APB1_GRP1_PERIPH_TIM4           RCC_APB1ENR_TIM4EN
 147:C:/Users/nace/OneDrive/Desktop/STM32/Projects_nace/NUCLEO_LL_Project_LCD/STM32_template_proj/Drivers/STM32F1xx_HAL_Driver/Inc\stm32f1xx_ll_bus.h **** #endif /*TIM4*/
 148:C:/Users/nace/OneDrive/Desktop/STM32/Projects_nace/NUCLEO_LL_Project_LCD/STM32_template_proj/Drivers/STM32F1xx_HAL_Driver/Inc\stm32f1xx_ll_bus.h **** #if defined(TIM5)
 149:C:/Users/nace/OneDrive/Desktop/STM32/Projects_nace/NUCLEO_LL_Project_LCD/STM32_template_proj/Drivers/STM32F1xx_HAL_Driver/Inc\stm32f1xx_ll_bus.h **** #define LL_APB1_GRP1_PERIPH_TIM5           RCC_APB1ENR_TIM5EN
 150:C:/Users/nace/OneDrive/Desktop/STM32/Projects_nace/NUCLEO_LL_Project_LCD/STM32_template_proj/Drivers/STM32F1xx_HAL_Driver/Inc\stm32f1xx_ll_bus.h **** #endif /*TIM5*/
 151:C:/Users/nace/OneDrive/Desktop/STM32/Projects_nace/NUCLEO_LL_Project_LCD/STM32_template_proj/Drivers/STM32F1xx_HAL_Driver/Inc\stm32f1xx_ll_bus.h **** #if defined(TIM6)
 152:C:/Users/nace/OneDrive/Desktop/STM32/Projects_nace/NUCLEO_LL_Project_LCD/STM32_template_proj/Drivers/STM32F1xx_HAL_Driver/Inc\stm32f1xx_ll_bus.h **** #define LL_APB1_GRP1_PERIPH_TIM6           RCC_APB1ENR_TIM6EN
 153:C:/Users/nace/OneDrive/Desktop/STM32/Projects_nace/NUCLEO_LL_Project_LCD/STM32_template_proj/Drivers/STM32F1xx_HAL_Driver/Inc\stm32f1xx_ll_bus.h **** #endif /*TIM6*/
 154:C:/Users/nace/OneDrive/Desktop/STM32/Projects_nace/NUCLEO_LL_Project_LCD/STM32_template_proj/Drivers/STM32F1xx_HAL_Driver/Inc\stm32f1xx_ll_bus.h **** #if defined(TIM7)
 155:C:/Users/nace/OneDrive/Desktop/STM32/Projects_nace/NUCLEO_LL_Project_LCD/STM32_template_proj/Drivers/STM32F1xx_HAL_Driver/Inc\stm32f1xx_ll_bus.h **** #define LL_APB1_GRP1_PERIPH_TIM7           RCC_APB1ENR_TIM7EN
 156:C:/Users/nace/OneDrive/Desktop/STM32/Projects_nace/NUCLEO_LL_Project_LCD/STM32_template_proj/Drivers/STM32F1xx_HAL_Driver/Inc\stm32f1xx_ll_bus.h **** #endif /*TIM7*/
 157:C:/Users/nace/OneDrive/Desktop/STM32/Projects_nace/NUCLEO_LL_Project_LCD/STM32_template_proj/Drivers/STM32F1xx_HAL_Driver/Inc\stm32f1xx_ll_bus.h **** #if defined(UART4)
 158:C:/Users/nace/OneDrive/Desktop/STM32/Projects_nace/NUCLEO_LL_Project_LCD/STM32_template_proj/Drivers/STM32F1xx_HAL_Driver/Inc\stm32f1xx_ll_bus.h **** #define LL_APB1_GRP1_PERIPH_UART4          RCC_APB1ENR_UART4EN
 159:C:/Users/nace/OneDrive/Desktop/STM32/Projects_nace/NUCLEO_LL_Project_LCD/STM32_template_proj/Drivers/STM32F1xx_HAL_Driver/Inc\stm32f1xx_ll_bus.h **** #endif /*UART4*/
 160:C:/Users/nace/OneDrive/Desktop/STM32/Projects_nace/NUCLEO_LL_Project_LCD/STM32_template_proj/Drivers/STM32F1xx_HAL_Driver/Inc\stm32f1xx_ll_bus.h **** #if defined(UART5)
 161:C:/Users/nace/OneDrive/Desktop/STM32/Projects_nace/NUCLEO_LL_Project_LCD/STM32_template_proj/Drivers/STM32F1xx_HAL_Driver/Inc\stm32f1xx_ll_bus.h **** #define LL_APB1_GRP1_PERIPH_UART5          RCC_APB1ENR_UART5EN
 162:C:/Users/nace/OneDrive/Desktop/STM32/Projects_nace/NUCLEO_LL_Project_LCD/STM32_template_proj/Drivers/STM32F1xx_HAL_Driver/Inc\stm32f1xx_ll_bus.h **** #endif /*UART5*/
 163:C:/Users/nace/OneDrive/Desktop/STM32/Projects_nace/NUCLEO_LL_Project_LCD/STM32_template_proj/Drivers/STM32F1xx_HAL_Driver/Inc\stm32f1xx_ll_bus.h **** #define LL_APB1_GRP1_PERIPH_USART2         RCC_APB1ENR_USART2EN
 164:C:/Users/nace/OneDrive/Desktop/STM32/Projects_nace/NUCLEO_LL_Project_LCD/STM32_template_proj/Drivers/STM32F1xx_HAL_Driver/Inc\stm32f1xx_ll_bus.h **** #if defined(USART3)
 165:C:/Users/nace/OneDrive/Desktop/STM32/Projects_nace/NUCLEO_LL_Project_LCD/STM32_template_proj/Drivers/STM32F1xx_HAL_Driver/Inc\stm32f1xx_ll_bus.h **** #define LL_APB1_GRP1_PERIPH_USART3         RCC_APB1ENR_USART3EN
 166:C:/Users/nace/OneDrive/Desktop/STM32/Projects_nace/NUCLEO_LL_Project_LCD/STM32_template_proj/Drivers/STM32F1xx_HAL_Driver/Inc\stm32f1xx_ll_bus.h **** #endif /*USART3*/
 167:C:/Users/nace/OneDrive/Desktop/STM32/Projects_nace/NUCLEO_LL_Project_LCD/STM32_template_proj/Drivers/STM32F1xx_HAL_Driver/Inc\stm32f1xx_ll_bus.h **** #if defined(USB)
 168:C:/Users/nace/OneDrive/Desktop/STM32/Projects_nace/NUCLEO_LL_Project_LCD/STM32_template_proj/Drivers/STM32F1xx_HAL_Driver/Inc\stm32f1xx_ll_bus.h **** #define LL_APB1_GRP1_PERIPH_USB            RCC_APB1ENR_USBEN
 169:C:/Users/nace/OneDrive/Desktop/STM32/Projects_nace/NUCLEO_LL_Project_LCD/STM32_template_proj/Drivers/STM32F1xx_HAL_Driver/Inc\stm32f1xx_ll_bus.h **** #endif /*USB*/
 170:C:/Users/nace/OneDrive/Desktop/STM32/Projects_nace/NUCLEO_LL_Project_LCD/STM32_template_proj/Drivers/STM32F1xx_HAL_Driver/Inc\stm32f1xx_ll_bus.h **** #define LL_APB1_GRP1_PERIPH_WWDG           RCC_APB1ENR_WWDGEN
 171:C:/Users/nace/OneDrive/Desktop/STM32/Projects_nace/NUCLEO_LL_Project_LCD/STM32_template_proj/Drivers/STM32F1xx_HAL_Driver/Inc\stm32f1xx_ll_bus.h **** /**
 172:C:/Users/nace/OneDrive/Desktop/STM32/Projects_nace/NUCLEO_LL_Project_LCD/STM32_template_proj/Drivers/STM32F1xx_HAL_Driver/Inc\stm32f1xx_ll_bus.h ****   * @}
 173:C:/Users/nace/OneDrive/Desktop/STM32/Projects_nace/NUCLEO_LL_Project_LCD/STM32_template_proj/Drivers/STM32F1xx_HAL_Driver/Inc\stm32f1xx_ll_bus.h ****   */
 174:C:/Users/nace/OneDrive/Desktop/STM32/Projects_nace/NUCLEO_LL_Project_LCD/STM32_template_proj/Drivers/STM32F1xx_HAL_Driver/Inc\stm32f1xx_ll_bus.h **** 
 175:C:/Users/nace/OneDrive/Desktop/STM32/Projects_nace/NUCLEO_LL_Project_LCD/STM32_template_proj/Drivers/STM32F1xx_HAL_Driver/Inc\stm32f1xx_ll_bus.h **** /** @defgroup BUS_LL_EC_APB2_GRP1_PERIPH  APB2 GRP1 PERIPH
 176:C:/Users/nace/OneDrive/Desktop/STM32/Projects_nace/NUCLEO_LL_Project_LCD/STM32_template_proj/Drivers/STM32F1xx_HAL_Driver/Inc\stm32f1xx_ll_bus.h ****   * @{
 177:C:/Users/nace/OneDrive/Desktop/STM32/Projects_nace/NUCLEO_LL_Project_LCD/STM32_template_proj/Drivers/STM32F1xx_HAL_Driver/Inc\stm32f1xx_ll_bus.h ****   */
 178:C:/Users/nace/OneDrive/Desktop/STM32/Projects_nace/NUCLEO_LL_Project_LCD/STM32_template_proj/Drivers/STM32F1xx_HAL_Driver/Inc\stm32f1xx_ll_bus.h **** #define LL_APB2_GRP1_PERIPH_ALL            (uint32_t)0xFFFFFFFFU
 179:C:/Users/nace/OneDrive/Desktop/STM32/Projects_nace/NUCLEO_LL_Project_LCD/STM32_template_proj/Drivers/STM32F1xx_HAL_Driver/Inc\stm32f1xx_ll_bus.h **** #define LL_APB2_GRP1_PERIPH_ADC1           RCC_APB2ENR_ADC1EN
 180:C:/Users/nace/OneDrive/Desktop/STM32/Projects_nace/NUCLEO_LL_Project_LCD/STM32_template_proj/Drivers/STM32F1xx_HAL_Driver/Inc\stm32f1xx_ll_bus.h **** #if defined(ADC2)
 181:C:/Users/nace/OneDrive/Desktop/STM32/Projects_nace/NUCLEO_LL_Project_LCD/STM32_template_proj/Drivers/STM32F1xx_HAL_Driver/Inc\stm32f1xx_ll_bus.h **** #define LL_APB2_GRP1_PERIPH_ADC2           RCC_APB2ENR_ADC2EN
 182:C:/Users/nace/OneDrive/Desktop/STM32/Projects_nace/NUCLEO_LL_Project_LCD/STM32_template_proj/Drivers/STM32F1xx_HAL_Driver/Inc\stm32f1xx_ll_bus.h **** #endif /*ADC2*/
 183:C:/Users/nace/OneDrive/Desktop/STM32/Projects_nace/NUCLEO_LL_Project_LCD/STM32_template_proj/Drivers/STM32F1xx_HAL_Driver/Inc\stm32f1xx_ll_bus.h **** #if defined(ADC3)
 184:C:/Users/nace/OneDrive/Desktop/STM32/Projects_nace/NUCLEO_LL_Project_LCD/STM32_template_proj/Drivers/STM32F1xx_HAL_Driver/Inc\stm32f1xx_ll_bus.h **** #define LL_APB2_GRP1_PERIPH_ADC3           RCC_APB2ENR_ADC3EN
 185:C:/Users/nace/OneDrive/Desktop/STM32/Projects_nace/NUCLEO_LL_Project_LCD/STM32_template_proj/Drivers/STM32F1xx_HAL_Driver/Inc\stm32f1xx_ll_bus.h **** #endif /*ADC3*/
 186:C:/Users/nace/OneDrive/Desktop/STM32/Projects_nace/NUCLEO_LL_Project_LCD/STM32_template_proj/Drivers/STM32F1xx_HAL_Driver/Inc\stm32f1xx_ll_bus.h **** #define LL_APB2_GRP1_PERIPH_AFIO           RCC_APB2ENR_AFIOEN
 187:C:/Users/nace/OneDrive/Desktop/STM32/Projects_nace/NUCLEO_LL_Project_LCD/STM32_template_proj/Drivers/STM32F1xx_HAL_Driver/Inc\stm32f1xx_ll_bus.h **** #define LL_APB2_GRP1_PERIPH_GPIOA          RCC_APB2ENR_IOPAEN
 188:C:/Users/nace/OneDrive/Desktop/STM32/Projects_nace/NUCLEO_LL_Project_LCD/STM32_template_proj/Drivers/STM32F1xx_HAL_Driver/Inc\stm32f1xx_ll_bus.h **** #define LL_APB2_GRP1_PERIPH_GPIOB          RCC_APB2ENR_IOPBEN
 189:C:/Users/nace/OneDrive/Desktop/STM32/Projects_nace/NUCLEO_LL_Project_LCD/STM32_template_proj/Drivers/STM32F1xx_HAL_Driver/Inc\stm32f1xx_ll_bus.h **** #define LL_APB2_GRP1_PERIPH_GPIOC          RCC_APB2ENR_IOPCEN
 190:C:/Users/nace/OneDrive/Desktop/STM32/Projects_nace/NUCLEO_LL_Project_LCD/STM32_template_proj/Drivers/STM32F1xx_HAL_Driver/Inc\stm32f1xx_ll_bus.h **** #define LL_APB2_GRP1_PERIPH_GPIOD          RCC_APB2ENR_IOPDEN
 191:C:/Users/nace/OneDrive/Desktop/STM32/Projects_nace/NUCLEO_LL_Project_LCD/STM32_template_proj/Drivers/STM32F1xx_HAL_Driver/Inc\stm32f1xx_ll_bus.h **** #if defined(GPIOE)
 192:C:/Users/nace/OneDrive/Desktop/STM32/Projects_nace/NUCLEO_LL_Project_LCD/STM32_template_proj/Drivers/STM32F1xx_HAL_Driver/Inc\stm32f1xx_ll_bus.h **** #define LL_APB2_GRP1_PERIPH_GPIOE          RCC_APB2ENR_IOPEEN
 193:C:/Users/nace/OneDrive/Desktop/STM32/Projects_nace/NUCLEO_LL_Project_LCD/STM32_template_proj/Drivers/STM32F1xx_HAL_Driver/Inc\stm32f1xx_ll_bus.h **** #endif /*GPIOE*/
 194:C:/Users/nace/OneDrive/Desktop/STM32/Projects_nace/NUCLEO_LL_Project_LCD/STM32_template_proj/Drivers/STM32F1xx_HAL_Driver/Inc\stm32f1xx_ll_bus.h **** #if defined(GPIOF)
 195:C:/Users/nace/OneDrive/Desktop/STM32/Projects_nace/NUCLEO_LL_Project_LCD/STM32_template_proj/Drivers/STM32F1xx_HAL_Driver/Inc\stm32f1xx_ll_bus.h **** #define LL_APB2_GRP1_PERIPH_GPIOF          RCC_APB2ENR_IOPFEN
 196:C:/Users/nace/OneDrive/Desktop/STM32/Projects_nace/NUCLEO_LL_Project_LCD/STM32_template_proj/Drivers/STM32F1xx_HAL_Driver/Inc\stm32f1xx_ll_bus.h **** #endif /*GPIOF*/
 197:C:/Users/nace/OneDrive/Desktop/STM32/Projects_nace/NUCLEO_LL_Project_LCD/STM32_template_proj/Drivers/STM32F1xx_HAL_Driver/Inc\stm32f1xx_ll_bus.h **** #if defined(GPIOG)
 198:C:/Users/nace/OneDrive/Desktop/STM32/Projects_nace/NUCLEO_LL_Project_LCD/STM32_template_proj/Drivers/STM32F1xx_HAL_Driver/Inc\stm32f1xx_ll_bus.h **** #define LL_APB2_GRP1_PERIPH_GPIOG          RCC_APB2ENR_IOPGEN
 199:C:/Users/nace/OneDrive/Desktop/STM32/Projects_nace/NUCLEO_LL_Project_LCD/STM32_template_proj/Drivers/STM32F1xx_HAL_Driver/Inc\stm32f1xx_ll_bus.h **** #endif /*GPIOG*/
 200:C:/Users/nace/OneDrive/Desktop/STM32/Projects_nace/NUCLEO_LL_Project_LCD/STM32_template_proj/Drivers/STM32F1xx_HAL_Driver/Inc\stm32f1xx_ll_bus.h **** #define LL_APB2_GRP1_PERIPH_SPI1           RCC_APB2ENR_SPI1EN
 201:C:/Users/nace/OneDrive/Desktop/STM32/Projects_nace/NUCLEO_LL_Project_LCD/STM32_template_proj/Drivers/STM32F1xx_HAL_Driver/Inc\stm32f1xx_ll_bus.h **** #if defined(TIM10)
 202:C:/Users/nace/OneDrive/Desktop/STM32/Projects_nace/NUCLEO_LL_Project_LCD/STM32_template_proj/Drivers/STM32F1xx_HAL_Driver/Inc\stm32f1xx_ll_bus.h **** #define LL_APB2_GRP1_PERIPH_TIM10          RCC_APB2ENR_TIM10EN
 203:C:/Users/nace/OneDrive/Desktop/STM32/Projects_nace/NUCLEO_LL_Project_LCD/STM32_template_proj/Drivers/STM32F1xx_HAL_Driver/Inc\stm32f1xx_ll_bus.h **** #endif /*TIM10*/
 204:C:/Users/nace/OneDrive/Desktop/STM32/Projects_nace/NUCLEO_LL_Project_LCD/STM32_template_proj/Drivers/STM32F1xx_HAL_Driver/Inc\stm32f1xx_ll_bus.h **** #if defined(TIM11)
 205:C:/Users/nace/OneDrive/Desktop/STM32/Projects_nace/NUCLEO_LL_Project_LCD/STM32_template_proj/Drivers/STM32F1xx_HAL_Driver/Inc\stm32f1xx_ll_bus.h **** #define LL_APB2_GRP1_PERIPH_TIM11          RCC_APB2ENR_TIM11EN
 206:C:/Users/nace/OneDrive/Desktop/STM32/Projects_nace/NUCLEO_LL_Project_LCD/STM32_template_proj/Drivers/STM32F1xx_HAL_Driver/Inc\stm32f1xx_ll_bus.h **** #endif /*TIM11*/
 207:C:/Users/nace/OneDrive/Desktop/STM32/Projects_nace/NUCLEO_LL_Project_LCD/STM32_template_proj/Drivers/STM32F1xx_HAL_Driver/Inc\stm32f1xx_ll_bus.h **** #if defined(TIM15)
 208:C:/Users/nace/OneDrive/Desktop/STM32/Projects_nace/NUCLEO_LL_Project_LCD/STM32_template_proj/Drivers/STM32F1xx_HAL_Driver/Inc\stm32f1xx_ll_bus.h **** #define LL_APB2_GRP1_PERIPH_TIM15          RCC_APB2ENR_TIM15EN
 209:C:/Users/nace/OneDrive/Desktop/STM32/Projects_nace/NUCLEO_LL_Project_LCD/STM32_template_proj/Drivers/STM32F1xx_HAL_Driver/Inc\stm32f1xx_ll_bus.h **** #endif /*TIM15*/
 210:C:/Users/nace/OneDrive/Desktop/STM32/Projects_nace/NUCLEO_LL_Project_LCD/STM32_template_proj/Drivers/STM32F1xx_HAL_Driver/Inc\stm32f1xx_ll_bus.h **** #if defined(TIM16)
 211:C:/Users/nace/OneDrive/Desktop/STM32/Projects_nace/NUCLEO_LL_Project_LCD/STM32_template_proj/Drivers/STM32F1xx_HAL_Driver/Inc\stm32f1xx_ll_bus.h **** #define LL_APB2_GRP1_PERIPH_TIM16          RCC_APB2ENR_TIM16EN
 212:C:/Users/nace/OneDrive/Desktop/STM32/Projects_nace/NUCLEO_LL_Project_LCD/STM32_template_proj/Drivers/STM32F1xx_HAL_Driver/Inc\stm32f1xx_ll_bus.h **** #endif /*TIM16*/
 213:C:/Users/nace/OneDrive/Desktop/STM32/Projects_nace/NUCLEO_LL_Project_LCD/STM32_template_proj/Drivers/STM32F1xx_HAL_Driver/Inc\stm32f1xx_ll_bus.h **** #if defined(TIM17)
 214:C:/Users/nace/OneDrive/Desktop/STM32/Projects_nace/NUCLEO_LL_Project_LCD/STM32_template_proj/Drivers/STM32F1xx_HAL_Driver/Inc\stm32f1xx_ll_bus.h **** #define LL_APB2_GRP1_PERIPH_TIM17          RCC_APB2ENR_TIM17EN
 215:C:/Users/nace/OneDrive/Desktop/STM32/Projects_nace/NUCLEO_LL_Project_LCD/STM32_template_proj/Drivers/STM32F1xx_HAL_Driver/Inc\stm32f1xx_ll_bus.h **** #endif /*TIM17*/
 216:C:/Users/nace/OneDrive/Desktop/STM32/Projects_nace/NUCLEO_LL_Project_LCD/STM32_template_proj/Drivers/STM32F1xx_HAL_Driver/Inc\stm32f1xx_ll_bus.h **** #define LL_APB2_GRP1_PERIPH_TIM1           RCC_APB2ENR_TIM1EN
 217:C:/Users/nace/OneDrive/Desktop/STM32/Projects_nace/NUCLEO_LL_Project_LCD/STM32_template_proj/Drivers/STM32F1xx_HAL_Driver/Inc\stm32f1xx_ll_bus.h **** #if defined(TIM8)
 218:C:/Users/nace/OneDrive/Desktop/STM32/Projects_nace/NUCLEO_LL_Project_LCD/STM32_template_proj/Drivers/STM32F1xx_HAL_Driver/Inc\stm32f1xx_ll_bus.h **** #define LL_APB2_GRP1_PERIPH_TIM8           RCC_APB2ENR_TIM8EN
 219:C:/Users/nace/OneDrive/Desktop/STM32/Projects_nace/NUCLEO_LL_Project_LCD/STM32_template_proj/Drivers/STM32F1xx_HAL_Driver/Inc\stm32f1xx_ll_bus.h **** #endif /*TIM8*/
 220:C:/Users/nace/OneDrive/Desktop/STM32/Projects_nace/NUCLEO_LL_Project_LCD/STM32_template_proj/Drivers/STM32F1xx_HAL_Driver/Inc\stm32f1xx_ll_bus.h **** #if defined(TIM9)
 221:C:/Users/nace/OneDrive/Desktop/STM32/Projects_nace/NUCLEO_LL_Project_LCD/STM32_template_proj/Drivers/STM32F1xx_HAL_Driver/Inc\stm32f1xx_ll_bus.h **** #define LL_APB2_GRP1_PERIPH_TIM9           RCC_APB2ENR_TIM9EN
 222:C:/Users/nace/OneDrive/Desktop/STM32/Projects_nace/NUCLEO_LL_Project_LCD/STM32_template_proj/Drivers/STM32F1xx_HAL_Driver/Inc\stm32f1xx_ll_bus.h **** #endif /*TIM9*/
 223:C:/Users/nace/OneDrive/Desktop/STM32/Projects_nace/NUCLEO_LL_Project_LCD/STM32_template_proj/Drivers/STM32F1xx_HAL_Driver/Inc\stm32f1xx_ll_bus.h **** #define LL_APB2_GRP1_PERIPH_USART1         RCC_APB2ENR_USART1EN
 224:C:/Users/nace/OneDrive/Desktop/STM32/Projects_nace/NUCLEO_LL_Project_LCD/STM32_template_proj/Drivers/STM32F1xx_HAL_Driver/Inc\stm32f1xx_ll_bus.h **** /**
 225:C:/Users/nace/OneDrive/Desktop/STM32/Projects_nace/NUCLEO_LL_Project_LCD/STM32_template_proj/Drivers/STM32F1xx_HAL_Driver/Inc\stm32f1xx_ll_bus.h ****   * @}
 226:C:/Users/nace/OneDrive/Desktop/STM32/Projects_nace/NUCLEO_LL_Project_LCD/STM32_template_proj/Drivers/STM32F1xx_HAL_Driver/Inc\stm32f1xx_ll_bus.h ****   */
 227:C:/Users/nace/OneDrive/Desktop/STM32/Projects_nace/NUCLEO_LL_Project_LCD/STM32_template_proj/Drivers/STM32F1xx_HAL_Driver/Inc\stm32f1xx_ll_bus.h **** 
 228:C:/Users/nace/OneDrive/Desktop/STM32/Projects_nace/NUCLEO_LL_Project_LCD/STM32_template_proj/Drivers/STM32F1xx_HAL_Driver/Inc\stm32f1xx_ll_bus.h **** /**
 229:C:/Users/nace/OneDrive/Desktop/STM32/Projects_nace/NUCLEO_LL_Project_LCD/STM32_template_proj/Drivers/STM32F1xx_HAL_Driver/Inc\stm32f1xx_ll_bus.h ****   * @}
 230:C:/Users/nace/OneDrive/Desktop/STM32/Projects_nace/NUCLEO_LL_Project_LCD/STM32_template_proj/Drivers/STM32F1xx_HAL_Driver/Inc\stm32f1xx_ll_bus.h ****   */
 231:C:/Users/nace/OneDrive/Desktop/STM32/Projects_nace/NUCLEO_LL_Project_LCD/STM32_template_proj/Drivers/STM32F1xx_HAL_Driver/Inc\stm32f1xx_ll_bus.h **** 
 232:C:/Users/nace/OneDrive/Desktop/STM32/Projects_nace/NUCLEO_LL_Project_LCD/STM32_template_proj/Drivers/STM32F1xx_HAL_Driver/Inc\stm32f1xx_ll_bus.h **** /* Exported macro ------------------------------------------------------------*/
 233:C:/Users/nace/OneDrive/Desktop/STM32/Projects_nace/NUCLEO_LL_Project_LCD/STM32_template_proj/Drivers/STM32F1xx_HAL_Driver/Inc\stm32f1xx_ll_bus.h **** 
 234:C:/Users/nace/OneDrive/Desktop/STM32/Projects_nace/NUCLEO_LL_Project_LCD/STM32_template_proj/Drivers/STM32F1xx_HAL_Driver/Inc\stm32f1xx_ll_bus.h **** /* Exported functions --------------------------------------------------------*/
 235:C:/Users/nace/OneDrive/Desktop/STM32/Projects_nace/NUCLEO_LL_Project_LCD/STM32_template_proj/Drivers/STM32F1xx_HAL_Driver/Inc\stm32f1xx_ll_bus.h **** /** @defgroup BUS_LL_Exported_Functions BUS Exported Functions
 236:C:/Users/nace/OneDrive/Desktop/STM32/Projects_nace/NUCLEO_LL_Project_LCD/STM32_template_proj/Drivers/STM32F1xx_HAL_Driver/Inc\stm32f1xx_ll_bus.h ****   * @{
 237:C:/Users/nace/OneDrive/Desktop/STM32/Projects_nace/NUCLEO_LL_Project_LCD/STM32_template_proj/Drivers/STM32F1xx_HAL_Driver/Inc\stm32f1xx_ll_bus.h ****   */
 238:C:/Users/nace/OneDrive/Desktop/STM32/Projects_nace/NUCLEO_LL_Project_LCD/STM32_template_proj/Drivers/STM32F1xx_HAL_Driver/Inc\stm32f1xx_ll_bus.h **** 
 239:C:/Users/nace/OneDrive/Desktop/STM32/Projects_nace/NUCLEO_LL_Project_LCD/STM32_template_proj/Drivers/STM32F1xx_HAL_Driver/Inc\stm32f1xx_ll_bus.h **** /** @defgroup BUS_LL_EF_AHB1 AHB1
 240:C:/Users/nace/OneDrive/Desktop/STM32/Projects_nace/NUCLEO_LL_Project_LCD/STM32_template_proj/Drivers/STM32F1xx_HAL_Driver/Inc\stm32f1xx_ll_bus.h ****   * @{
 241:C:/Users/nace/OneDrive/Desktop/STM32/Projects_nace/NUCLEO_LL_Project_LCD/STM32_template_proj/Drivers/STM32F1xx_HAL_Driver/Inc\stm32f1xx_ll_bus.h ****   */
 242:C:/Users/nace/OneDrive/Desktop/STM32/Projects_nace/NUCLEO_LL_Project_LCD/STM32_template_proj/Drivers/STM32F1xx_HAL_Driver/Inc\stm32f1xx_ll_bus.h **** 
 243:C:/Users/nace/OneDrive/Desktop/STM32/Projects_nace/NUCLEO_LL_Project_LCD/STM32_template_proj/Drivers/STM32F1xx_HAL_Driver/Inc\stm32f1xx_ll_bus.h **** /**
 244:C:/Users/nace/OneDrive/Desktop/STM32/Projects_nace/NUCLEO_LL_Project_LCD/STM32_template_proj/Drivers/STM32F1xx_HAL_Driver/Inc\stm32f1xx_ll_bus.h ****   * @brief  Enable AHB1 peripherals clock.
 245:C:/Users/nace/OneDrive/Desktop/STM32/Projects_nace/NUCLEO_LL_Project_LCD/STM32_template_proj/Drivers/STM32F1xx_HAL_Driver/Inc\stm32f1xx_ll_bus.h ****   * @rmtoll AHBENR       CRCEN         LL_AHB1_GRP1_EnableClock\n
 246:C:/Users/nace/OneDrive/Desktop/STM32/Projects_nace/NUCLEO_LL_Project_LCD/STM32_template_proj/Drivers/STM32F1xx_HAL_Driver/Inc\stm32f1xx_ll_bus.h ****   *         AHBENR       DMA1EN        LL_AHB1_GRP1_EnableClock\n
 247:C:/Users/nace/OneDrive/Desktop/STM32/Projects_nace/NUCLEO_LL_Project_LCD/STM32_template_proj/Drivers/STM32F1xx_HAL_Driver/Inc\stm32f1xx_ll_bus.h ****   *         AHBENR       DMA2EN        LL_AHB1_GRP1_EnableClock\n
 248:C:/Users/nace/OneDrive/Desktop/STM32/Projects_nace/NUCLEO_LL_Project_LCD/STM32_template_proj/Drivers/STM32F1xx_HAL_Driver/Inc\stm32f1xx_ll_bus.h ****   *         AHBENR       ETHMACEN      LL_AHB1_GRP1_EnableClock\n
 249:C:/Users/nace/OneDrive/Desktop/STM32/Projects_nace/NUCLEO_LL_Project_LCD/STM32_template_proj/Drivers/STM32F1xx_HAL_Driver/Inc\stm32f1xx_ll_bus.h ****   *         AHBENR       ETHMACRXEN    LL_AHB1_GRP1_EnableClock\n
 250:C:/Users/nace/OneDrive/Desktop/STM32/Projects_nace/NUCLEO_LL_Project_LCD/STM32_template_proj/Drivers/STM32F1xx_HAL_Driver/Inc\stm32f1xx_ll_bus.h ****   *         AHBENR       ETHMACTXEN    LL_AHB1_GRP1_EnableClock\n
 251:C:/Users/nace/OneDrive/Desktop/STM32/Projects_nace/NUCLEO_LL_Project_LCD/STM32_template_proj/Drivers/STM32F1xx_HAL_Driver/Inc\stm32f1xx_ll_bus.h ****   *         AHBENR       FLITFEN       LL_AHB1_GRP1_EnableClock\n
 252:C:/Users/nace/OneDrive/Desktop/STM32/Projects_nace/NUCLEO_LL_Project_LCD/STM32_template_proj/Drivers/STM32F1xx_HAL_Driver/Inc\stm32f1xx_ll_bus.h ****   *         AHBENR       FSMCEN        LL_AHB1_GRP1_EnableClock\n
 253:C:/Users/nace/OneDrive/Desktop/STM32/Projects_nace/NUCLEO_LL_Project_LCD/STM32_template_proj/Drivers/STM32F1xx_HAL_Driver/Inc\stm32f1xx_ll_bus.h ****   *         AHBENR       OTGFSEN       LL_AHB1_GRP1_EnableClock\n
 254:C:/Users/nace/OneDrive/Desktop/STM32/Projects_nace/NUCLEO_LL_Project_LCD/STM32_template_proj/Drivers/STM32F1xx_HAL_Driver/Inc\stm32f1xx_ll_bus.h ****   *         AHBENR       SDIOEN        LL_AHB1_GRP1_EnableClock\n
 255:C:/Users/nace/OneDrive/Desktop/STM32/Projects_nace/NUCLEO_LL_Project_LCD/STM32_template_proj/Drivers/STM32F1xx_HAL_Driver/Inc\stm32f1xx_ll_bus.h ****   *         AHBENR       SRAMEN        LL_AHB1_GRP1_EnableClock
 256:C:/Users/nace/OneDrive/Desktop/STM32/Projects_nace/NUCLEO_LL_Project_LCD/STM32_template_proj/Drivers/STM32F1xx_HAL_Driver/Inc\stm32f1xx_ll_bus.h ****   * @param  Periphs This parameter can be a combination of the following values:
 257:C:/Users/nace/OneDrive/Desktop/STM32/Projects_nace/NUCLEO_LL_Project_LCD/STM32_template_proj/Drivers/STM32F1xx_HAL_Driver/Inc\stm32f1xx_ll_bus.h ****   *         @arg @ref LL_AHB1_GRP1_PERIPH_CRC
 258:C:/Users/nace/OneDrive/Desktop/STM32/Projects_nace/NUCLEO_LL_Project_LCD/STM32_template_proj/Drivers/STM32F1xx_HAL_Driver/Inc\stm32f1xx_ll_bus.h ****   *         @arg @ref LL_AHB1_GRP1_PERIPH_DMA1
 259:C:/Users/nace/OneDrive/Desktop/STM32/Projects_nace/NUCLEO_LL_Project_LCD/STM32_template_proj/Drivers/STM32F1xx_HAL_Driver/Inc\stm32f1xx_ll_bus.h ****   *         @arg @ref LL_AHB1_GRP1_PERIPH_DMA2 (*)
 260:C:/Users/nace/OneDrive/Desktop/STM32/Projects_nace/NUCLEO_LL_Project_LCD/STM32_template_proj/Drivers/STM32F1xx_HAL_Driver/Inc\stm32f1xx_ll_bus.h ****   *         @arg @ref LL_AHB1_GRP1_PERIPH_ETHMAC (*)
 261:C:/Users/nace/OneDrive/Desktop/STM32/Projects_nace/NUCLEO_LL_Project_LCD/STM32_template_proj/Drivers/STM32F1xx_HAL_Driver/Inc\stm32f1xx_ll_bus.h ****   *         @arg @ref LL_AHB1_GRP1_PERIPH_ETHMACRX (*)
 262:C:/Users/nace/OneDrive/Desktop/STM32/Projects_nace/NUCLEO_LL_Project_LCD/STM32_template_proj/Drivers/STM32F1xx_HAL_Driver/Inc\stm32f1xx_ll_bus.h ****   *         @arg @ref LL_AHB1_GRP1_PERIPH_ETHMACTX (*)
 263:C:/Users/nace/OneDrive/Desktop/STM32/Projects_nace/NUCLEO_LL_Project_LCD/STM32_template_proj/Drivers/STM32F1xx_HAL_Driver/Inc\stm32f1xx_ll_bus.h ****   *         @arg @ref LL_AHB1_GRP1_PERIPH_FLASH
 264:C:/Users/nace/OneDrive/Desktop/STM32/Projects_nace/NUCLEO_LL_Project_LCD/STM32_template_proj/Drivers/STM32F1xx_HAL_Driver/Inc\stm32f1xx_ll_bus.h ****   *         @arg @ref LL_AHB1_GRP1_PERIPH_FSMC (*)
 265:C:/Users/nace/OneDrive/Desktop/STM32/Projects_nace/NUCLEO_LL_Project_LCD/STM32_template_proj/Drivers/STM32F1xx_HAL_Driver/Inc\stm32f1xx_ll_bus.h ****   *         @arg @ref LL_AHB1_GRP1_PERIPH_OTGFS (*)
 266:C:/Users/nace/OneDrive/Desktop/STM32/Projects_nace/NUCLEO_LL_Project_LCD/STM32_template_proj/Drivers/STM32F1xx_HAL_Driver/Inc\stm32f1xx_ll_bus.h ****   *         @arg @ref LL_AHB1_GRP1_PERIPH_SDIO (*)
 267:C:/Users/nace/OneDrive/Desktop/STM32/Projects_nace/NUCLEO_LL_Project_LCD/STM32_template_proj/Drivers/STM32F1xx_HAL_Driver/Inc\stm32f1xx_ll_bus.h ****   *         @arg @ref LL_AHB1_GRP1_PERIPH_SRAM
 268:C:/Users/nace/OneDrive/Desktop/STM32/Projects_nace/NUCLEO_LL_Project_LCD/STM32_template_proj/Drivers/STM32F1xx_HAL_Driver/Inc\stm32f1xx_ll_bus.h ****   *
 269:C:/Users/nace/OneDrive/Desktop/STM32/Projects_nace/NUCLEO_LL_Project_LCD/STM32_template_proj/Drivers/STM32F1xx_HAL_Driver/Inc\stm32f1xx_ll_bus.h ****   *         (*) value not defined in all devices.
 270:C:/Users/nace/OneDrive/Desktop/STM32/Projects_nace/NUCLEO_LL_Project_LCD/STM32_template_proj/Drivers/STM32F1xx_HAL_Driver/Inc\stm32f1xx_ll_bus.h ****   * @retval None
 271:C:/Users/nace/OneDrive/Desktop/STM32/Projects_nace/NUCLEO_LL_Project_LCD/STM32_template_proj/Drivers/STM32F1xx_HAL_Driver/Inc\stm32f1xx_ll_bus.h **** */
 272:C:/Users/nace/OneDrive/Desktop/STM32/Projects_nace/NUCLEO_LL_Project_LCD/STM32_template_proj/Drivers/STM32F1xx_HAL_Driver/Inc\stm32f1xx_ll_bus.h **** __STATIC_INLINE void LL_AHB1_GRP1_EnableClock(uint32_t Periphs)
 273:C:/Users/nace/OneDrive/Desktop/STM32/Projects_nace/NUCLEO_LL_Project_LCD/STM32_template_proj/Drivers/STM32F1xx_HAL_Driver/Inc\stm32f1xx_ll_bus.h **** {
 274:C:/Users/nace/OneDrive/Desktop/STM32/Projects_nace/NUCLEO_LL_Project_LCD/STM32_template_proj/Drivers/STM32F1xx_HAL_Driver/Inc\stm32f1xx_ll_bus.h ****   __IO uint32_t tmpreg;
 275:C:/Users/nace/OneDrive/Desktop/STM32/Projects_nace/NUCLEO_LL_Project_LCD/STM32_template_proj/Drivers/STM32F1xx_HAL_Driver/Inc\stm32f1xx_ll_bus.h ****   SET_BIT(RCC->AHBENR, Periphs);
 276:C:/Users/nace/OneDrive/Desktop/STM32/Projects_nace/NUCLEO_LL_Project_LCD/STM32_template_proj/Drivers/STM32F1xx_HAL_Driver/Inc\stm32f1xx_ll_bus.h ****   /* Delay after an RCC peripheral clock enabling */
 277:C:/Users/nace/OneDrive/Desktop/STM32/Projects_nace/NUCLEO_LL_Project_LCD/STM32_template_proj/Drivers/STM32F1xx_HAL_Driver/Inc\stm32f1xx_ll_bus.h ****   tmpreg = READ_BIT(RCC->AHBENR, Periphs);
 278:C:/Users/nace/OneDrive/Desktop/STM32/Projects_nace/NUCLEO_LL_Project_LCD/STM32_template_proj/Drivers/STM32F1xx_HAL_Driver/Inc\stm32f1xx_ll_bus.h ****   (void)tmpreg;
 279:C:/Users/nace/OneDrive/Desktop/STM32/Projects_nace/NUCLEO_LL_Project_LCD/STM32_template_proj/Drivers/STM32F1xx_HAL_Driver/Inc\stm32f1xx_ll_bus.h **** }
 280:C:/Users/nace/OneDrive/Desktop/STM32/Projects_nace/NUCLEO_LL_Project_LCD/STM32_template_proj/Drivers/STM32F1xx_HAL_Driver/Inc\stm32f1xx_ll_bus.h **** 
 281:C:/Users/nace/OneDrive/Desktop/STM32/Projects_nace/NUCLEO_LL_Project_LCD/STM32_template_proj/Drivers/STM32F1xx_HAL_Driver/Inc\stm32f1xx_ll_bus.h **** /**
 282:C:/Users/nace/OneDrive/Desktop/STM32/Projects_nace/NUCLEO_LL_Project_LCD/STM32_template_proj/Drivers/STM32F1xx_HAL_Driver/Inc\stm32f1xx_ll_bus.h ****   * @brief  Check if AHB1 peripheral clock is enabled or not
 283:C:/Users/nace/OneDrive/Desktop/STM32/Projects_nace/NUCLEO_LL_Project_LCD/STM32_template_proj/Drivers/STM32F1xx_HAL_Driver/Inc\stm32f1xx_ll_bus.h ****   * @rmtoll AHBENR       CRCEN         LL_AHB1_GRP1_IsEnabledClock\n
 284:C:/Users/nace/OneDrive/Desktop/STM32/Projects_nace/NUCLEO_LL_Project_LCD/STM32_template_proj/Drivers/STM32F1xx_HAL_Driver/Inc\stm32f1xx_ll_bus.h ****   *         AHBENR       DMA1EN        LL_AHB1_GRP1_IsEnabledClock\n
 285:C:/Users/nace/OneDrive/Desktop/STM32/Projects_nace/NUCLEO_LL_Project_LCD/STM32_template_proj/Drivers/STM32F1xx_HAL_Driver/Inc\stm32f1xx_ll_bus.h ****   *         AHBENR       DMA2EN        LL_AHB1_GRP1_IsEnabledClock\n
 286:C:/Users/nace/OneDrive/Desktop/STM32/Projects_nace/NUCLEO_LL_Project_LCD/STM32_template_proj/Drivers/STM32F1xx_HAL_Driver/Inc\stm32f1xx_ll_bus.h ****   *         AHBENR       ETHMACEN      LL_AHB1_GRP1_IsEnabledClock\n
 287:C:/Users/nace/OneDrive/Desktop/STM32/Projects_nace/NUCLEO_LL_Project_LCD/STM32_template_proj/Drivers/STM32F1xx_HAL_Driver/Inc\stm32f1xx_ll_bus.h ****   *         AHBENR       ETHMACRXEN    LL_AHB1_GRP1_IsEnabledClock\n
 288:C:/Users/nace/OneDrive/Desktop/STM32/Projects_nace/NUCLEO_LL_Project_LCD/STM32_template_proj/Drivers/STM32F1xx_HAL_Driver/Inc\stm32f1xx_ll_bus.h ****   *         AHBENR       ETHMACTXEN    LL_AHB1_GRP1_IsEnabledClock\n
 289:C:/Users/nace/OneDrive/Desktop/STM32/Projects_nace/NUCLEO_LL_Project_LCD/STM32_template_proj/Drivers/STM32F1xx_HAL_Driver/Inc\stm32f1xx_ll_bus.h ****   *         AHBENR       FLITFEN       LL_AHB1_GRP1_IsEnabledClock\n
 290:C:/Users/nace/OneDrive/Desktop/STM32/Projects_nace/NUCLEO_LL_Project_LCD/STM32_template_proj/Drivers/STM32F1xx_HAL_Driver/Inc\stm32f1xx_ll_bus.h ****   *         AHBENR       FSMCEN        LL_AHB1_GRP1_IsEnabledClock\n
 291:C:/Users/nace/OneDrive/Desktop/STM32/Projects_nace/NUCLEO_LL_Project_LCD/STM32_template_proj/Drivers/STM32F1xx_HAL_Driver/Inc\stm32f1xx_ll_bus.h ****   *         AHBENR       OTGFSEN       LL_AHB1_GRP1_IsEnabledClock\n
 292:C:/Users/nace/OneDrive/Desktop/STM32/Projects_nace/NUCLEO_LL_Project_LCD/STM32_template_proj/Drivers/STM32F1xx_HAL_Driver/Inc\stm32f1xx_ll_bus.h ****   *         AHBENR       SDIOEN        LL_AHB1_GRP1_IsEnabledClock\n
 293:C:/Users/nace/OneDrive/Desktop/STM32/Projects_nace/NUCLEO_LL_Project_LCD/STM32_template_proj/Drivers/STM32F1xx_HAL_Driver/Inc\stm32f1xx_ll_bus.h ****   *         AHBENR       SRAMEN        LL_AHB1_GRP1_IsEnabledClock
 294:C:/Users/nace/OneDrive/Desktop/STM32/Projects_nace/NUCLEO_LL_Project_LCD/STM32_template_proj/Drivers/STM32F1xx_HAL_Driver/Inc\stm32f1xx_ll_bus.h ****   * @param  Periphs This parameter can be a combination of the following values:
 295:C:/Users/nace/OneDrive/Desktop/STM32/Projects_nace/NUCLEO_LL_Project_LCD/STM32_template_proj/Drivers/STM32F1xx_HAL_Driver/Inc\stm32f1xx_ll_bus.h ****   *         @arg @ref LL_AHB1_GRP1_PERIPH_CRC
 296:C:/Users/nace/OneDrive/Desktop/STM32/Projects_nace/NUCLEO_LL_Project_LCD/STM32_template_proj/Drivers/STM32F1xx_HAL_Driver/Inc\stm32f1xx_ll_bus.h ****   *         @arg @ref LL_AHB1_GRP1_PERIPH_DMA1
 297:C:/Users/nace/OneDrive/Desktop/STM32/Projects_nace/NUCLEO_LL_Project_LCD/STM32_template_proj/Drivers/STM32F1xx_HAL_Driver/Inc\stm32f1xx_ll_bus.h ****   *         @arg @ref LL_AHB1_GRP1_PERIPH_DMA2 (*)
 298:C:/Users/nace/OneDrive/Desktop/STM32/Projects_nace/NUCLEO_LL_Project_LCD/STM32_template_proj/Drivers/STM32F1xx_HAL_Driver/Inc\stm32f1xx_ll_bus.h ****   *         @arg @ref LL_AHB1_GRP1_PERIPH_ETHMAC (*)
 299:C:/Users/nace/OneDrive/Desktop/STM32/Projects_nace/NUCLEO_LL_Project_LCD/STM32_template_proj/Drivers/STM32F1xx_HAL_Driver/Inc\stm32f1xx_ll_bus.h ****   *         @arg @ref LL_AHB1_GRP1_PERIPH_ETHMACRX (*)
 300:C:/Users/nace/OneDrive/Desktop/STM32/Projects_nace/NUCLEO_LL_Project_LCD/STM32_template_proj/Drivers/STM32F1xx_HAL_Driver/Inc\stm32f1xx_ll_bus.h ****   *         @arg @ref LL_AHB1_GRP1_PERIPH_ETHMACTX (*)
 301:C:/Users/nace/OneDrive/Desktop/STM32/Projects_nace/NUCLEO_LL_Project_LCD/STM32_template_proj/Drivers/STM32F1xx_HAL_Driver/Inc\stm32f1xx_ll_bus.h ****   *         @arg @ref LL_AHB1_GRP1_PERIPH_FLASH
 302:C:/Users/nace/OneDrive/Desktop/STM32/Projects_nace/NUCLEO_LL_Project_LCD/STM32_template_proj/Drivers/STM32F1xx_HAL_Driver/Inc\stm32f1xx_ll_bus.h ****   *         @arg @ref LL_AHB1_GRP1_PERIPH_FSMC (*)
 303:C:/Users/nace/OneDrive/Desktop/STM32/Projects_nace/NUCLEO_LL_Project_LCD/STM32_template_proj/Drivers/STM32F1xx_HAL_Driver/Inc\stm32f1xx_ll_bus.h ****   *         @arg @ref LL_AHB1_GRP1_PERIPH_OTGFS (*)
 304:C:/Users/nace/OneDrive/Desktop/STM32/Projects_nace/NUCLEO_LL_Project_LCD/STM32_template_proj/Drivers/STM32F1xx_HAL_Driver/Inc\stm32f1xx_ll_bus.h ****   *         @arg @ref LL_AHB1_GRP1_PERIPH_SDIO (*)
 305:C:/Users/nace/OneDrive/Desktop/STM32/Projects_nace/NUCLEO_LL_Project_LCD/STM32_template_proj/Drivers/STM32F1xx_HAL_Driver/Inc\stm32f1xx_ll_bus.h ****   *         @arg @ref LL_AHB1_GRP1_PERIPH_SRAM
 306:C:/Users/nace/OneDrive/Desktop/STM32/Projects_nace/NUCLEO_LL_Project_LCD/STM32_template_proj/Drivers/STM32F1xx_HAL_Driver/Inc\stm32f1xx_ll_bus.h ****   *
 307:C:/Users/nace/OneDrive/Desktop/STM32/Projects_nace/NUCLEO_LL_Project_LCD/STM32_template_proj/Drivers/STM32F1xx_HAL_Driver/Inc\stm32f1xx_ll_bus.h ****   *         (*) value not defined in all devices.
 308:C:/Users/nace/OneDrive/Desktop/STM32/Projects_nace/NUCLEO_LL_Project_LCD/STM32_template_proj/Drivers/STM32F1xx_HAL_Driver/Inc\stm32f1xx_ll_bus.h ****   * @retval State of Periphs (1 or 0).
 309:C:/Users/nace/OneDrive/Desktop/STM32/Projects_nace/NUCLEO_LL_Project_LCD/STM32_template_proj/Drivers/STM32F1xx_HAL_Driver/Inc\stm32f1xx_ll_bus.h **** */
 310:C:/Users/nace/OneDrive/Desktop/STM32/Projects_nace/NUCLEO_LL_Project_LCD/STM32_template_proj/Drivers/STM32F1xx_HAL_Driver/Inc\stm32f1xx_ll_bus.h **** __STATIC_INLINE uint32_t LL_AHB1_GRP1_IsEnabledClock(uint32_t Periphs)
 311:C:/Users/nace/OneDrive/Desktop/STM32/Projects_nace/NUCLEO_LL_Project_LCD/STM32_template_proj/Drivers/STM32F1xx_HAL_Driver/Inc\stm32f1xx_ll_bus.h **** {
 312:C:/Users/nace/OneDrive/Desktop/STM32/Projects_nace/NUCLEO_LL_Project_LCD/STM32_template_proj/Drivers/STM32F1xx_HAL_Driver/Inc\stm32f1xx_ll_bus.h ****   return (READ_BIT(RCC->AHBENR, Periphs) == Periphs);
 313:C:/Users/nace/OneDrive/Desktop/STM32/Projects_nace/NUCLEO_LL_Project_LCD/STM32_template_proj/Drivers/STM32F1xx_HAL_Driver/Inc\stm32f1xx_ll_bus.h **** }
 314:C:/Users/nace/OneDrive/Desktop/STM32/Projects_nace/NUCLEO_LL_Project_LCD/STM32_template_proj/Drivers/STM32F1xx_HAL_Driver/Inc\stm32f1xx_ll_bus.h **** 
 315:C:/Users/nace/OneDrive/Desktop/STM32/Projects_nace/NUCLEO_LL_Project_LCD/STM32_template_proj/Drivers/STM32F1xx_HAL_Driver/Inc\stm32f1xx_ll_bus.h **** /**
 316:C:/Users/nace/OneDrive/Desktop/STM32/Projects_nace/NUCLEO_LL_Project_LCD/STM32_template_proj/Drivers/STM32F1xx_HAL_Driver/Inc\stm32f1xx_ll_bus.h ****   * @brief  Disable AHB1 peripherals clock.
 317:C:/Users/nace/OneDrive/Desktop/STM32/Projects_nace/NUCLEO_LL_Project_LCD/STM32_template_proj/Drivers/STM32F1xx_HAL_Driver/Inc\stm32f1xx_ll_bus.h ****   * @rmtoll AHBENR       CRCEN         LL_AHB1_GRP1_DisableClock\n
 318:C:/Users/nace/OneDrive/Desktop/STM32/Projects_nace/NUCLEO_LL_Project_LCD/STM32_template_proj/Drivers/STM32F1xx_HAL_Driver/Inc\stm32f1xx_ll_bus.h ****   *         AHBENR       DMA1EN        LL_AHB1_GRP1_DisableClock\n
 319:C:/Users/nace/OneDrive/Desktop/STM32/Projects_nace/NUCLEO_LL_Project_LCD/STM32_template_proj/Drivers/STM32F1xx_HAL_Driver/Inc\stm32f1xx_ll_bus.h ****   *         AHBENR       DMA2EN        LL_AHB1_GRP1_DisableClock\n
 320:C:/Users/nace/OneDrive/Desktop/STM32/Projects_nace/NUCLEO_LL_Project_LCD/STM32_template_proj/Drivers/STM32F1xx_HAL_Driver/Inc\stm32f1xx_ll_bus.h ****   *         AHBENR       ETHMACEN      LL_AHB1_GRP1_DisableClock\n
 321:C:/Users/nace/OneDrive/Desktop/STM32/Projects_nace/NUCLEO_LL_Project_LCD/STM32_template_proj/Drivers/STM32F1xx_HAL_Driver/Inc\stm32f1xx_ll_bus.h ****   *         AHBENR       ETHMACRXEN    LL_AHB1_GRP1_DisableClock\n
 322:C:/Users/nace/OneDrive/Desktop/STM32/Projects_nace/NUCLEO_LL_Project_LCD/STM32_template_proj/Drivers/STM32F1xx_HAL_Driver/Inc\stm32f1xx_ll_bus.h ****   *         AHBENR       ETHMACTXEN    LL_AHB1_GRP1_DisableClock\n
 323:C:/Users/nace/OneDrive/Desktop/STM32/Projects_nace/NUCLEO_LL_Project_LCD/STM32_template_proj/Drivers/STM32F1xx_HAL_Driver/Inc\stm32f1xx_ll_bus.h ****   *         AHBENR       FLITFEN       LL_AHB1_GRP1_DisableClock\n
 324:C:/Users/nace/OneDrive/Desktop/STM32/Projects_nace/NUCLEO_LL_Project_LCD/STM32_template_proj/Drivers/STM32F1xx_HAL_Driver/Inc\stm32f1xx_ll_bus.h ****   *         AHBENR       FSMCEN        LL_AHB1_GRP1_DisableClock\n
 325:C:/Users/nace/OneDrive/Desktop/STM32/Projects_nace/NUCLEO_LL_Project_LCD/STM32_template_proj/Drivers/STM32F1xx_HAL_Driver/Inc\stm32f1xx_ll_bus.h ****   *         AHBENR       OTGFSEN       LL_AHB1_GRP1_DisableClock\n
 326:C:/Users/nace/OneDrive/Desktop/STM32/Projects_nace/NUCLEO_LL_Project_LCD/STM32_template_proj/Drivers/STM32F1xx_HAL_Driver/Inc\stm32f1xx_ll_bus.h ****   *         AHBENR       SDIOEN        LL_AHB1_GRP1_DisableClock\n
 327:C:/Users/nace/OneDrive/Desktop/STM32/Projects_nace/NUCLEO_LL_Project_LCD/STM32_template_proj/Drivers/STM32F1xx_HAL_Driver/Inc\stm32f1xx_ll_bus.h ****   *         AHBENR       SRAMEN        LL_AHB1_GRP1_DisableClock
 328:C:/Users/nace/OneDrive/Desktop/STM32/Projects_nace/NUCLEO_LL_Project_LCD/STM32_template_proj/Drivers/STM32F1xx_HAL_Driver/Inc\stm32f1xx_ll_bus.h ****   * @param  Periphs This parameter can be a combination of the following values:
 329:C:/Users/nace/OneDrive/Desktop/STM32/Projects_nace/NUCLEO_LL_Project_LCD/STM32_template_proj/Drivers/STM32F1xx_HAL_Driver/Inc\stm32f1xx_ll_bus.h ****   *         @arg @ref LL_AHB1_GRP1_PERIPH_CRC
 330:C:/Users/nace/OneDrive/Desktop/STM32/Projects_nace/NUCLEO_LL_Project_LCD/STM32_template_proj/Drivers/STM32F1xx_HAL_Driver/Inc\stm32f1xx_ll_bus.h ****   *         @arg @ref LL_AHB1_GRP1_PERIPH_DMA1
 331:C:/Users/nace/OneDrive/Desktop/STM32/Projects_nace/NUCLEO_LL_Project_LCD/STM32_template_proj/Drivers/STM32F1xx_HAL_Driver/Inc\stm32f1xx_ll_bus.h ****   *         @arg @ref LL_AHB1_GRP1_PERIPH_DMA2 (*)
 332:C:/Users/nace/OneDrive/Desktop/STM32/Projects_nace/NUCLEO_LL_Project_LCD/STM32_template_proj/Drivers/STM32F1xx_HAL_Driver/Inc\stm32f1xx_ll_bus.h ****   *         @arg @ref LL_AHB1_GRP1_PERIPH_ETHMAC (*)
 333:C:/Users/nace/OneDrive/Desktop/STM32/Projects_nace/NUCLEO_LL_Project_LCD/STM32_template_proj/Drivers/STM32F1xx_HAL_Driver/Inc\stm32f1xx_ll_bus.h ****   *         @arg @ref LL_AHB1_GRP1_PERIPH_ETHMACRX (*)
 334:C:/Users/nace/OneDrive/Desktop/STM32/Projects_nace/NUCLEO_LL_Project_LCD/STM32_template_proj/Drivers/STM32F1xx_HAL_Driver/Inc\stm32f1xx_ll_bus.h ****   *         @arg @ref LL_AHB1_GRP1_PERIPH_ETHMACTX (*)
 335:C:/Users/nace/OneDrive/Desktop/STM32/Projects_nace/NUCLEO_LL_Project_LCD/STM32_template_proj/Drivers/STM32F1xx_HAL_Driver/Inc\stm32f1xx_ll_bus.h ****   *         @arg @ref LL_AHB1_GRP1_PERIPH_FLASH
 336:C:/Users/nace/OneDrive/Desktop/STM32/Projects_nace/NUCLEO_LL_Project_LCD/STM32_template_proj/Drivers/STM32F1xx_HAL_Driver/Inc\stm32f1xx_ll_bus.h ****   *         @arg @ref LL_AHB1_GRP1_PERIPH_FSMC (*)
 337:C:/Users/nace/OneDrive/Desktop/STM32/Projects_nace/NUCLEO_LL_Project_LCD/STM32_template_proj/Drivers/STM32F1xx_HAL_Driver/Inc\stm32f1xx_ll_bus.h ****   *         @arg @ref LL_AHB1_GRP1_PERIPH_OTGFS (*)
 338:C:/Users/nace/OneDrive/Desktop/STM32/Projects_nace/NUCLEO_LL_Project_LCD/STM32_template_proj/Drivers/STM32F1xx_HAL_Driver/Inc\stm32f1xx_ll_bus.h ****   *         @arg @ref LL_AHB1_GRP1_PERIPH_SDIO (*)
 339:C:/Users/nace/OneDrive/Desktop/STM32/Projects_nace/NUCLEO_LL_Project_LCD/STM32_template_proj/Drivers/STM32F1xx_HAL_Driver/Inc\stm32f1xx_ll_bus.h ****   *         @arg @ref LL_AHB1_GRP1_PERIPH_SRAM
 340:C:/Users/nace/OneDrive/Desktop/STM32/Projects_nace/NUCLEO_LL_Project_LCD/STM32_template_proj/Drivers/STM32F1xx_HAL_Driver/Inc\stm32f1xx_ll_bus.h ****   *
 341:C:/Users/nace/OneDrive/Desktop/STM32/Projects_nace/NUCLEO_LL_Project_LCD/STM32_template_proj/Drivers/STM32F1xx_HAL_Driver/Inc\stm32f1xx_ll_bus.h ****   *         (*) value not defined in all devices.
 342:C:/Users/nace/OneDrive/Desktop/STM32/Projects_nace/NUCLEO_LL_Project_LCD/STM32_template_proj/Drivers/STM32F1xx_HAL_Driver/Inc\stm32f1xx_ll_bus.h ****   * @retval None
 343:C:/Users/nace/OneDrive/Desktop/STM32/Projects_nace/NUCLEO_LL_Project_LCD/STM32_template_proj/Drivers/STM32F1xx_HAL_Driver/Inc\stm32f1xx_ll_bus.h **** */
 344:C:/Users/nace/OneDrive/Desktop/STM32/Projects_nace/NUCLEO_LL_Project_LCD/STM32_template_proj/Drivers/STM32F1xx_HAL_Driver/Inc\stm32f1xx_ll_bus.h **** __STATIC_INLINE void LL_AHB1_GRP1_DisableClock(uint32_t Periphs)
 345:C:/Users/nace/OneDrive/Desktop/STM32/Projects_nace/NUCLEO_LL_Project_LCD/STM32_template_proj/Drivers/STM32F1xx_HAL_Driver/Inc\stm32f1xx_ll_bus.h **** {
 346:C:/Users/nace/OneDrive/Desktop/STM32/Projects_nace/NUCLEO_LL_Project_LCD/STM32_template_proj/Drivers/STM32F1xx_HAL_Driver/Inc\stm32f1xx_ll_bus.h ****   CLEAR_BIT(RCC->AHBENR, Periphs);
 347:C:/Users/nace/OneDrive/Desktop/STM32/Projects_nace/NUCLEO_LL_Project_LCD/STM32_template_proj/Drivers/STM32F1xx_HAL_Driver/Inc\stm32f1xx_ll_bus.h **** }
 348:C:/Users/nace/OneDrive/Desktop/STM32/Projects_nace/NUCLEO_LL_Project_LCD/STM32_template_proj/Drivers/STM32F1xx_HAL_Driver/Inc\stm32f1xx_ll_bus.h **** 
 349:C:/Users/nace/OneDrive/Desktop/STM32/Projects_nace/NUCLEO_LL_Project_LCD/STM32_template_proj/Drivers/STM32F1xx_HAL_Driver/Inc\stm32f1xx_ll_bus.h **** #if defined(RCC_AHBRSTR_SUPPORT)
 350:C:/Users/nace/OneDrive/Desktop/STM32/Projects_nace/NUCLEO_LL_Project_LCD/STM32_template_proj/Drivers/STM32F1xx_HAL_Driver/Inc\stm32f1xx_ll_bus.h **** /**
 351:C:/Users/nace/OneDrive/Desktop/STM32/Projects_nace/NUCLEO_LL_Project_LCD/STM32_template_proj/Drivers/STM32F1xx_HAL_Driver/Inc\stm32f1xx_ll_bus.h ****   * @brief  Force AHB1 peripherals reset.
 352:C:/Users/nace/OneDrive/Desktop/STM32/Projects_nace/NUCLEO_LL_Project_LCD/STM32_template_proj/Drivers/STM32F1xx_HAL_Driver/Inc\stm32f1xx_ll_bus.h ****   * @rmtoll AHBRSTR      ETHMACRST     LL_AHB1_GRP1_ForceReset\n
 353:C:/Users/nace/OneDrive/Desktop/STM32/Projects_nace/NUCLEO_LL_Project_LCD/STM32_template_proj/Drivers/STM32F1xx_HAL_Driver/Inc\stm32f1xx_ll_bus.h ****   *         AHBRSTR      OTGFSRST      LL_AHB1_GRP1_ForceReset
 354:C:/Users/nace/OneDrive/Desktop/STM32/Projects_nace/NUCLEO_LL_Project_LCD/STM32_template_proj/Drivers/STM32F1xx_HAL_Driver/Inc\stm32f1xx_ll_bus.h ****   * @param  Periphs This parameter can be a combination of the following values:
 355:C:/Users/nace/OneDrive/Desktop/STM32/Projects_nace/NUCLEO_LL_Project_LCD/STM32_template_proj/Drivers/STM32F1xx_HAL_Driver/Inc\stm32f1xx_ll_bus.h ****   *         @arg @ref LL_AHB1_GRP1_PERIPH_ALL
 356:C:/Users/nace/OneDrive/Desktop/STM32/Projects_nace/NUCLEO_LL_Project_LCD/STM32_template_proj/Drivers/STM32F1xx_HAL_Driver/Inc\stm32f1xx_ll_bus.h ****   *         @arg @ref LL_AHB1_GRP1_PERIPH_ETHMAC (*)
 357:C:/Users/nace/OneDrive/Desktop/STM32/Projects_nace/NUCLEO_LL_Project_LCD/STM32_template_proj/Drivers/STM32F1xx_HAL_Driver/Inc\stm32f1xx_ll_bus.h ****   *         @arg @ref LL_AHB1_GRP1_PERIPH_OTGFS (*)
 358:C:/Users/nace/OneDrive/Desktop/STM32/Projects_nace/NUCLEO_LL_Project_LCD/STM32_template_proj/Drivers/STM32F1xx_HAL_Driver/Inc\stm32f1xx_ll_bus.h ****   *
 359:C:/Users/nace/OneDrive/Desktop/STM32/Projects_nace/NUCLEO_LL_Project_LCD/STM32_template_proj/Drivers/STM32F1xx_HAL_Driver/Inc\stm32f1xx_ll_bus.h ****   *         (*) value not defined in all devices.
 360:C:/Users/nace/OneDrive/Desktop/STM32/Projects_nace/NUCLEO_LL_Project_LCD/STM32_template_proj/Drivers/STM32F1xx_HAL_Driver/Inc\stm32f1xx_ll_bus.h ****   * @retval None
 361:C:/Users/nace/OneDrive/Desktop/STM32/Projects_nace/NUCLEO_LL_Project_LCD/STM32_template_proj/Drivers/STM32F1xx_HAL_Driver/Inc\stm32f1xx_ll_bus.h **** */
 362:C:/Users/nace/OneDrive/Desktop/STM32/Projects_nace/NUCLEO_LL_Project_LCD/STM32_template_proj/Drivers/STM32F1xx_HAL_Driver/Inc\stm32f1xx_ll_bus.h **** __STATIC_INLINE void LL_AHB1_GRP1_ForceReset(uint32_t Periphs)
 363:C:/Users/nace/OneDrive/Desktop/STM32/Projects_nace/NUCLEO_LL_Project_LCD/STM32_template_proj/Drivers/STM32F1xx_HAL_Driver/Inc\stm32f1xx_ll_bus.h **** {
 364:C:/Users/nace/OneDrive/Desktop/STM32/Projects_nace/NUCLEO_LL_Project_LCD/STM32_template_proj/Drivers/STM32F1xx_HAL_Driver/Inc\stm32f1xx_ll_bus.h ****   SET_BIT(RCC->AHBRSTR, Periphs);
 365:C:/Users/nace/OneDrive/Desktop/STM32/Projects_nace/NUCLEO_LL_Project_LCD/STM32_template_proj/Drivers/STM32F1xx_HAL_Driver/Inc\stm32f1xx_ll_bus.h **** }
 366:C:/Users/nace/OneDrive/Desktop/STM32/Projects_nace/NUCLEO_LL_Project_LCD/STM32_template_proj/Drivers/STM32F1xx_HAL_Driver/Inc\stm32f1xx_ll_bus.h **** 
 367:C:/Users/nace/OneDrive/Desktop/STM32/Projects_nace/NUCLEO_LL_Project_LCD/STM32_template_proj/Drivers/STM32F1xx_HAL_Driver/Inc\stm32f1xx_ll_bus.h **** /**
 368:C:/Users/nace/OneDrive/Desktop/STM32/Projects_nace/NUCLEO_LL_Project_LCD/STM32_template_proj/Drivers/STM32F1xx_HAL_Driver/Inc\stm32f1xx_ll_bus.h ****   * @brief  Release AHB1 peripherals reset.
 369:C:/Users/nace/OneDrive/Desktop/STM32/Projects_nace/NUCLEO_LL_Project_LCD/STM32_template_proj/Drivers/STM32F1xx_HAL_Driver/Inc\stm32f1xx_ll_bus.h ****   * @rmtoll AHBRSTR      ETHMACRST     LL_AHB1_GRP1_ReleaseReset\n
 370:C:/Users/nace/OneDrive/Desktop/STM32/Projects_nace/NUCLEO_LL_Project_LCD/STM32_template_proj/Drivers/STM32F1xx_HAL_Driver/Inc\stm32f1xx_ll_bus.h ****   *         AHBRSTR      OTGFSRST      LL_AHB1_GRP1_ReleaseReset
 371:C:/Users/nace/OneDrive/Desktop/STM32/Projects_nace/NUCLEO_LL_Project_LCD/STM32_template_proj/Drivers/STM32F1xx_HAL_Driver/Inc\stm32f1xx_ll_bus.h ****   * @param  Periphs This parameter can be a combination of the following values:
 372:C:/Users/nace/OneDrive/Desktop/STM32/Projects_nace/NUCLEO_LL_Project_LCD/STM32_template_proj/Drivers/STM32F1xx_HAL_Driver/Inc\stm32f1xx_ll_bus.h ****   *         @arg @ref LL_AHB1_GRP1_PERIPH_ALL
 373:C:/Users/nace/OneDrive/Desktop/STM32/Projects_nace/NUCLEO_LL_Project_LCD/STM32_template_proj/Drivers/STM32F1xx_HAL_Driver/Inc\stm32f1xx_ll_bus.h ****   *         @arg @ref LL_AHB1_GRP1_PERIPH_ETHMAC (*)
 374:C:/Users/nace/OneDrive/Desktop/STM32/Projects_nace/NUCLEO_LL_Project_LCD/STM32_template_proj/Drivers/STM32F1xx_HAL_Driver/Inc\stm32f1xx_ll_bus.h ****   *         @arg @ref LL_AHB1_GRP1_PERIPH_OTGFS (*)
 375:C:/Users/nace/OneDrive/Desktop/STM32/Projects_nace/NUCLEO_LL_Project_LCD/STM32_template_proj/Drivers/STM32F1xx_HAL_Driver/Inc\stm32f1xx_ll_bus.h ****   *
 376:C:/Users/nace/OneDrive/Desktop/STM32/Projects_nace/NUCLEO_LL_Project_LCD/STM32_template_proj/Drivers/STM32F1xx_HAL_Driver/Inc\stm32f1xx_ll_bus.h ****   *         (*) value not defined in all devices.
 377:C:/Users/nace/OneDrive/Desktop/STM32/Projects_nace/NUCLEO_LL_Project_LCD/STM32_template_proj/Drivers/STM32F1xx_HAL_Driver/Inc\stm32f1xx_ll_bus.h ****   * @retval None
 378:C:/Users/nace/OneDrive/Desktop/STM32/Projects_nace/NUCLEO_LL_Project_LCD/STM32_template_proj/Drivers/STM32F1xx_HAL_Driver/Inc\stm32f1xx_ll_bus.h **** */
 379:C:/Users/nace/OneDrive/Desktop/STM32/Projects_nace/NUCLEO_LL_Project_LCD/STM32_template_proj/Drivers/STM32F1xx_HAL_Driver/Inc\stm32f1xx_ll_bus.h **** __STATIC_INLINE void LL_AHB1_GRP1_ReleaseReset(uint32_t Periphs)
 380:C:/Users/nace/OneDrive/Desktop/STM32/Projects_nace/NUCLEO_LL_Project_LCD/STM32_template_proj/Drivers/STM32F1xx_HAL_Driver/Inc\stm32f1xx_ll_bus.h **** {
 381:C:/Users/nace/OneDrive/Desktop/STM32/Projects_nace/NUCLEO_LL_Project_LCD/STM32_template_proj/Drivers/STM32F1xx_HAL_Driver/Inc\stm32f1xx_ll_bus.h ****   CLEAR_BIT(RCC->AHBRSTR, Periphs);
 382:C:/Users/nace/OneDrive/Desktop/STM32/Projects_nace/NUCLEO_LL_Project_LCD/STM32_template_proj/Drivers/STM32F1xx_HAL_Driver/Inc\stm32f1xx_ll_bus.h **** }
 383:C:/Users/nace/OneDrive/Desktop/STM32/Projects_nace/NUCLEO_LL_Project_LCD/STM32_template_proj/Drivers/STM32F1xx_HAL_Driver/Inc\stm32f1xx_ll_bus.h **** #endif /* RCC_AHBRSTR_SUPPORT */
 384:C:/Users/nace/OneDrive/Desktop/STM32/Projects_nace/NUCLEO_LL_Project_LCD/STM32_template_proj/Drivers/STM32F1xx_HAL_Driver/Inc\stm32f1xx_ll_bus.h **** 
 385:C:/Users/nace/OneDrive/Desktop/STM32/Projects_nace/NUCLEO_LL_Project_LCD/STM32_template_proj/Drivers/STM32F1xx_HAL_Driver/Inc\stm32f1xx_ll_bus.h **** /**
 386:C:/Users/nace/OneDrive/Desktop/STM32/Projects_nace/NUCLEO_LL_Project_LCD/STM32_template_proj/Drivers/STM32F1xx_HAL_Driver/Inc\stm32f1xx_ll_bus.h ****   * @}
 387:C:/Users/nace/OneDrive/Desktop/STM32/Projects_nace/NUCLEO_LL_Project_LCD/STM32_template_proj/Drivers/STM32F1xx_HAL_Driver/Inc\stm32f1xx_ll_bus.h ****   */
 388:C:/Users/nace/OneDrive/Desktop/STM32/Projects_nace/NUCLEO_LL_Project_LCD/STM32_template_proj/Drivers/STM32F1xx_HAL_Driver/Inc\stm32f1xx_ll_bus.h **** 
 389:C:/Users/nace/OneDrive/Desktop/STM32/Projects_nace/NUCLEO_LL_Project_LCD/STM32_template_proj/Drivers/STM32F1xx_HAL_Driver/Inc\stm32f1xx_ll_bus.h **** /** @defgroup BUS_LL_EF_APB1 APB1
 390:C:/Users/nace/OneDrive/Desktop/STM32/Projects_nace/NUCLEO_LL_Project_LCD/STM32_template_proj/Drivers/STM32F1xx_HAL_Driver/Inc\stm32f1xx_ll_bus.h ****   * @{
 391:C:/Users/nace/OneDrive/Desktop/STM32/Projects_nace/NUCLEO_LL_Project_LCD/STM32_template_proj/Drivers/STM32F1xx_HAL_Driver/Inc\stm32f1xx_ll_bus.h ****   */
 392:C:/Users/nace/OneDrive/Desktop/STM32/Projects_nace/NUCLEO_LL_Project_LCD/STM32_template_proj/Drivers/STM32F1xx_HAL_Driver/Inc\stm32f1xx_ll_bus.h **** 
 393:C:/Users/nace/OneDrive/Desktop/STM32/Projects_nace/NUCLEO_LL_Project_LCD/STM32_template_proj/Drivers/STM32F1xx_HAL_Driver/Inc\stm32f1xx_ll_bus.h **** /**
 394:C:/Users/nace/OneDrive/Desktop/STM32/Projects_nace/NUCLEO_LL_Project_LCD/STM32_template_proj/Drivers/STM32F1xx_HAL_Driver/Inc\stm32f1xx_ll_bus.h ****   * @brief  Enable APB1 peripherals clock.
 395:C:/Users/nace/OneDrive/Desktop/STM32/Projects_nace/NUCLEO_LL_Project_LCD/STM32_template_proj/Drivers/STM32F1xx_HAL_Driver/Inc\stm32f1xx_ll_bus.h ****   * @rmtoll APB1ENR      BKPEN         LL_APB1_GRP1_EnableClock\n
 396:C:/Users/nace/OneDrive/Desktop/STM32/Projects_nace/NUCLEO_LL_Project_LCD/STM32_template_proj/Drivers/STM32F1xx_HAL_Driver/Inc\stm32f1xx_ll_bus.h ****   *         APB1ENR      CAN1EN        LL_APB1_GRP1_EnableClock\n
 397:C:/Users/nace/OneDrive/Desktop/STM32/Projects_nace/NUCLEO_LL_Project_LCD/STM32_template_proj/Drivers/STM32F1xx_HAL_Driver/Inc\stm32f1xx_ll_bus.h ****   *         APB1ENR      CAN2EN        LL_APB1_GRP1_EnableClock\n
 398:C:/Users/nace/OneDrive/Desktop/STM32/Projects_nace/NUCLEO_LL_Project_LCD/STM32_template_proj/Drivers/STM32F1xx_HAL_Driver/Inc\stm32f1xx_ll_bus.h ****   *         APB1ENR      CECEN         LL_APB1_GRP1_EnableClock\n
 399:C:/Users/nace/OneDrive/Desktop/STM32/Projects_nace/NUCLEO_LL_Project_LCD/STM32_template_proj/Drivers/STM32F1xx_HAL_Driver/Inc\stm32f1xx_ll_bus.h ****   *         APB1ENR      DACEN         LL_APB1_GRP1_EnableClock\n
 400:C:/Users/nace/OneDrive/Desktop/STM32/Projects_nace/NUCLEO_LL_Project_LCD/STM32_template_proj/Drivers/STM32F1xx_HAL_Driver/Inc\stm32f1xx_ll_bus.h ****   *         APB1ENR      I2C1EN        LL_APB1_GRP1_EnableClock\n
 401:C:/Users/nace/OneDrive/Desktop/STM32/Projects_nace/NUCLEO_LL_Project_LCD/STM32_template_proj/Drivers/STM32F1xx_HAL_Driver/Inc\stm32f1xx_ll_bus.h ****   *         APB1ENR      I2C2EN        LL_APB1_GRP1_EnableClock\n
 402:C:/Users/nace/OneDrive/Desktop/STM32/Projects_nace/NUCLEO_LL_Project_LCD/STM32_template_proj/Drivers/STM32F1xx_HAL_Driver/Inc\stm32f1xx_ll_bus.h ****   *         APB1ENR      PWREN         LL_APB1_GRP1_EnableClock\n
 403:C:/Users/nace/OneDrive/Desktop/STM32/Projects_nace/NUCLEO_LL_Project_LCD/STM32_template_proj/Drivers/STM32F1xx_HAL_Driver/Inc\stm32f1xx_ll_bus.h ****   *         APB1ENR      SPI2EN        LL_APB1_GRP1_EnableClock\n
 404:C:/Users/nace/OneDrive/Desktop/STM32/Projects_nace/NUCLEO_LL_Project_LCD/STM32_template_proj/Drivers/STM32F1xx_HAL_Driver/Inc\stm32f1xx_ll_bus.h ****   *         APB1ENR      SPI3EN        LL_APB1_GRP1_EnableClock\n
 405:C:/Users/nace/OneDrive/Desktop/STM32/Projects_nace/NUCLEO_LL_Project_LCD/STM32_template_proj/Drivers/STM32F1xx_HAL_Driver/Inc\stm32f1xx_ll_bus.h ****   *         APB1ENR      TIM12EN       LL_APB1_GRP1_EnableClock\n
 406:C:/Users/nace/OneDrive/Desktop/STM32/Projects_nace/NUCLEO_LL_Project_LCD/STM32_template_proj/Drivers/STM32F1xx_HAL_Driver/Inc\stm32f1xx_ll_bus.h ****   *         APB1ENR      TIM13EN       LL_APB1_GRP1_EnableClock\n
 407:C:/Users/nace/OneDrive/Desktop/STM32/Projects_nace/NUCLEO_LL_Project_LCD/STM32_template_proj/Drivers/STM32F1xx_HAL_Driver/Inc\stm32f1xx_ll_bus.h ****   *         APB1ENR      TIM14EN       LL_APB1_GRP1_EnableClock\n
 408:C:/Users/nace/OneDrive/Desktop/STM32/Projects_nace/NUCLEO_LL_Project_LCD/STM32_template_proj/Drivers/STM32F1xx_HAL_Driver/Inc\stm32f1xx_ll_bus.h ****   *         APB1ENR      TIM2EN        LL_APB1_GRP1_EnableClock\n
 409:C:/Users/nace/OneDrive/Desktop/STM32/Projects_nace/NUCLEO_LL_Project_LCD/STM32_template_proj/Drivers/STM32F1xx_HAL_Driver/Inc\stm32f1xx_ll_bus.h ****   *         APB1ENR      TIM3EN        LL_APB1_GRP1_EnableClock\n
 410:C:/Users/nace/OneDrive/Desktop/STM32/Projects_nace/NUCLEO_LL_Project_LCD/STM32_template_proj/Drivers/STM32F1xx_HAL_Driver/Inc\stm32f1xx_ll_bus.h ****   *         APB1ENR      TIM4EN        LL_APB1_GRP1_EnableClock\n
 411:C:/Users/nace/OneDrive/Desktop/STM32/Projects_nace/NUCLEO_LL_Project_LCD/STM32_template_proj/Drivers/STM32F1xx_HAL_Driver/Inc\stm32f1xx_ll_bus.h ****   *         APB1ENR      TIM5EN        LL_APB1_GRP1_EnableClock\n
 412:C:/Users/nace/OneDrive/Desktop/STM32/Projects_nace/NUCLEO_LL_Project_LCD/STM32_template_proj/Drivers/STM32F1xx_HAL_Driver/Inc\stm32f1xx_ll_bus.h ****   *         APB1ENR      TIM6EN        LL_APB1_GRP1_EnableClock\n
 413:C:/Users/nace/OneDrive/Desktop/STM32/Projects_nace/NUCLEO_LL_Project_LCD/STM32_template_proj/Drivers/STM32F1xx_HAL_Driver/Inc\stm32f1xx_ll_bus.h ****   *         APB1ENR      TIM7EN        LL_APB1_GRP1_EnableClock\n
 414:C:/Users/nace/OneDrive/Desktop/STM32/Projects_nace/NUCLEO_LL_Project_LCD/STM32_template_proj/Drivers/STM32F1xx_HAL_Driver/Inc\stm32f1xx_ll_bus.h ****   *         APB1ENR      UART4EN       LL_APB1_GRP1_EnableClock\n
 415:C:/Users/nace/OneDrive/Desktop/STM32/Projects_nace/NUCLEO_LL_Project_LCD/STM32_template_proj/Drivers/STM32F1xx_HAL_Driver/Inc\stm32f1xx_ll_bus.h ****   *         APB1ENR      UART5EN       LL_APB1_GRP1_EnableClock\n
 416:C:/Users/nace/OneDrive/Desktop/STM32/Projects_nace/NUCLEO_LL_Project_LCD/STM32_template_proj/Drivers/STM32F1xx_HAL_Driver/Inc\stm32f1xx_ll_bus.h ****   *         APB1ENR      USART2EN      LL_APB1_GRP1_EnableClock\n
 417:C:/Users/nace/OneDrive/Desktop/STM32/Projects_nace/NUCLEO_LL_Project_LCD/STM32_template_proj/Drivers/STM32F1xx_HAL_Driver/Inc\stm32f1xx_ll_bus.h ****   *         APB1ENR      USART3EN      LL_APB1_GRP1_EnableClock\n
 418:C:/Users/nace/OneDrive/Desktop/STM32/Projects_nace/NUCLEO_LL_Project_LCD/STM32_template_proj/Drivers/STM32F1xx_HAL_Driver/Inc\stm32f1xx_ll_bus.h ****   *         APB1ENR      USBEN         LL_APB1_GRP1_EnableClock\n
 419:C:/Users/nace/OneDrive/Desktop/STM32/Projects_nace/NUCLEO_LL_Project_LCD/STM32_template_proj/Drivers/STM32F1xx_HAL_Driver/Inc\stm32f1xx_ll_bus.h ****   *         APB1ENR      WWDGEN        LL_APB1_GRP1_EnableClock
 420:C:/Users/nace/OneDrive/Desktop/STM32/Projects_nace/NUCLEO_LL_Project_LCD/STM32_template_proj/Drivers/STM32F1xx_HAL_Driver/Inc\stm32f1xx_ll_bus.h ****   * @param  Periphs This parameter can be a combination of the following values:
 421:C:/Users/nace/OneDrive/Desktop/STM32/Projects_nace/NUCLEO_LL_Project_LCD/STM32_template_proj/Drivers/STM32F1xx_HAL_Driver/Inc\stm32f1xx_ll_bus.h ****   *         @arg @ref LL_APB1_GRP1_PERIPH_BKP
 422:C:/Users/nace/OneDrive/Desktop/STM32/Projects_nace/NUCLEO_LL_Project_LCD/STM32_template_proj/Drivers/STM32F1xx_HAL_Driver/Inc\stm32f1xx_ll_bus.h ****   *         @arg @ref LL_APB1_GRP1_PERIPH_CAN1 (*)
 423:C:/Users/nace/OneDrive/Desktop/STM32/Projects_nace/NUCLEO_LL_Project_LCD/STM32_template_proj/Drivers/STM32F1xx_HAL_Driver/Inc\stm32f1xx_ll_bus.h ****   *         @arg @ref LL_APB1_GRP1_PERIPH_CAN2 (*)
 424:C:/Users/nace/OneDrive/Desktop/STM32/Projects_nace/NUCLEO_LL_Project_LCD/STM32_template_proj/Drivers/STM32F1xx_HAL_Driver/Inc\stm32f1xx_ll_bus.h ****   *         @arg @ref LL_APB1_GRP1_PERIPH_CEC (*)
 425:C:/Users/nace/OneDrive/Desktop/STM32/Projects_nace/NUCLEO_LL_Project_LCD/STM32_template_proj/Drivers/STM32F1xx_HAL_Driver/Inc\stm32f1xx_ll_bus.h ****   *         @arg @ref LL_APB1_GRP1_PERIPH_DAC1 (*)
 426:C:/Users/nace/OneDrive/Desktop/STM32/Projects_nace/NUCLEO_LL_Project_LCD/STM32_template_proj/Drivers/STM32F1xx_HAL_Driver/Inc\stm32f1xx_ll_bus.h ****   *         @arg @ref LL_APB1_GRP1_PERIPH_I2C1
 427:C:/Users/nace/OneDrive/Desktop/STM32/Projects_nace/NUCLEO_LL_Project_LCD/STM32_template_proj/Drivers/STM32F1xx_HAL_Driver/Inc\stm32f1xx_ll_bus.h ****   *         @arg @ref LL_APB1_GRP1_PERIPH_I2C2 (*)
 428:C:/Users/nace/OneDrive/Desktop/STM32/Projects_nace/NUCLEO_LL_Project_LCD/STM32_template_proj/Drivers/STM32F1xx_HAL_Driver/Inc\stm32f1xx_ll_bus.h ****   *         @arg @ref LL_APB1_GRP1_PERIPH_PWR
 429:C:/Users/nace/OneDrive/Desktop/STM32/Projects_nace/NUCLEO_LL_Project_LCD/STM32_template_proj/Drivers/STM32F1xx_HAL_Driver/Inc\stm32f1xx_ll_bus.h ****   *         @arg @ref LL_APB1_GRP1_PERIPH_SPI2 (*)
 430:C:/Users/nace/OneDrive/Desktop/STM32/Projects_nace/NUCLEO_LL_Project_LCD/STM32_template_proj/Drivers/STM32F1xx_HAL_Driver/Inc\stm32f1xx_ll_bus.h ****   *         @arg @ref LL_APB1_GRP1_PERIPH_SPI3 (*)
 431:C:/Users/nace/OneDrive/Desktop/STM32/Projects_nace/NUCLEO_LL_Project_LCD/STM32_template_proj/Drivers/STM32F1xx_HAL_Driver/Inc\stm32f1xx_ll_bus.h ****   *         @arg @ref LL_APB1_GRP1_PERIPH_TIM12 (*)
 432:C:/Users/nace/OneDrive/Desktop/STM32/Projects_nace/NUCLEO_LL_Project_LCD/STM32_template_proj/Drivers/STM32F1xx_HAL_Driver/Inc\stm32f1xx_ll_bus.h ****   *         @arg @ref LL_APB1_GRP1_PERIPH_TIM13 (*)
 433:C:/Users/nace/OneDrive/Desktop/STM32/Projects_nace/NUCLEO_LL_Project_LCD/STM32_template_proj/Drivers/STM32F1xx_HAL_Driver/Inc\stm32f1xx_ll_bus.h ****   *         @arg @ref LL_APB1_GRP1_PERIPH_TIM14 (*)
 434:C:/Users/nace/OneDrive/Desktop/STM32/Projects_nace/NUCLEO_LL_Project_LCD/STM32_template_proj/Drivers/STM32F1xx_HAL_Driver/Inc\stm32f1xx_ll_bus.h ****   *         @arg @ref LL_APB1_GRP1_PERIPH_TIM2
 435:C:/Users/nace/OneDrive/Desktop/STM32/Projects_nace/NUCLEO_LL_Project_LCD/STM32_template_proj/Drivers/STM32F1xx_HAL_Driver/Inc\stm32f1xx_ll_bus.h ****   *         @arg @ref LL_APB1_GRP1_PERIPH_TIM3
 436:C:/Users/nace/OneDrive/Desktop/STM32/Projects_nace/NUCLEO_LL_Project_LCD/STM32_template_proj/Drivers/STM32F1xx_HAL_Driver/Inc\stm32f1xx_ll_bus.h ****   *         @arg @ref LL_APB1_GRP1_PERIPH_TIM4 (*)
 437:C:/Users/nace/OneDrive/Desktop/STM32/Projects_nace/NUCLEO_LL_Project_LCD/STM32_template_proj/Drivers/STM32F1xx_HAL_Driver/Inc\stm32f1xx_ll_bus.h ****   *         @arg @ref LL_APB1_GRP1_PERIPH_TIM5 (*)
 438:C:/Users/nace/OneDrive/Desktop/STM32/Projects_nace/NUCLEO_LL_Project_LCD/STM32_template_proj/Drivers/STM32F1xx_HAL_Driver/Inc\stm32f1xx_ll_bus.h ****   *         @arg @ref LL_APB1_GRP1_PERIPH_TIM6 (*)
 439:C:/Users/nace/OneDrive/Desktop/STM32/Projects_nace/NUCLEO_LL_Project_LCD/STM32_template_proj/Drivers/STM32F1xx_HAL_Driver/Inc\stm32f1xx_ll_bus.h ****   *         @arg @ref LL_APB1_GRP1_PERIPH_TIM7 (*)
 440:C:/Users/nace/OneDrive/Desktop/STM32/Projects_nace/NUCLEO_LL_Project_LCD/STM32_template_proj/Drivers/STM32F1xx_HAL_Driver/Inc\stm32f1xx_ll_bus.h ****   *         @arg @ref LL_APB1_GRP1_PERIPH_UART4 (*)
 441:C:/Users/nace/OneDrive/Desktop/STM32/Projects_nace/NUCLEO_LL_Project_LCD/STM32_template_proj/Drivers/STM32F1xx_HAL_Driver/Inc\stm32f1xx_ll_bus.h ****   *         @arg @ref LL_APB1_GRP1_PERIPH_UART5 (*)
 442:C:/Users/nace/OneDrive/Desktop/STM32/Projects_nace/NUCLEO_LL_Project_LCD/STM32_template_proj/Drivers/STM32F1xx_HAL_Driver/Inc\stm32f1xx_ll_bus.h ****   *         @arg @ref LL_APB1_GRP1_PERIPH_USART2
 443:C:/Users/nace/OneDrive/Desktop/STM32/Projects_nace/NUCLEO_LL_Project_LCD/STM32_template_proj/Drivers/STM32F1xx_HAL_Driver/Inc\stm32f1xx_ll_bus.h ****   *         @arg @ref LL_APB1_GRP1_PERIPH_USART3 (*)
 444:C:/Users/nace/OneDrive/Desktop/STM32/Projects_nace/NUCLEO_LL_Project_LCD/STM32_template_proj/Drivers/STM32F1xx_HAL_Driver/Inc\stm32f1xx_ll_bus.h ****   *         @arg @ref LL_APB1_GRP1_PERIPH_USB (*)
 445:C:/Users/nace/OneDrive/Desktop/STM32/Projects_nace/NUCLEO_LL_Project_LCD/STM32_template_proj/Drivers/STM32F1xx_HAL_Driver/Inc\stm32f1xx_ll_bus.h ****   *         @arg @ref LL_APB1_GRP1_PERIPH_WWDG
 446:C:/Users/nace/OneDrive/Desktop/STM32/Projects_nace/NUCLEO_LL_Project_LCD/STM32_template_proj/Drivers/STM32F1xx_HAL_Driver/Inc\stm32f1xx_ll_bus.h ****   *
 447:C:/Users/nace/OneDrive/Desktop/STM32/Projects_nace/NUCLEO_LL_Project_LCD/STM32_template_proj/Drivers/STM32F1xx_HAL_Driver/Inc\stm32f1xx_ll_bus.h ****   *         (*) value not defined in all devices.
 448:C:/Users/nace/OneDrive/Desktop/STM32/Projects_nace/NUCLEO_LL_Project_LCD/STM32_template_proj/Drivers/STM32F1xx_HAL_Driver/Inc\stm32f1xx_ll_bus.h ****   * @retval None
 449:C:/Users/nace/OneDrive/Desktop/STM32/Projects_nace/NUCLEO_LL_Project_LCD/STM32_template_proj/Drivers/STM32F1xx_HAL_Driver/Inc\stm32f1xx_ll_bus.h **** */
 450:C:/Users/nace/OneDrive/Desktop/STM32/Projects_nace/NUCLEO_LL_Project_LCD/STM32_template_proj/Drivers/STM32F1xx_HAL_Driver/Inc\stm32f1xx_ll_bus.h **** __STATIC_INLINE void LL_APB1_GRP1_EnableClock(uint32_t Periphs)
 451:C:/Users/nace/OneDrive/Desktop/STM32/Projects_nace/NUCLEO_LL_Project_LCD/STM32_template_proj/Drivers/STM32F1xx_HAL_Driver/Inc\stm32f1xx_ll_bus.h **** {
 452:C:/Users/nace/OneDrive/Desktop/STM32/Projects_nace/NUCLEO_LL_Project_LCD/STM32_template_proj/Drivers/STM32F1xx_HAL_Driver/Inc\stm32f1xx_ll_bus.h ****   __IO uint32_t tmpreg;
 453:C:/Users/nace/OneDrive/Desktop/STM32/Projects_nace/NUCLEO_LL_Project_LCD/STM32_template_proj/Drivers/STM32F1xx_HAL_Driver/Inc\stm32f1xx_ll_bus.h ****   SET_BIT(RCC->APB1ENR, Periphs);
 454:C:/Users/nace/OneDrive/Desktop/STM32/Projects_nace/NUCLEO_LL_Project_LCD/STM32_template_proj/Drivers/STM32F1xx_HAL_Driver/Inc\stm32f1xx_ll_bus.h ****   /* Delay after an RCC peripheral clock enabling */
 455:C:/Users/nace/OneDrive/Desktop/STM32/Projects_nace/NUCLEO_LL_Project_LCD/STM32_template_proj/Drivers/STM32F1xx_HAL_Driver/Inc\stm32f1xx_ll_bus.h ****   tmpreg = READ_BIT(RCC->APB1ENR, Periphs);
 456:C:/Users/nace/OneDrive/Desktop/STM32/Projects_nace/NUCLEO_LL_Project_LCD/STM32_template_proj/Drivers/STM32F1xx_HAL_Driver/Inc\stm32f1xx_ll_bus.h ****   (void)tmpreg;
 457:C:/Users/nace/OneDrive/Desktop/STM32/Projects_nace/NUCLEO_LL_Project_LCD/STM32_template_proj/Drivers/STM32F1xx_HAL_Driver/Inc\stm32f1xx_ll_bus.h **** }
 458:C:/Users/nace/OneDrive/Desktop/STM32/Projects_nace/NUCLEO_LL_Project_LCD/STM32_template_proj/Drivers/STM32F1xx_HAL_Driver/Inc\stm32f1xx_ll_bus.h **** 
 459:C:/Users/nace/OneDrive/Desktop/STM32/Projects_nace/NUCLEO_LL_Project_LCD/STM32_template_proj/Drivers/STM32F1xx_HAL_Driver/Inc\stm32f1xx_ll_bus.h **** /**
 460:C:/Users/nace/OneDrive/Desktop/STM32/Projects_nace/NUCLEO_LL_Project_LCD/STM32_template_proj/Drivers/STM32F1xx_HAL_Driver/Inc\stm32f1xx_ll_bus.h ****   * @brief  Check if APB1 peripheral clock is enabled or not
 461:C:/Users/nace/OneDrive/Desktop/STM32/Projects_nace/NUCLEO_LL_Project_LCD/STM32_template_proj/Drivers/STM32F1xx_HAL_Driver/Inc\stm32f1xx_ll_bus.h ****   * @rmtoll APB1ENR      BKPEN         LL_APB1_GRP1_IsEnabledClock\n
 462:C:/Users/nace/OneDrive/Desktop/STM32/Projects_nace/NUCLEO_LL_Project_LCD/STM32_template_proj/Drivers/STM32F1xx_HAL_Driver/Inc\stm32f1xx_ll_bus.h ****   *         APB1ENR      CAN1EN        LL_APB1_GRP1_IsEnabledClock\n
 463:C:/Users/nace/OneDrive/Desktop/STM32/Projects_nace/NUCLEO_LL_Project_LCD/STM32_template_proj/Drivers/STM32F1xx_HAL_Driver/Inc\stm32f1xx_ll_bus.h ****   *         APB1ENR      CAN2EN        LL_APB1_GRP1_IsEnabledClock\n
 464:C:/Users/nace/OneDrive/Desktop/STM32/Projects_nace/NUCLEO_LL_Project_LCD/STM32_template_proj/Drivers/STM32F1xx_HAL_Driver/Inc\stm32f1xx_ll_bus.h ****   *         APB1ENR      CECEN         LL_APB1_GRP1_IsEnabledClock\n
 465:C:/Users/nace/OneDrive/Desktop/STM32/Projects_nace/NUCLEO_LL_Project_LCD/STM32_template_proj/Drivers/STM32F1xx_HAL_Driver/Inc\stm32f1xx_ll_bus.h ****   *         APB1ENR      DACEN         LL_APB1_GRP1_IsEnabledClock\n
 466:C:/Users/nace/OneDrive/Desktop/STM32/Projects_nace/NUCLEO_LL_Project_LCD/STM32_template_proj/Drivers/STM32F1xx_HAL_Driver/Inc\stm32f1xx_ll_bus.h ****   *         APB1ENR      I2C1EN        LL_APB1_GRP1_IsEnabledClock\n
 467:C:/Users/nace/OneDrive/Desktop/STM32/Projects_nace/NUCLEO_LL_Project_LCD/STM32_template_proj/Drivers/STM32F1xx_HAL_Driver/Inc\stm32f1xx_ll_bus.h ****   *         APB1ENR      I2C2EN        LL_APB1_GRP1_IsEnabledClock\n
 468:C:/Users/nace/OneDrive/Desktop/STM32/Projects_nace/NUCLEO_LL_Project_LCD/STM32_template_proj/Drivers/STM32F1xx_HAL_Driver/Inc\stm32f1xx_ll_bus.h ****   *         APB1ENR      PWREN         LL_APB1_GRP1_IsEnabledClock\n
 469:C:/Users/nace/OneDrive/Desktop/STM32/Projects_nace/NUCLEO_LL_Project_LCD/STM32_template_proj/Drivers/STM32F1xx_HAL_Driver/Inc\stm32f1xx_ll_bus.h ****   *         APB1ENR      SPI2EN        LL_APB1_GRP1_IsEnabledClock\n
 470:C:/Users/nace/OneDrive/Desktop/STM32/Projects_nace/NUCLEO_LL_Project_LCD/STM32_template_proj/Drivers/STM32F1xx_HAL_Driver/Inc\stm32f1xx_ll_bus.h ****   *         APB1ENR      SPI3EN        LL_APB1_GRP1_IsEnabledClock\n
 471:C:/Users/nace/OneDrive/Desktop/STM32/Projects_nace/NUCLEO_LL_Project_LCD/STM32_template_proj/Drivers/STM32F1xx_HAL_Driver/Inc\stm32f1xx_ll_bus.h ****   *         APB1ENR      TIM12EN       LL_APB1_GRP1_IsEnabledClock\n
 472:C:/Users/nace/OneDrive/Desktop/STM32/Projects_nace/NUCLEO_LL_Project_LCD/STM32_template_proj/Drivers/STM32F1xx_HAL_Driver/Inc\stm32f1xx_ll_bus.h ****   *         APB1ENR      TIM13EN       LL_APB1_GRP1_IsEnabledClock\n
 473:C:/Users/nace/OneDrive/Desktop/STM32/Projects_nace/NUCLEO_LL_Project_LCD/STM32_template_proj/Drivers/STM32F1xx_HAL_Driver/Inc\stm32f1xx_ll_bus.h ****   *         APB1ENR      TIM14EN       LL_APB1_GRP1_IsEnabledClock\n
 474:C:/Users/nace/OneDrive/Desktop/STM32/Projects_nace/NUCLEO_LL_Project_LCD/STM32_template_proj/Drivers/STM32F1xx_HAL_Driver/Inc\stm32f1xx_ll_bus.h ****   *         APB1ENR      TIM2EN        LL_APB1_GRP1_IsEnabledClock\n
 475:C:/Users/nace/OneDrive/Desktop/STM32/Projects_nace/NUCLEO_LL_Project_LCD/STM32_template_proj/Drivers/STM32F1xx_HAL_Driver/Inc\stm32f1xx_ll_bus.h ****   *         APB1ENR      TIM3EN        LL_APB1_GRP1_IsEnabledClock\n
 476:C:/Users/nace/OneDrive/Desktop/STM32/Projects_nace/NUCLEO_LL_Project_LCD/STM32_template_proj/Drivers/STM32F1xx_HAL_Driver/Inc\stm32f1xx_ll_bus.h ****   *         APB1ENR      TIM4EN        LL_APB1_GRP1_IsEnabledClock\n
 477:C:/Users/nace/OneDrive/Desktop/STM32/Projects_nace/NUCLEO_LL_Project_LCD/STM32_template_proj/Drivers/STM32F1xx_HAL_Driver/Inc\stm32f1xx_ll_bus.h ****   *         APB1ENR      TIM5EN        LL_APB1_GRP1_IsEnabledClock\n
 478:C:/Users/nace/OneDrive/Desktop/STM32/Projects_nace/NUCLEO_LL_Project_LCD/STM32_template_proj/Drivers/STM32F1xx_HAL_Driver/Inc\stm32f1xx_ll_bus.h ****   *         APB1ENR      TIM6EN        LL_APB1_GRP1_IsEnabledClock\n
 479:C:/Users/nace/OneDrive/Desktop/STM32/Projects_nace/NUCLEO_LL_Project_LCD/STM32_template_proj/Drivers/STM32F1xx_HAL_Driver/Inc\stm32f1xx_ll_bus.h ****   *         APB1ENR      TIM7EN        LL_APB1_GRP1_IsEnabledClock\n
 480:C:/Users/nace/OneDrive/Desktop/STM32/Projects_nace/NUCLEO_LL_Project_LCD/STM32_template_proj/Drivers/STM32F1xx_HAL_Driver/Inc\stm32f1xx_ll_bus.h ****   *         APB1ENR      UART4EN       LL_APB1_GRP1_IsEnabledClock\n
 481:C:/Users/nace/OneDrive/Desktop/STM32/Projects_nace/NUCLEO_LL_Project_LCD/STM32_template_proj/Drivers/STM32F1xx_HAL_Driver/Inc\stm32f1xx_ll_bus.h ****   *         APB1ENR      UART5EN       LL_APB1_GRP1_IsEnabledClock\n
 482:C:/Users/nace/OneDrive/Desktop/STM32/Projects_nace/NUCLEO_LL_Project_LCD/STM32_template_proj/Drivers/STM32F1xx_HAL_Driver/Inc\stm32f1xx_ll_bus.h ****   *         APB1ENR      USART2EN      LL_APB1_GRP1_IsEnabledClock\n
 483:C:/Users/nace/OneDrive/Desktop/STM32/Projects_nace/NUCLEO_LL_Project_LCD/STM32_template_proj/Drivers/STM32F1xx_HAL_Driver/Inc\stm32f1xx_ll_bus.h ****   *         APB1ENR      USART3EN      LL_APB1_GRP1_IsEnabledClock\n
 484:C:/Users/nace/OneDrive/Desktop/STM32/Projects_nace/NUCLEO_LL_Project_LCD/STM32_template_proj/Drivers/STM32F1xx_HAL_Driver/Inc\stm32f1xx_ll_bus.h ****   *         APB1ENR      USBEN         LL_APB1_GRP1_IsEnabledClock\n
 485:C:/Users/nace/OneDrive/Desktop/STM32/Projects_nace/NUCLEO_LL_Project_LCD/STM32_template_proj/Drivers/STM32F1xx_HAL_Driver/Inc\stm32f1xx_ll_bus.h ****   *         APB1ENR      WWDGEN        LL_APB1_GRP1_IsEnabledClock
 486:C:/Users/nace/OneDrive/Desktop/STM32/Projects_nace/NUCLEO_LL_Project_LCD/STM32_template_proj/Drivers/STM32F1xx_HAL_Driver/Inc\stm32f1xx_ll_bus.h ****   * @param  Periphs This parameter can be a combination of the following values:
 487:C:/Users/nace/OneDrive/Desktop/STM32/Projects_nace/NUCLEO_LL_Project_LCD/STM32_template_proj/Drivers/STM32F1xx_HAL_Driver/Inc\stm32f1xx_ll_bus.h ****   *         @arg @ref LL_APB1_GRP1_PERIPH_BKP
 488:C:/Users/nace/OneDrive/Desktop/STM32/Projects_nace/NUCLEO_LL_Project_LCD/STM32_template_proj/Drivers/STM32F1xx_HAL_Driver/Inc\stm32f1xx_ll_bus.h ****   *         @arg @ref LL_APB1_GRP1_PERIPH_CAN1 (*)
 489:C:/Users/nace/OneDrive/Desktop/STM32/Projects_nace/NUCLEO_LL_Project_LCD/STM32_template_proj/Drivers/STM32F1xx_HAL_Driver/Inc\stm32f1xx_ll_bus.h ****   *         @arg @ref LL_APB1_GRP1_PERIPH_CAN2 (*)
 490:C:/Users/nace/OneDrive/Desktop/STM32/Projects_nace/NUCLEO_LL_Project_LCD/STM32_template_proj/Drivers/STM32F1xx_HAL_Driver/Inc\stm32f1xx_ll_bus.h ****   *         @arg @ref LL_APB1_GRP1_PERIPH_CEC (*)
 491:C:/Users/nace/OneDrive/Desktop/STM32/Projects_nace/NUCLEO_LL_Project_LCD/STM32_template_proj/Drivers/STM32F1xx_HAL_Driver/Inc\stm32f1xx_ll_bus.h ****   *         @arg @ref LL_APB1_GRP1_PERIPH_DAC1 (*)
 492:C:/Users/nace/OneDrive/Desktop/STM32/Projects_nace/NUCLEO_LL_Project_LCD/STM32_template_proj/Drivers/STM32F1xx_HAL_Driver/Inc\stm32f1xx_ll_bus.h ****   *         @arg @ref LL_APB1_GRP1_PERIPH_I2C1
 493:C:/Users/nace/OneDrive/Desktop/STM32/Projects_nace/NUCLEO_LL_Project_LCD/STM32_template_proj/Drivers/STM32F1xx_HAL_Driver/Inc\stm32f1xx_ll_bus.h ****   *         @arg @ref LL_APB1_GRP1_PERIPH_I2C2 (*)
 494:C:/Users/nace/OneDrive/Desktop/STM32/Projects_nace/NUCLEO_LL_Project_LCD/STM32_template_proj/Drivers/STM32F1xx_HAL_Driver/Inc\stm32f1xx_ll_bus.h ****   *         @arg @ref LL_APB1_GRP1_PERIPH_PWR
 495:C:/Users/nace/OneDrive/Desktop/STM32/Projects_nace/NUCLEO_LL_Project_LCD/STM32_template_proj/Drivers/STM32F1xx_HAL_Driver/Inc\stm32f1xx_ll_bus.h ****   *         @arg @ref LL_APB1_GRP1_PERIPH_SPI2 (*)
 496:C:/Users/nace/OneDrive/Desktop/STM32/Projects_nace/NUCLEO_LL_Project_LCD/STM32_template_proj/Drivers/STM32F1xx_HAL_Driver/Inc\stm32f1xx_ll_bus.h ****   *         @arg @ref LL_APB1_GRP1_PERIPH_SPI3 (*)
 497:C:/Users/nace/OneDrive/Desktop/STM32/Projects_nace/NUCLEO_LL_Project_LCD/STM32_template_proj/Drivers/STM32F1xx_HAL_Driver/Inc\stm32f1xx_ll_bus.h ****   *         @arg @ref LL_APB1_GRP1_PERIPH_TIM12 (*)
 498:C:/Users/nace/OneDrive/Desktop/STM32/Projects_nace/NUCLEO_LL_Project_LCD/STM32_template_proj/Drivers/STM32F1xx_HAL_Driver/Inc\stm32f1xx_ll_bus.h ****   *         @arg @ref LL_APB1_GRP1_PERIPH_TIM13 (*)
 499:C:/Users/nace/OneDrive/Desktop/STM32/Projects_nace/NUCLEO_LL_Project_LCD/STM32_template_proj/Drivers/STM32F1xx_HAL_Driver/Inc\stm32f1xx_ll_bus.h ****   *         @arg @ref LL_APB1_GRP1_PERIPH_TIM14 (*)
 500:C:/Users/nace/OneDrive/Desktop/STM32/Projects_nace/NUCLEO_LL_Project_LCD/STM32_template_proj/Drivers/STM32F1xx_HAL_Driver/Inc\stm32f1xx_ll_bus.h ****   *         @arg @ref LL_APB1_GRP1_PERIPH_TIM2
 501:C:/Users/nace/OneDrive/Desktop/STM32/Projects_nace/NUCLEO_LL_Project_LCD/STM32_template_proj/Drivers/STM32F1xx_HAL_Driver/Inc\stm32f1xx_ll_bus.h ****   *         @arg @ref LL_APB1_GRP1_PERIPH_TIM3
 502:C:/Users/nace/OneDrive/Desktop/STM32/Projects_nace/NUCLEO_LL_Project_LCD/STM32_template_proj/Drivers/STM32F1xx_HAL_Driver/Inc\stm32f1xx_ll_bus.h ****   *         @arg @ref LL_APB1_GRP1_PERIPH_TIM4 (*)
 503:C:/Users/nace/OneDrive/Desktop/STM32/Projects_nace/NUCLEO_LL_Project_LCD/STM32_template_proj/Drivers/STM32F1xx_HAL_Driver/Inc\stm32f1xx_ll_bus.h ****   *         @arg @ref LL_APB1_GRP1_PERIPH_TIM5 (*)
 504:C:/Users/nace/OneDrive/Desktop/STM32/Projects_nace/NUCLEO_LL_Project_LCD/STM32_template_proj/Drivers/STM32F1xx_HAL_Driver/Inc\stm32f1xx_ll_bus.h ****   *         @arg @ref LL_APB1_GRP1_PERIPH_TIM6 (*)
 505:C:/Users/nace/OneDrive/Desktop/STM32/Projects_nace/NUCLEO_LL_Project_LCD/STM32_template_proj/Drivers/STM32F1xx_HAL_Driver/Inc\stm32f1xx_ll_bus.h ****   *         @arg @ref LL_APB1_GRP1_PERIPH_TIM7 (*)
 506:C:/Users/nace/OneDrive/Desktop/STM32/Projects_nace/NUCLEO_LL_Project_LCD/STM32_template_proj/Drivers/STM32F1xx_HAL_Driver/Inc\stm32f1xx_ll_bus.h ****   *         @arg @ref LL_APB1_GRP1_PERIPH_UART4 (*)
 507:C:/Users/nace/OneDrive/Desktop/STM32/Projects_nace/NUCLEO_LL_Project_LCD/STM32_template_proj/Drivers/STM32F1xx_HAL_Driver/Inc\stm32f1xx_ll_bus.h ****   *         @arg @ref LL_APB1_GRP1_PERIPH_UART5 (*)
 508:C:/Users/nace/OneDrive/Desktop/STM32/Projects_nace/NUCLEO_LL_Project_LCD/STM32_template_proj/Drivers/STM32F1xx_HAL_Driver/Inc\stm32f1xx_ll_bus.h ****   *         @arg @ref LL_APB1_GRP1_PERIPH_USART2
 509:C:/Users/nace/OneDrive/Desktop/STM32/Projects_nace/NUCLEO_LL_Project_LCD/STM32_template_proj/Drivers/STM32F1xx_HAL_Driver/Inc\stm32f1xx_ll_bus.h ****   *         @arg @ref LL_APB1_GRP1_PERIPH_USART3 (*)
 510:C:/Users/nace/OneDrive/Desktop/STM32/Projects_nace/NUCLEO_LL_Project_LCD/STM32_template_proj/Drivers/STM32F1xx_HAL_Driver/Inc\stm32f1xx_ll_bus.h ****   *         @arg @ref LL_APB1_GRP1_PERIPH_USB (*)
 511:C:/Users/nace/OneDrive/Desktop/STM32/Projects_nace/NUCLEO_LL_Project_LCD/STM32_template_proj/Drivers/STM32F1xx_HAL_Driver/Inc\stm32f1xx_ll_bus.h ****   *         @arg @ref LL_APB1_GRP1_PERIPH_WWDG
 512:C:/Users/nace/OneDrive/Desktop/STM32/Projects_nace/NUCLEO_LL_Project_LCD/STM32_template_proj/Drivers/STM32F1xx_HAL_Driver/Inc\stm32f1xx_ll_bus.h ****   *
 513:C:/Users/nace/OneDrive/Desktop/STM32/Projects_nace/NUCLEO_LL_Project_LCD/STM32_template_proj/Drivers/STM32F1xx_HAL_Driver/Inc\stm32f1xx_ll_bus.h ****   *         (*) value not defined in all devices.
 514:C:/Users/nace/OneDrive/Desktop/STM32/Projects_nace/NUCLEO_LL_Project_LCD/STM32_template_proj/Drivers/STM32F1xx_HAL_Driver/Inc\stm32f1xx_ll_bus.h ****   * @retval State of Periphs (1 or 0).
 515:C:/Users/nace/OneDrive/Desktop/STM32/Projects_nace/NUCLEO_LL_Project_LCD/STM32_template_proj/Drivers/STM32F1xx_HAL_Driver/Inc\stm32f1xx_ll_bus.h **** */
 516:C:/Users/nace/OneDrive/Desktop/STM32/Projects_nace/NUCLEO_LL_Project_LCD/STM32_template_proj/Drivers/STM32F1xx_HAL_Driver/Inc\stm32f1xx_ll_bus.h **** __STATIC_INLINE uint32_t LL_APB1_GRP1_IsEnabledClock(uint32_t Periphs)
 517:C:/Users/nace/OneDrive/Desktop/STM32/Projects_nace/NUCLEO_LL_Project_LCD/STM32_template_proj/Drivers/STM32F1xx_HAL_Driver/Inc\stm32f1xx_ll_bus.h **** {
 518:C:/Users/nace/OneDrive/Desktop/STM32/Projects_nace/NUCLEO_LL_Project_LCD/STM32_template_proj/Drivers/STM32F1xx_HAL_Driver/Inc\stm32f1xx_ll_bus.h ****   return (READ_BIT(RCC->APB1ENR, Periphs) == Periphs);
 519:C:/Users/nace/OneDrive/Desktop/STM32/Projects_nace/NUCLEO_LL_Project_LCD/STM32_template_proj/Drivers/STM32F1xx_HAL_Driver/Inc\stm32f1xx_ll_bus.h **** }
 520:C:/Users/nace/OneDrive/Desktop/STM32/Projects_nace/NUCLEO_LL_Project_LCD/STM32_template_proj/Drivers/STM32F1xx_HAL_Driver/Inc\stm32f1xx_ll_bus.h **** 
 521:C:/Users/nace/OneDrive/Desktop/STM32/Projects_nace/NUCLEO_LL_Project_LCD/STM32_template_proj/Drivers/STM32F1xx_HAL_Driver/Inc\stm32f1xx_ll_bus.h **** /**
 522:C:/Users/nace/OneDrive/Desktop/STM32/Projects_nace/NUCLEO_LL_Project_LCD/STM32_template_proj/Drivers/STM32F1xx_HAL_Driver/Inc\stm32f1xx_ll_bus.h ****   * @brief  Disable APB1 peripherals clock.
 523:C:/Users/nace/OneDrive/Desktop/STM32/Projects_nace/NUCLEO_LL_Project_LCD/STM32_template_proj/Drivers/STM32F1xx_HAL_Driver/Inc\stm32f1xx_ll_bus.h ****   * @rmtoll APB1ENR      BKPEN         LL_APB1_GRP1_DisableClock\n
 524:C:/Users/nace/OneDrive/Desktop/STM32/Projects_nace/NUCLEO_LL_Project_LCD/STM32_template_proj/Drivers/STM32F1xx_HAL_Driver/Inc\stm32f1xx_ll_bus.h ****   *         APB1ENR      CAN1EN        LL_APB1_GRP1_DisableClock\n
 525:C:/Users/nace/OneDrive/Desktop/STM32/Projects_nace/NUCLEO_LL_Project_LCD/STM32_template_proj/Drivers/STM32F1xx_HAL_Driver/Inc\stm32f1xx_ll_bus.h ****   *         APB1ENR      CAN2EN        LL_APB1_GRP1_DisableClock\n
 526:C:/Users/nace/OneDrive/Desktop/STM32/Projects_nace/NUCLEO_LL_Project_LCD/STM32_template_proj/Drivers/STM32F1xx_HAL_Driver/Inc\stm32f1xx_ll_bus.h ****   *         APB1ENR      CECEN         LL_APB1_GRP1_DisableClock\n
 527:C:/Users/nace/OneDrive/Desktop/STM32/Projects_nace/NUCLEO_LL_Project_LCD/STM32_template_proj/Drivers/STM32F1xx_HAL_Driver/Inc\stm32f1xx_ll_bus.h ****   *         APB1ENR      DACEN         LL_APB1_GRP1_DisableClock\n
 528:C:/Users/nace/OneDrive/Desktop/STM32/Projects_nace/NUCLEO_LL_Project_LCD/STM32_template_proj/Drivers/STM32F1xx_HAL_Driver/Inc\stm32f1xx_ll_bus.h ****   *         APB1ENR      I2C1EN        LL_APB1_GRP1_DisableClock\n
 529:C:/Users/nace/OneDrive/Desktop/STM32/Projects_nace/NUCLEO_LL_Project_LCD/STM32_template_proj/Drivers/STM32F1xx_HAL_Driver/Inc\stm32f1xx_ll_bus.h ****   *         APB1ENR      I2C2EN        LL_APB1_GRP1_DisableClock\n
 530:C:/Users/nace/OneDrive/Desktop/STM32/Projects_nace/NUCLEO_LL_Project_LCD/STM32_template_proj/Drivers/STM32F1xx_HAL_Driver/Inc\stm32f1xx_ll_bus.h ****   *         APB1ENR      PWREN         LL_APB1_GRP1_DisableClock\n
 531:C:/Users/nace/OneDrive/Desktop/STM32/Projects_nace/NUCLEO_LL_Project_LCD/STM32_template_proj/Drivers/STM32F1xx_HAL_Driver/Inc\stm32f1xx_ll_bus.h ****   *         APB1ENR      SPI2EN        LL_APB1_GRP1_DisableClock\n
 532:C:/Users/nace/OneDrive/Desktop/STM32/Projects_nace/NUCLEO_LL_Project_LCD/STM32_template_proj/Drivers/STM32F1xx_HAL_Driver/Inc\stm32f1xx_ll_bus.h ****   *         APB1ENR      SPI3EN        LL_APB1_GRP1_DisableClock\n
 533:C:/Users/nace/OneDrive/Desktop/STM32/Projects_nace/NUCLEO_LL_Project_LCD/STM32_template_proj/Drivers/STM32F1xx_HAL_Driver/Inc\stm32f1xx_ll_bus.h ****   *         APB1ENR      TIM12EN       LL_APB1_GRP1_DisableClock\n
 534:C:/Users/nace/OneDrive/Desktop/STM32/Projects_nace/NUCLEO_LL_Project_LCD/STM32_template_proj/Drivers/STM32F1xx_HAL_Driver/Inc\stm32f1xx_ll_bus.h ****   *         APB1ENR      TIM13EN       LL_APB1_GRP1_DisableClock\n
 535:C:/Users/nace/OneDrive/Desktop/STM32/Projects_nace/NUCLEO_LL_Project_LCD/STM32_template_proj/Drivers/STM32F1xx_HAL_Driver/Inc\stm32f1xx_ll_bus.h ****   *         APB1ENR      TIM14EN       LL_APB1_GRP1_DisableClock\n
 536:C:/Users/nace/OneDrive/Desktop/STM32/Projects_nace/NUCLEO_LL_Project_LCD/STM32_template_proj/Drivers/STM32F1xx_HAL_Driver/Inc\stm32f1xx_ll_bus.h ****   *         APB1ENR      TIM2EN        LL_APB1_GRP1_DisableClock\n
 537:C:/Users/nace/OneDrive/Desktop/STM32/Projects_nace/NUCLEO_LL_Project_LCD/STM32_template_proj/Drivers/STM32F1xx_HAL_Driver/Inc\stm32f1xx_ll_bus.h ****   *         APB1ENR      TIM3EN        LL_APB1_GRP1_DisableClock\n
 538:C:/Users/nace/OneDrive/Desktop/STM32/Projects_nace/NUCLEO_LL_Project_LCD/STM32_template_proj/Drivers/STM32F1xx_HAL_Driver/Inc\stm32f1xx_ll_bus.h ****   *         APB1ENR      TIM4EN        LL_APB1_GRP1_DisableClock\n
 539:C:/Users/nace/OneDrive/Desktop/STM32/Projects_nace/NUCLEO_LL_Project_LCD/STM32_template_proj/Drivers/STM32F1xx_HAL_Driver/Inc\stm32f1xx_ll_bus.h ****   *         APB1ENR      TIM5EN        LL_APB1_GRP1_DisableClock\n
 540:C:/Users/nace/OneDrive/Desktop/STM32/Projects_nace/NUCLEO_LL_Project_LCD/STM32_template_proj/Drivers/STM32F1xx_HAL_Driver/Inc\stm32f1xx_ll_bus.h ****   *         APB1ENR      TIM6EN        LL_APB1_GRP1_DisableClock\n
 541:C:/Users/nace/OneDrive/Desktop/STM32/Projects_nace/NUCLEO_LL_Project_LCD/STM32_template_proj/Drivers/STM32F1xx_HAL_Driver/Inc\stm32f1xx_ll_bus.h ****   *         APB1ENR      TIM7EN        LL_APB1_GRP1_DisableClock\n
 542:C:/Users/nace/OneDrive/Desktop/STM32/Projects_nace/NUCLEO_LL_Project_LCD/STM32_template_proj/Drivers/STM32F1xx_HAL_Driver/Inc\stm32f1xx_ll_bus.h ****   *         APB1ENR      UART4EN       LL_APB1_GRP1_DisableClock\n
 543:C:/Users/nace/OneDrive/Desktop/STM32/Projects_nace/NUCLEO_LL_Project_LCD/STM32_template_proj/Drivers/STM32F1xx_HAL_Driver/Inc\stm32f1xx_ll_bus.h ****   *         APB1ENR      UART5EN       LL_APB1_GRP1_DisableClock\n
 544:C:/Users/nace/OneDrive/Desktop/STM32/Projects_nace/NUCLEO_LL_Project_LCD/STM32_template_proj/Drivers/STM32F1xx_HAL_Driver/Inc\stm32f1xx_ll_bus.h ****   *         APB1ENR      USART2EN      LL_APB1_GRP1_DisableClock\n
 545:C:/Users/nace/OneDrive/Desktop/STM32/Projects_nace/NUCLEO_LL_Project_LCD/STM32_template_proj/Drivers/STM32F1xx_HAL_Driver/Inc\stm32f1xx_ll_bus.h ****   *         APB1ENR      USART3EN      LL_APB1_GRP1_DisableClock\n
 546:C:/Users/nace/OneDrive/Desktop/STM32/Projects_nace/NUCLEO_LL_Project_LCD/STM32_template_proj/Drivers/STM32F1xx_HAL_Driver/Inc\stm32f1xx_ll_bus.h ****   *         APB1ENR      USBEN         LL_APB1_GRP1_DisableClock\n
 547:C:/Users/nace/OneDrive/Desktop/STM32/Projects_nace/NUCLEO_LL_Project_LCD/STM32_template_proj/Drivers/STM32F1xx_HAL_Driver/Inc\stm32f1xx_ll_bus.h ****   *         APB1ENR      WWDGEN        LL_APB1_GRP1_DisableClock
 548:C:/Users/nace/OneDrive/Desktop/STM32/Projects_nace/NUCLEO_LL_Project_LCD/STM32_template_proj/Drivers/STM32F1xx_HAL_Driver/Inc\stm32f1xx_ll_bus.h ****   * @param  Periphs This parameter can be a combination of the following values:
 549:C:/Users/nace/OneDrive/Desktop/STM32/Projects_nace/NUCLEO_LL_Project_LCD/STM32_template_proj/Drivers/STM32F1xx_HAL_Driver/Inc\stm32f1xx_ll_bus.h ****   *         @arg @ref LL_APB1_GRP1_PERIPH_BKP
 550:C:/Users/nace/OneDrive/Desktop/STM32/Projects_nace/NUCLEO_LL_Project_LCD/STM32_template_proj/Drivers/STM32F1xx_HAL_Driver/Inc\stm32f1xx_ll_bus.h ****   *         @arg @ref LL_APB1_GRP1_PERIPH_CAN1 (*)
 551:C:/Users/nace/OneDrive/Desktop/STM32/Projects_nace/NUCLEO_LL_Project_LCD/STM32_template_proj/Drivers/STM32F1xx_HAL_Driver/Inc\stm32f1xx_ll_bus.h ****   *         @arg @ref LL_APB1_GRP1_PERIPH_CAN2 (*)
 552:C:/Users/nace/OneDrive/Desktop/STM32/Projects_nace/NUCLEO_LL_Project_LCD/STM32_template_proj/Drivers/STM32F1xx_HAL_Driver/Inc\stm32f1xx_ll_bus.h ****   *         @arg @ref LL_APB1_GRP1_PERIPH_CEC (*)
 553:C:/Users/nace/OneDrive/Desktop/STM32/Projects_nace/NUCLEO_LL_Project_LCD/STM32_template_proj/Drivers/STM32F1xx_HAL_Driver/Inc\stm32f1xx_ll_bus.h ****   *         @arg @ref LL_APB1_GRP1_PERIPH_DAC1 (*)
 554:C:/Users/nace/OneDrive/Desktop/STM32/Projects_nace/NUCLEO_LL_Project_LCD/STM32_template_proj/Drivers/STM32F1xx_HAL_Driver/Inc\stm32f1xx_ll_bus.h ****   *         @arg @ref LL_APB1_GRP1_PERIPH_I2C1
 555:C:/Users/nace/OneDrive/Desktop/STM32/Projects_nace/NUCLEO_LL_Project_LCD/STM32_template_proj/Drivers/STM32F1xx_HAL_Driver/Inc\stm32f1xx_ll_bus.h ****   *         @arg @ref LL_APB1_GRP1_PERIPH_I2C2 (*)
 556:C:/Users/nace/OneDrive/Desktop/STM32/Projects_nace/NUCLEO_LL_Project_LCD/STM32_template_proj/Drivers/STM32F1xx_HAL_Driver/Inc\stm32f1xx_ll_bus.h ****   *         @arg @ref LL_APB1_GRP1_PERIPH_PWR
 557:C:/Users/nace/OneDrive/Desktop/STM32/Projects_nace/NUCLEO_LL_Project_LCD/STM32_template_proj/Drivers/STM32F1xx_HAL_Driver/Inc\stm32f1xx_ll_bus.h ****   *         @arg @ref LL_APB1_GRP1_PERIPH_SPI2 (*)
 558:C:/Users/nace/OneDrive/Desktop/STM32/Projects_nace/NUCLEO_LL_Project_LCD/STM32_template_proj/Drivers/STM32F1xx_HAL_Driver/Inc\stm32f1xx_ll_bus.h ****   *         @arg @ref LL_APB1_GRP1_PERIPH_SPI3 (*)
 559:C:/Users/nace/OneDrive/Desktop/STM32/Projects_nace/NUCLEO_LL_Project_LCD/STM32_template_proj/Drivers/STM32F1xx_HAL_Driver/Inc\stm32f1xx_ll_bus.h ****   *         @arg @ref LL_APB1_GRP1_PERIPH_TIM12 (*)
 560:C:/Users/nace/OneDrive/Desktop/STM32/Projects_nace/NUCLEO_LL_Project_LCD/STM32_template_proj/Drivers/STM32F1xx_HAL_Driver/Inc\stm32f1xx_ll_bus.h ****   *         @arg @ref LL_APB1_GRP1_PERIPH_TIM13 (*)
 561:C:/Users/nace/OneDrive/Desktop/STM32/Projects_nace/NUCLEO_LL_Project_LCD/STM32_template_proj/Drivers/STM32F1xx_HAL_Driver/Inc\stm32f1xx_ll_bus.h ****   *         @arg @ref LL_APB1_GRP1_PERIPH_TIM14 (*)
 562:C:/Users/nace/OneDrive/Desktop/STM32/Projects_nace/NUCLEO_LL_Project_LCD/STM32_template_proj/Drivers/STM32F1xx_HAL_Driver/Inc\stm32f1xx_ll_bus.h ****   *         @arg @ref LL_APB1_GRP1_PERIPH_TIM2
 563:C:/Users/nace/OneDrive/Desktop/STM32/Projects_nace/NUCLEO_LL_Project_LCD/STM32_template_proj/Drivers/STM32F1xx_HAL_Driver/Inc\stm32f1xx_ll_bus.h ****   *         @arg @ref LL_APB1_GRP1_PERIPH_TIM3
 564:C:/Users/nace/OneDrive/Desktop/STM32/Projects_nace/NUCLEO_LL_Project_LCD/STM32_template_proj/Drivers/STM32F1xx_HAL_Driver/Inc\stm32f1xx_ll_bus.h ****   *         @arg @ref LL_APB1_GRP1_PERIPH_TIM4 (*)
 565:C:/Users/nace/OneDrive/Desktop/STM32/Projects_nace/NUCLEO_LL_Project_LCD/STM32_template_proj/Drivers/STM32F1xx_HAL_Driver/Inc\stm32f1xx_ll_bus.h ****   *         @arg @ref LL_APB1_GRP1_PERIPH_TIM5 (*)
 566:C:/Users/nace/OneDrive/Desktop/STM32/Projects_nace/NUCLEO_LL_Project_LCD/STM32_template_proj/Drivers/STM32F1xx_HAL_Driver/Inc\stm32f1xx_ll_bus.h ****   *         @arg @ref LL_APB1_GRP1_PERIPH_TIM6 (*)
 567:C:/Users/nace/OneDrive/Desktop/STM32/Projects_nace/NUCLEO_LL_Project_LCD/STM32_template_proj/Drivers/STM32F1xx_HAL_Driver/Inc\stm32f1xx_ll_bus.h ****   *         @arg @ref LL_APB1_GRP1_PERIPH_TIM7 (*)
 568:C:/Users/nace/OneDrive/Desktop/STM32/Projects_nace/NUCLEO_LL_Project_LCD/STM32_template_proj/Drivers/STM32F1xx_HAL_Driver/Inc\stm32f1xx_ll_bus.h ****   *         @arg @ref LL_APB1_GRP1_PERIPH_UART4 (*)
 569:C:/Users/nace/OneDrive/Desktop/STM32/Projects_nace/NUCLEO_LL_Project_LCD/STM32_template_proj/Drivers/STM32F1xx_HAL_Driver/Inc\stm32f1xx_ll_bus.h ****   *         @arg @ref LL_APB1_GRP1_PERIPH_UART5 (*)
 570:C:/Users/nace/OneDrive/Desktop/STM32/Projects_nace/NUCLEO_LL_Project_LCD/STM32_template_proj/Drivers/STM32F1xx_HAL_Driver/Inc\stm32f1xx_ll_bus.h ****   *         @arg @ref LL_APB1_GRP1_PERIPH_USART2
 571:C:/Users/nace/OneDrive/Desktop/STM32/Projects_nace/NUCLEO_LL_Project_LCD/STM32_template_proj/Drivers/STM32F1xx_HAL_Driver/Inc\stm32f1xx_ll_bus.h ****   *         @arg @ref LL_APB1_GRP1_PERIPH_USART3 (*)
 572:C:/Users/nace/OneDrive/Desktop/STM32/Projects_nace/NUCLEO_LL_Project_LCD/STM32_template_proj/Drivers/STM32F1xx_HAL_Driver/Inc\stm32f1xx_ll_bus.h ****   *         @arg @ref LL_APB1_GRP1_PERIPH_USB (*)
 573:C:/Users/nace/OneDrive/Desktop/STM32/Projects_nace/NUCLEO_LL_Project_LCD/STM32_template_proj/Drivers/STM32F1xx_HAL_Driver/Inc\stm32f1xx_ll_bus.h ****   *         @arg @ref LL_APB1_GRP1_PERIPH_WWDG
 574:C:/Users/nace/OneDrive/Desktop/STM32/Projects_nace/NUCLEO_LL_Project_LCD/STM32_template_proj/Drivers/STM32F1xx_HAL_Driver/Inc\stm32f1xx_ll_bus.h ****   *
 575:C:/Users/nace/OneDrive/Desktop/STM32/Projects_nace/NUCLEO_LL_Project_LCD/STM32_template_proj/Drivers/STM32F1xx_HAL_Driver/Inc\stm32f1xx_ll_bus.h ****   *         (*) value not defined in all devices.
 576:C:/Users/nace/OneDrive/Desktop/STM32/Projects_nace/NUCLEO_LL_Project_LCD/STM32_template_proj/Drivers/STM32F1xx_HAL_Driver/Inc\stm32f1xx_ll_bus.h ****   * @retval None
 577:C:/Users/nace/OneDrive/Desktop/STM32/Projects_nace/NUCLEO_LL_Project_LCD/STM32_template_proj/Drivers/STM32F1xx_HAL_Driver/Inc\stm32f1xx_ll_bus.h **** */
 578:C:/Users/nace/OneDrive/Desktop/STM32/Projects_nace/NUCLEO_LL_Project_LCD/STM32_template_proj/Drivers/STM32F1xx_HAL_Driver/Inc\stm32f1xx_ll_bus.h **** __STATIC_INLINE void LL_APB1_GRP1_DisableClock(uint32_t Periphs)
 579:C:/Users/nace/OneDrive/Desktop/STM32/Projects_nace/NUCLEO_LL_Project_LCD/STM32_template_proj/Drivers/STM32F1xx_HAL_Driver/Inc\stm32f1xx_ll_bus.h **** {
 580:C:/Users/nace/OneDrive/Desktop/STM32/Projects_nace/NUCLEO_LL_Project_LCD/STM32_template_proj/Drivers/STM32F1xx_HAL_Driver/Inc\stm32f1xx_ll_bus.h ****   CLEAR_BIT(RCC->APB1ENR, Periphs);
 581:C:/Users/nace/OneDrive/Desktop/STM32/Projects_nace/NUCLEO_LL_Project_LCD/STM32_template_proj/Drivers/STM32F1xx_HAL_Driver/Inc\stm32f1xx_ll_bus.h **** }
 582:C:/Users/nace/OneDrive/Desktop/STM32/Projects_nace/NUCLEO_LL_Project_LCD/STM32_template_proj/Drivers/STM32F1xx_HAL_Driver/Inc\stm32f1xx_ll_bus.h **** 
 583:C:/Users/nace/OneDrive/Desktop/STM32/Projects_nace/NUCLEO_LL_Project_LCD/STM32_template_proj/Drivers/STM32F1xx_HAL_Driver/Inc\stm32f1xx_ll_bus.h **** /**
 584:C:/Users/nace/OneDrive/Desktop/STM32/Projects_nace/NUCLEO_LL_Project_LCD/STM32_template_proj/Drivers/STM32F1xx_HAL_Driver/Inc\stm32f1xx_ll_bus.h ****   * @brief  Force APB1 peripherals reset.
 585:C:/Users/nace/OneDrive/Desktop/STM32/Projects_nace/NUCLEO_LL_Project_LCD/STM32_template_proj/Drivers/STM32F1xx_HAL_Driver/Inc\stm32f1xx_ll_bus.h ****   * @rmtoll APB1RSTR     BKPRST        LL_APB1_GRP1_ForceReset\n
 586:C:/Users/nace/OneDrive/Desktop/STM32/Projects_nace/NUCLEO_LL_Project_LCD/STM32_template_proj/Drivers/STM32F1xx_HAL_Driver/Inc\stm32f1xx_ll_bus.h ****   *         APB1RSTR     CAN1RST       LL_APB1_GRP1_ForceReset\n
 587:C:/Users/nace/OneDrive/Desktop/STM32/Projects_nace/NUCLEO_LL_Project_LCD/STM32_template_proj/Drivers/STM32F1xx_HAL_Driver/Inc\stm32f1xx_ll_bus.h ****   *         APB1RSTR     CAN2RST       LL_APB1_GRP1_ForceReset\n
 588:C:/Users/nace/OneDrive/Desktop/STM32/Projects_nace/NUCLEO_LL_Project_LCD/STM32_template_proj/Drivers/STM32F1xx_HAL_Driver/Inc\stm32f1xx_ll_bus.h ****   *         APB1RSTR     CECRST        LL_APB1_GRP1_ForceReset\n
 589:C:/Users/nace/OneDrive/Desktop/STM32/Projects_nace/NUCLEO_LL_Project_LCD/STM32_template_proj/Drivers/STM32F1xx_HAL_Driver/Inc\stm32f1xx_ll_bus.h ****   *         APB1RSTR     DACRST        LL_APB1_GRP1_ForceReset\n
 590:C:/Users/nace/OneDrive/Desktop/STM32/Projects_nace/NUCLEO_LL_Project_LCD/STM32_template_proj/Drivers/STM32F1xx_HAL_Driver/Inc\stm32f1xx_ll_bus.h ****   *         APB1RSTR     I2C1RST       LL_APB1_GRP1_ForceReset\n
 591:C:/Users/nace/OneDrive/Desktop/STM32/Projects_nace/NUCLEO_LL_Project_LCD/STM32_template_proj/Drivers/STM32F1xx_HAL_Driver/Inc\stm32f1xx_ll_bus.h ****   *         APB1RSTR     I2C2RST       LL_APB1_GRP1_ForceReset\n
 592:C:/Users/nace/OneDrive/Desktop/STM32/Projects_nace/NUCLEO_LL_Project_LCD/STM32_template_proj/Drivers/STM32F1xx_HAL_Driver/Inc\stm32f1xx_ll_bus.h ****   *         APB1RSTR     PWRRST        LL_APB1_GRP1_ForceReset\n
 593:C:/Users/nace/OneDrive/Desktop/STM32/Projects_nace/NUCLEO_LL_Project_LCD/STM32_template_proj/Drivers/STM32F1xx_HAL_Driver/Inc\stm32f1xx_ll_bus.h ****   *         APB1RSTR     SPI2RST       LL_APB1_GRP1_ForceReset\n
 594:C:/Users/nace/OneDrive/Desktop/STM32/Projects_nace/NUCLEO_LL_Project_LCD/STM32_template_proj/Drivers/STM32F1xx_HAL_Driver/Inc\stm32f1xx_ll_bus.h ****   *         APB1RSTR     SPI3RST       LL_APB1_GRP1_ForceReset\n
 595:C:/Users/nace/OneDrive/Desktop/STM32/Projects_nace/NUCLEO_LL_Project_LCD/STM32_template_proj/Drivers/STM32F1xx_HAL_Driver/Inc\stm32f1xx_ll_bus.h ****   *         APB1RSTR     TIM12RST      LL_APB1_GRP1_ForceReset\n
 596:C:/Users/nace/OneDrive/Desktop/STM32/Projects_nace/NUCLEO_LL_Project_LCD/STM32_template_proj/Drivers/STM32F1xx_HAL_Driver/Inc\stm32f1xx_ll_bus.h ****   *         APB1RSTR     TIM13RST      LL_APB1_GRP1_ForceReset\n
 597:C:/Users/nace/OneDrive/Desktop/STM32/Projects_nace/NUCLEO_LL_Project_LCD/STM32_template_proj/Drivers/STM32F1xx_HAL_Driver/Inc\stm32f1xx_ll_bus.h ****   *         APB1RSTR     TIM14RST      LL_APB1_GRP1_ForceReset\n
 598:C:/Users/nace/OneDrive/Desktop/STM32/Projects_nace/NUCLEO_LL_Project_LCD/STM32_template_proj/Drivers/STM32F1xx_HAL_Driver/Inc\stm32f1xx_ll_bus.h ****   *         APB1RSTR     TIM2RST       LL_APB1_GRP1_ForceReset\n
 599:C:/Users/nace/OneDrive/Desktop/STM32/Projects_nace/NUCLEO_LL_Project_LCD/STM32_template_proj/Drivers/STM32F1xx_HAL_Driver/Inc\stm32f1xx_ll_bus.h ****   *         APB1RSTR     TIM3RST       LL_APB1_GRP1_ForceReset\n
 600:C:/Users/nace/OneDrive/Desktop/STM32/Projects_nace/NUCLEO_LL_Project_LCD/STM32_template_proj/Drivers/STM32F1xx_HAL_Driver/Inc\stm32f1xx_ll_bus.h ****   *         APB1RSTR     TIM4RST       LL_APB1_GRP1_ForceReset\n
 601:C:/Users/nace/OneDrive/Desktop/STM32/Projects_nace/NUCLEO_LL_Project_LCD/STM32_template_proj/Drivers/STM32F1xx_HAL_Driver/Inc\stm32f1xx_ll_bus.h ****   *         APB1RSTR     TIM5RST       LL_APB1_GRP1_ForceReset\n
 602:C:/Users/nace/OneDrive/Desktop/STM32/Projects_nace/NUCLEO_LL_Project_LCD/STM32_template_proj/Drivers/STM32F1xx_HAL_Driver/Inc\stm32f1xx_ll_bus.h ****   *         APB1RSTR     TIM6RST       LL_APB1_GRP1_ForceReset\n
 603:C:/Users/nace/OneDrive/Desktop/STM32/Projects_nace/NUCLEO_LL_Project_LCD/STM32_template_proj/Drivers/STM32F1xx_HAL_Driver/Inc\stm32f1xx_ll_bus.h ****   *         APB1RSTR     TIM7RST       LL_APB1_GRP1_ForceReset\n
 604:C:/Users/nace/OneDrive/Desktop/STM32/Projects_nace/NUCLEO_LL_Project_LCD/STM32_template_proj/Drivers/STM32F1xx_HAL_Driver/Inc\stm32f1xx_ll_bus.h ****   *         APB1RSTR     UART4RST      LL_APB1_GRP1_ForceReset\n
 605:C:/Users/nace/OneDrive/Desktop/STM32/Projects_nace/NUCLEO_LL_Project_LCD/STM32_template_proj/Drivers/STM32F1xx_HAL_Driver/Inc\stm32f1xx_ll_bus.h ****   *         APB1RSTR     UART5RST      LL_APB1_GRP1_ForceReset\n
 606:C:/Users/nace/OneDrive/Desktop/STM32/Projects_nace/NUCLEO_LL_Project_LCD/STM32_template_proj/Drivers/STM32F1xx_HAL_Driver/Inc\stm32f1xx_ll_bus.h ****   *         APB1RSTR     USART2RST     LL_APB1_GRP1_ForceReset\n
 607:C:/Users/nace/OneDrive/Desktop/STM32/Projects_nace/NUCLEO_LL_Project_LCD/STM32_template_proj/Drivers/STM32F1xx_HAL_Driver/Inc\stm32f1xx_ll_bus.h ****   *         APB1RSTR     USART3RST     LL_APB1_GRP1_ForceReset\n
 608:C:/Users/nace/OneDrive/Desktop/STM32/Projects_nace/NUCLEO_LL_Project_LCD/STM32_template_proj/Drivers/STM32F1xx_HAL_Driver/Inc\stm32f1xx_ll_bus.h ****   *         APB1RSTR     USBRST        LL_APB1_GRP1_ForceReset\n
 609:C:/Users/nace/OneDrive/Desktop/STM32/Projects_nace/NUCLEO_LL_Project_LCD/STM32_template_proj/Drivers/STM32F1xx_HAL_Driver/Inc\stm32f1xx_ll_bus.h ****   *         APB1RSTR     WWDGRST       LL_APB1_GRP1_ForceReset
 610:C:/Users/nace/OneDrive/Desktop/STM32/Projects_nace/NUCLEO_LL_Project_LCD/STM32_template_proj/Drivers/STM32F1xx_HAL_Driver/Inc\stm32f1xx_ll_bus.h ****   * @param  Periphs This parameter can be a combination of the following values:
 611:C:/Users/nace/OneDrive/Desktop/STM32/Projects_nace/NUCLEO_LL_Project_LCD/STM32_template_proj/Drivers/STM32F1xx_HAL_Driver/Inc\stm32f1xx_ll_bus.h ****   *         @arg @ref LL_APB1_GRP1_PERIPH_ALL
 612:C:/Users/nace/OneDrive/Desktop/STM32/Projects_nace/NUCLEO_LL_Project_LCD/STM32_template_proj/Drivers/STM32F1xx_HAL_Driver/Inc\stm32f1xx_ll_bus.h ****   *         @arg @ref LL_APB1_GRP1_PERIPH_BKP
 613:C:/Users/nace/OneDrive/Desktop/STM32/Projects_nace/NUCLEO_LL_Project_LCD/STM32_template_proj/Drivers/STM32F1xx_HAL_Driver/Inc\stm32f1xx_ll_bus.h ****   *         @arg @ref LL_APB1_GRP1_PERIPH_CAN1 (*)
 614:C:/Users/nace/OneDrive/Desktop/STM32/Projects_nace/NUCLEO_LL_Project_LCD/STM32_template_proj/Drivers/STM32F1xx_HAL_Driver/Inc\stm32f1xx_ll_bus.h ****   *         @arg @ref LL_APB1_GRP1_PERIPH_CAN2 (*)
 615:C:/Users/nace/OneDrive/Desktop/STM32/Projects_nace/NUCLEO_LL_Project_LCD/STM32_template_proj/Drivers/STM32F1xx_HAL_Driver/Inc\stm32f1xx_ll_bus.h ****   *         @arg @ref LL_APB1_GRP1_PERIPH_CEC (*)
 616:C:/Users/nace/OneDrive/Desktop/STM32/Projects_nace/NUCLEO_LL_Project_LCD/STM32_template_proj/Drivers/STM32F1xx_HAL_Driver/Inc\stm32f1xx_ll_bus.h ****   *         @arg @ref LL_APB1_GRP1_PERIPH_DAC1 (*)
 617:C:/Users/nace/OneDrive/Desktop/STM32/Projects_nace/NUCLEO_LL_Project_LCD/STM32_template_proj/Drivers/STM32F1xx_HAL_Driver/Inc\stm32f1xx_ll_bus.h ****   *         @arg @ref LL_APB1_GRP1_PERIPH_I2C1
 618:C:/Users/nace/OneDrive/Desktop/STM32/Projects_nace/NUCLEO_LL_Project_LCD/STM32_template_proj/Drivers/STM32F1xx_HAL_Driver/Inc\stm32f1xx_ll_bus.h ****   *         @arg @ref LL_APB1_GRP1_PERIPH_I2C2 (*)
 619:C:/Users/nace/OneDrive/Desktop/STM32/Projects_nace/NUCLEO_LL_Project_LCD/STM32_template_proj/Drivers/STM32F1xx_HAL_Driver/Inc\stm32f1xx_ll_bus.h ****   *         @arg @ref LL_APB1_GRP1_PERIPH_PWR
 620:C:/Users/nace/OneDrive/Desktop/STM32/Projects_nace/NUCLEO_LL_Project_LCD/STM32_template_proj/Drivers/STM32F1xx_HAL_Driver/Inc\stm32f1xx_ll_bus.h ****   *         @arg @ref LL_APB1_GRP1_PERIPH_SPI2 (*)
 621:C:/Users/nace/OneDrive/Desktop/STM32/Projects_nace/NUCLEO_LL_Project_LCD/STM32_template_proj/Drivers/STM32F1xx_HAL_Driver/Inc\stm32f1xx_ll_bus.h ****   *         @arg @ref LL_APB1_GRP1_PERIPH_SPI3 (*)
 622:C:/Users/nace/OneDrive/Desktop/STM32/Projects_nace/NUCLEO_LL_Project_LCD/STM32_template_proj/Drivers/STM32F1xx_HAL_Driver/Inc\stm32f1xx_ll_bus.h ****   *         @arg @ref LL_APB1_GRP1_PERIPH_TIM12 (*)
 623:C:/Users/nace/OneDrive/Desktop/STM32/Projects_nace/NUCLEO_LL_Project_LCD/STM32_template_proj/Drivers/STM32F1xx_HAL_Driver/Inc\stm32f1xx_ll_bus.h ****   *         @arg @ref LL_APB1_GRP1_PERIPH_TIM13 (*)
 624:C:/Users/nace/OneDrive/Desktop/STM32/Projects_nace/NUCLEO_LL_Project_LCD/STM32_template_proj/Drivers/STM32F1xx_HAL_Driver/Inc\stm32f1xx_ll_bus.h ****   *         @arg @ref LL_APB1_GRP1_PERIPH_TIM14 (*)
 625:C:/Users/nace/OneDrive/Desktop/STM32/Projects_nace/NUCLEO_LL_Project_LCD/STM32_template_proj/Drivers/STM32F1xx_HAL_Driver/Inc\stm32f1xx_ll_bus.h ****   *         @arg @ref LL_APB1_GRP1_PERIPH_TIM2
 626:C:/Users/nace/OneDrive/Desktop/STM32/Projects_nace/NUCLEO_LL_Project_LCD/STM32_template_proj/Drivers/STM32F1xx_HAL_Driver/Inc\stm32f1xx_ll_bus.h ****   *         @arg @ref LL_APB1_GRP1_PERIPH_TIM3
 627:C:/Users/nace/OneDrive/Desktop/STM32/Projects_nace/NUCLEO_LL_Project_LCD/STM32_template_proj/Drivers/STM32F1xx_HAL_Driver/Inc\stm32f1xx_ll_bus.h ****   *         @arg @ref LL_APB1_GRP1_PERIPH_TIM4 (*)
 628:C:/Users/nace/OneDrive/Desktop/STM32/Projects_nace/NUCLEO_LL_Project_LCD/STM32_template_proj/Drivers/STM32F1xx_HAL_Driver/Inc\stm32f1xx_ll_bus.h ****   *         @arg @ref LL_APB1_GRP1_PERIPH_TIM5 (*)
 629:C:/Users/nace/OneDrive/Desktop/STM32/Projects_nace/NUCLEO_LL_Project_LCD/STM32_template_proj/Drivers/STM32F1xx_HAL_Driver/Inc\stm32f1xx_ll_bus.h ****   *         @arg @ref LL_APB1_GRP1_PERIPH_TIM6 (*)
 630:C:/Users/nace/OneDrive/Desktop/STM32/Projects_nace/NUCLEO_LL_Project_LCD/STM32_template_proj/Drivers/STM32F1xx_HAL_Driver/Inc\stm32f1xx_ll_bus.h ****   *         @arg @ref LL_APB1_GRP1_PERIPH_TIM7 (*)
 631:C:/Users/nace/OneDrive/Desktop/STM32/Projects_nace/NUCLEO_LL_Project_LCD/STM32_template_proj/Drivers/STM32F1xx_HAL_Driver/Inc\stm32f1xx_ll_bus.h ****   *         @arg @ref LL_APB1_GRP1_PERIPH_UART4 (*)
 632:C:/Users/nace/OneDrive/Desktop/STM32/Projects_nace/NUCLEO_LL_Project_LCD/STM32_template_proj/Drivers/STM32F1xx_HAL_Driver/Inc\stm32f1xx_ll_bus.h ****   *         @arg @ref LL_APB1_GRP1_PERIPH_UART5 (*)
 633:C:/Users/nace/OneDrive/Desktop/STM32/Projects_nace/NUCLEO_LL_Project_LCD/STM32_template_proj/Drivers/STM32F1xx_HAL_Driver/Inc\stm32f1xx_ll_bus.h ****   *         @arg @ref LL_APB1_GRP1_PERIPH_USART2
 634:C:/Users/nace/OneDrive/Desktop/STM32/Projects_nace/NUCLEO_LL_Project_LCD/STM32_template_proj/Drivers/STM32F1xx_HAL_Driver/Inc\stm32f1xx_ll_bus.h ****   *         @arg @ref LL_APB1_GRP1_PERIPH_USART3 (*)
 635:C:/Users/nace/OneDrive/Desktop/STM32/Projects_nace/NUCLEO_LL_Project_LCD/STM32_template_proj/Drivers/STM32F1xx_HAL_Driver/Inc\stm32f1xx_ll_bus.h ****   *         @arg @ref LL_APB1_GRP1_PERIPH_USB (*)
 636:C:/Users/nace/OneDrive/Desktop/STM32/Projects_nace/NUCLEO_LL_Project_LCD/STM32_template_proj/Drivers/STM32F1xx_HAL_Driver/Inc\stm32f1xx_ll_bus.h ****   *         @arg @ref LL_APB1_GRP1_PERIPH_WWDG
 637:C:/Users/nace/OneDrive/Desktop/STM32/Projects_nace/NUCLEO_LL_Project_LCD/STM32_template_proj/Drivers/STM32F1xx_HAL_Driver/Inc\stm32f1xx_ll_bus.h ****   *
 638:C:/Users/nace/OneDrive/Desktop/STM32/Projects_nace/NUCLEO_LL_Project_LCD/STM32_template_proj/Drivers/STM32F1xx_HAL_Driver/Inc\stm32f1xx_ll_bus.h ****   *         (*) value not defined in all devices.
 639:C:/Users/nace/OneDrive/Desktop/STM32/Projects_nace/NUCLEO_LL_Project_LCD/STM32_template_proj/Drivers/STM32F1xx_HAL_Driver/Inc\stm32f1xx_ll_bus.h ****   * @retval None
 640:C:/Users/nace/OneDrive/Desktop/STM32/Projects_nace/NUCLEO_LL_Project_LCD/STM32_template_proj/Drivers/STM32F1xx_HAL_Driver/Inc\stm32f1xx_ll_bus.h **** */
 641:C:/Users/nace/OneDrive/Desktop/STM32/Projects_nace/NUCLEO_LL_Project_LCD/STM32_template_proj/Drivers/STM32F1xx_HAL_Driver/Inc\stm32f1xx_ll_bus.h **** __STATIC_INLINE void LL_APB1_GRP1_ForceReset(uint32_t Periphs)
 642:C:/Users/nace/OneDrive/Desktop/STM32/Projects_nace/NUCLEO_LL_Project_LCD/STM32_template_proj/Drivers/STM32F1xx_HAL_Driver/Inc\stm32f1xx_ll_bus.h **** {
 643:C:/Users/nace/OneDrive/Desktop/STM32/Projects_nace/NUCLEO_LL_Project_LCD/STM32_template_proj/Drivers/STM32F1xx_HAL_Driver/Inc\stm32f1xx_ll_bus.h ****   SET_BIT(RCC->APB1RSTR, Periphs);
 644:C:/Users/nace/OneDrive/Desktop/STM32/Projects_nace/NUCLEO_LL_Project_LCD/STM32_template_proj/Drivers/STM32F1xx_HAL_Driver/Inc\stm32f1xx_ll_bus.h **** }
 645:C:/Users/nace/OneDrive/Desktop/STM32/Projects_nace/NUCLEO_LL_Project_LCD/STM32_template_proj/Drivers/STM32F1xx_HAL_Driver/Inc\stm32f1xx_ll_bus.h **** 
 646:C:/Users/nace/OneDrive/Desktop/STM32/Projects_nace/NUCLEO_LL_Project_LCD/STM32_template_proj/Drivers/STM32F1xx_HAL_Driver/Inc\stm32f1xx_ll_bus.h **** /**
 647:C:/Users/nace/OneDrive/Desktop/STM32/Projects_nace/NUCLEO_LL_Project_LCD/STM32_template_proj/Drivers/STM32F1xx_HAL_Driver/Inc\stm32f1xx_ll_bus.h ****   * @brief  Release APB1 peripherals reset.
 648:C:/Users/nace/OneDrive/Desktop/STM32/Projects_nace/NUCLEO_LL_Project_LCD/STM32_template_proj/Drivers/STM32F1xx_HAL_Driver/Inc\stm32f1xx_ll_bus.h ****   * @rmtoll APB1RSTR     BKPRST        LL_APB1_GRP1_ReleaseReset\n
 649:C:/Users/nace/OneDrive/Desktop/STM32/Projects_nace/NUCLEO_LL_Project_LCD/STM32_template_proj/Drivers/STM32F1xx_HAL_Driver/Inc\stm32f1xx_ll_bus.h ****   *         APB1RSTR     CAN1RST       LL_APB1_GRP1_ReleaseReset\n
 650:C:/Users/nace/OneDrive/Desktop/STM32/Projects_nace/NUCLEO_LL_Project_LCD/STM32_template_proj/Drivers/STM32F1xx_HAL_Driver/Inc\stm32f1xx_ll_bus.h ****   *         APB1RSTR     CAN2RST       LL_APB1_GRP1_ReleaseReset\n
 651:C:/Users/nace/OneDrive/Desktop/STM32/Projects_nace/NUCLEO_LL_Project_LCD/STM32_template_proj/Drivers/STM32F1xx_HAL_Driver/Inc\stm32f1xx_ll_bus.h ****   *         APB1RSTR     CECRST        LL_APB1_GRP1_ReleaseReset\n
 652:C:/Users/nace/OneDrive/Desktop/STM32/Projects_nace/NUCLEO_LL_Project_LCD/STM32_template_proj/Drivers/STM32F1xx_HAL_Driver/Inc\stm32f1xx_ll_bus.h ****   *         APB1RSTR     DACRST        LL_APB1_GRP1_ReleaseReset\n
 653:C:/Users/nace/OneDrive/Desktop/STM32/Projects_nace/NUCLEO_LL_Project_LCD/STM32_template_proj/Drivers/STM32F1xx_HAL_Driver/Inc\stm32f1xx_ll_bus.h ****   *         APB1RSTR     I2C1RST       LL_APB1_GRP1_ReleaseReset\n
 654:C:/Users/nace/OneDrive/Desktop/STM32/Projects_nace/NUCLEO_LL_Project_LCD/STM32_template_proj/Drivers/STM32F1xx_HAL_Driver/Inc\stm32f1xx_ll_bus.h ****   *         APB1RSTR     I2C2RST       LL_APB1_GRP1_ReleaseReset\n
 655:C:/Users/nace/OneDrive/Desktop/STM32/Projects_nace/NUCLEO_LL_Project_LCD/STM32_template_proj/Drivers/STM32F1xx_HAL_Driver/Inc\stm32f1xx_ll_bus.h ****   *         APB1RSTR     PWRRST        LL_APB1_GRP1_ReleaseReset\n
 656:C:/Users/nace/OneDrive/Desktop/STM32/Projects_nace/NUCLEO_LL_Project_LCD/STM32_template_proj/Drivers/STM32F1xx_HAL_Driver/Inc\stm32f1xx_ll_bus.h ****   *         APB1RSTR     SPI2RST       LL_APB1_GRP1_ReleaseReset\n
 657:C:/Users/nace/OneDrive/Desktop/STM32/Projects_nace/NUCLEO_LL_Project_LCD/STM32_template_proj/Drivers/STM32F1xx_HAL_Driver/Inc\stm32f1xx_ll_bus.h ****   *         APB1RSTR     SPI3RST       LL_APB1_GRP1_ReleaseReset\n
 658:C:/Users/nace/OneDrive/Desktop/STM32/Projects_nace/NUCLEO_LL_Project_LCD/STM32_template_proj/Drivers/STM32F1xx_HAL_Driver/Inc\stm32f1xx_ll_bus.h ****   *         APB1RSTR     TIM12RST      LL_APB1_GRP1_ReleaseReset\n
 659:C:/Users/nace/OneDrive/Desktop/STM32/Projects_nace/NUCLEO_LL_Project_LCD/STM32_template_proj/Drivers/STM32F1xx_HAL_Driver/Inc\stm32f1xx_ll_bus.h ****   *         APB1RSTR     TIM13RST      LL_APB1_GRP1_ReleaseReset\n
 660:C:/Users/nace/OneDrive/Desktop/STM32/Projects_nace/NUCLEO_LL_Project_LCD/STM32_template_proj/Drivers/STM32F1xx_HAL_Driver/Inc\stm32f1xx_ll_bus.h ****   *         APB1RSTR     TIM14RST      LL_APB1_GRP1_ReleaseReset\n
 661:C:/Users/nace/OneDrive/Desktop/STM32/Projects_nace/NUCLEO_LL_Project_LCD/STM32_template_proj/Drivers/STM32F1xx_HAL_Driver/Inc\stm32f1xx_ll_bus.h ****   *         APB1RSTR     TIM2RST       LL_APB1_GRP1_ReleaseReset\n
 662:C:/Users/nace/OneDrive/Desktop/STM32/Projects_nace/NUCLEO_LL_Project_LCD/STM32_template_proj/Drivers/STM32F1xx_HAL_Driver/Inc\stm32f1xx_ll_bus.h ****   *         APB1RSTR     TIM3RST       LL_APB1_GRP1_ReleaseReset\n
 663:C:/Users/nace/OneDrive/Desktop/STM32/Projects_nace/NUCLEO_LL_Project_LCD/STM32_template_proj/Drivers/STM32F1xx_HAL_Driver/Inc\stm32f1xx_ll_bus.h ****   *         APB1RSTR     TIM4RST       LL_APB1_GRP1_ReleaseReset\n
 664:C:/Users/nace/OneDrive/Desktop/STM32/Projects_nace/NUCLEO_LL_Project_LCD/STM32_template_proj/Drivers/STM32F1xx_HAL_Driver/Inc\stm32f1xx_ll_bus.h ****   *         APB1RSTR     TIM5RST       LL_APB1_GRP1_ReleaseReset\n
 665:C:/Users/nace/OneDrive/Desktop/STM32/Projects_nace/NUCLEO_LL_Project_LCD/STM32_template_proj/Drivers/STM32F1xx_HAL_Driver/Inc\stm32f1xx_ll_bus.h ****   *         APB1RSTR     TIM6RST       LL_APB1_GRP1_ReleaseReset\n
 666:C:/Users/nace/OneDrive/Desktop/STM32/Projects_nace/NUCLEO_LL_Project_LCD/STM32_template_proj/Drivers/STM32F1xx_HAL_Driver/Inc\stm32f1xx_ll_bus.h ****   *         APB1RSTR     TIM7RST       LL_APB1_GRP1_ReleaseReset\n
 667:C:/Users/nace/OneDrive/Desktop/STM32/Projects_nace/NUCLEO_LL_Project_LCD/STM32_template_proj/Drivers/STM32F1xx_HAL_Driver/Inc\stm32f1xx_ll_bus.h ****   *         APB1RSTR     UART4RST      LL_APB1_GRP1_ReleaseReset\n
 668:C:/Users/nace/OneDrive/Desktop/STM32/Projects_nace/NUCLEO_LL_Project_LCD/STM32_template_proj/Drivers/STM32F1xx_HAL_Driver/Inc\stm32f1xx_ll_bus.h ****   *         APB1RSTR     UART5RST      LL_APB1_GRP1_ReleaseReset\n
 669:C:/Users/nace/OneDrive/Desktop/STM32/Projects_nace/NUCLEO_LL_Project_LCD/STM32_template_proj/Drivers/STM32F1xx_HAL_Driver/Inc\stm32f1xx_ll_bus.h ****   *         APB1RSTR     USART2RST     LL_APB1_GRP1_ReleaseReset\n
 670:C:/Users/nace/OneDrive/Desktop/STM32/Projects_nace/NUCLEO_LL_Project_LCD/STM32_template_proj/Drivers/STM32F1xx_HAL_Driver/Inc\stm32f1xx_ll_bus.h ****   *         APB1RSTR     USART3RST     LL_APB1_GRP1_ReleaseReset\n
 671:C:/Users/nace/OneDrive/Desktop/STM32/Projects_nace/NUCLEO_LL_Project_LCD/STM32_template_proj/Drivers/STM32F1xx_HAL_Driver/Inc\stm32f1xx_ll_bus.h ****   *         APB1RSTR     USBRST        LL_APB1_GRP1_ReleaseReset\n
 672:C:/Users/nace/OneDrive/Desktop/STM32/Projects_nace/NUCLEO_LL_Project_LCD/STM32_template_proj/Drivers/STM32F1xx_HAL_Driver/Inc\stm32f1xx_ll_bus.h ****   *         APB1RSTR     WWDGRST       LL_APB1_GRP1_ReleaseReset
 673:C:/Users/nace/OneDrive/Desktop/STM32/Projects_nace/NUCLEO_LL_Project_LCD/STM32_template_proj/Drivers/STM32F1xx_HAL_Driver/Inc\stm32f1xx_ll_bus.h ****   * @param  Periphs This parameter can be a combination of the following values:
 674:C:/Users/nace/OneDrive/Desktop/STM32/Projects_nace/NUCLEO_LL_Project_LCD/STM32_template_proj/Drivers/STM32F1xx_HAL_Driver/Inc\stm32f1xx_ll_bus.h ****   *         @arg @ref LL_APB1_GRP1_PERIPH_ALL
 675:C:/Users/nace/OneDrive/Desktop/STM32/Projects_nace/NUCLEO_LL_Project_LCD/STM32_template_proj/Drivers/STM32F1xx_HAL_Driver/Inc\stm32f1xx_ll_bus.h ****   *         @arg @ref LL_APB1_GRP1_PERIPH_BKP
 676:C:/Users/nace/OneDrive/Desktop/STM32/Projects_nace/NUCLEO_LL_Project_LCD/STM32_template_proj/Drivers/STM32F1xx_HAL_Driver/Inc\stm32f1xx_ll_bus.h ****   *         @arg @ref LL_APB1_GRP1_PERIPH_CAN1 (*)
 677:C:/Users/nace/OneDrive/Desktop/STM32/Projects_nace/NUCLEO_LL_Project_LCD/STM32_template_proj/Drivers/STM32F1xx_HAL_Driver/Inc\stm32f1xx_ll_bus.h ****   *         @arg @ref LL_APB1_GRP1_PERIPH_CAN2 (*)
 678:C:/Users/nace/OneDrive/Desktop/STM32/Projects_nace/NUCLEO_LL_Project_LCD/STM32_template_proj/Drivers/STM32F1xx_HAL_Driver/Inc\stm32f1xx_ll_bus.h ****   *         @arg @ref LL_APB1_GRP1_PERIPH_CEC (*)
 679:C:/Users/nace/OneDrive/Desktop/STM32/Projects_nace/NUCLEO_LL_Project_LCD/STM32_template_proj/Drivers/STM32F1xx_HAL_Driver/Inc\stm32f1xx_ll_bus.h ****   *         @arg @ref LL_APB1_GRP1_PERIPH_DAC1 (*)
 680:C:/Users/nace/OneDrive/Desktop/STM32/Projects_nace/NUCLEO_LL_Project_LCD/STM32_template_proj/Drivers/STM32F1xx_HAL_Driver/Inc\stm32f1xx_ll_bus.h ****   *         @arg @ref LL_APB1_GRP1_PERIPH_I2C1
 681:C:/Users/nace/OneDrive/Desktop/STM32/Projects_nace/NUCLEO_LL_Project_LCD/STM32_template_proj/Drivers/STM32F1xx_HAL_Driver/Inc\stm32f1xx_ll_bus.h ****   *         @arg @ref LL_APB1_GRP1_PERIPH_I2C2 (*)
 682:C:/Users/nace/OneDrive/Desktop/STM32/Projects_nace/NUCLEO_LL_Project_LCD/STM32_template_proj/Drivers/STM32F1xx_HAL_Driver/Inc\stm32f1xx_ll_bus.h ****   *         @arg @ref LL_APB1_GRP1_PERIPH_PWR
 683:C:/Users/nace/OneDrive/Desktop/STM32/Projects_nace/NUCLEO_LL_Project_LCD/STM32_template_proj/Drivers/STM32F1xx_HAL_Driver/Inc\stm32f1xx_ll_bus.h ****   *         @arg @ref LL_APB1_GRP1_PERIPH_SPI2 (*)
 684:C:/Users/nace/OneDrive/Desktop/STM32/Projects_nace/NUCLEO_LL_Project_LCD/STM32_template_proj/Drivers/STM32F1xx_HAL_Driver/Inc\stm32f1xx_ll_bus.h ****   *         @arg @ref LL_APB1_GRP1_PERIPH_SPI3 (*)
 685:C:/Users/nace/OneDrive/Desktop/STM32/Projects_nace/NUCLEO_LL_Project_LCD/STM32_template_proj/Drivers/STM32F1xx_HAL_Driver/Inc\stm32f1xx_ll_bus.h ****   *         @arg @ref LL_APB1_GRP1_PERIPH_TIM12 (*)
 686:C:/Users/nace/OneDrive/Desktop/STM32/Projects_nace/NUCLEO_LL_Project_LCD/STM32_template_proj/Drivers/STM32F1xx_HAL_Driver/Inc\stm32f1xx_ll_bus.h ****   *         @arg @ref LL_APB1_GRP1_PERIPH_TIM13 (*)
 687:C:/Users/nace/OneDrive/Desktop/STM32/Projects_nace/NUCLEO_LL_Project_LCD/STM32_template_proj/Drivers/STM32F1xx_HAL_Driver/Inc\stm32f1xx_ll_bus.h ****   *         @arg @ref LL_APB1_GRP1_PERIPH_TIM14 (*)
 688:C:/Users/nace/OneDrive/Desktop/STM32/Projects_nace/NUCLEO_LL_Project_LCD/STM32_template_proj/Drivers/STM32F1xx_HAL_Driver/Inc\stm32f1xx_ll_bus.h ****   *         @arg @ref LL_APB1_GRP1_PERIPH_TIM2
 689:C:/Users/nace/OneDrive/Desktop/STM32/Projects_nace/NUCLEO_LL_Project_LCD/STM32_template_proj/Drivers/STM32F1xx_HAL_Driver/Inc\stm32f1xx_ll_bus.h ****   *         @arg @ref LL_APB1_GRP1_PERIPH_TIM3
 690:C:/Users/nace/OneDrive/Desktop/STM32/Projects_nace/NUCLEO_LL_Project_LCD/STM32_template_proj/Drivers/STM32F1xx_HAL_Driver/Inc\stm32f1xx_ll_bus.h ****   *         @arg @ref LL_APB1_GRP1_PERIPH_TIM4 (*)
 691:C:/Users/nace/OneDrive/Desktop/STM32/Projects_nace/NUCLEO_LL_Project_LCD/STM32_template_proj/Drivers/STM32F1xx_HAL_Driver/Inc\stm32f1xx_ll_bus.h ****   *         @arg @ref LL_APB1_GRP1_PERIPH_TIM5 (*)
 692:C:/Users/nace/OneDrive/Desktop/STM32/Projects_nace/NUCLEO_LL_Project_LCD/STM32_template_proj/Drivers/STM32F1xx_HAL_Driver/Inc\stm32f1xx_ll_bus.h ****   *         @arg @ref LL_APB1_GRP1_PERIPH_TIM6 (*)
 693:C:/Users/nace/OneDrive/Desktop/STM32/Projects_nace/NUCLEO_LL_Project_LCD/STM32_template_proj/Drivers/STM32F1xx_HAL_Driver/Inc\stm32f1xx_ll_bus.h ****   *         @arg @ref LL_APB1_GRP1_PERIPH_TIM7 (*)
 694:C:/Users/nace/OneDrive/Desktop/STM32/Projects_nace/NUCLEO_LL_Project_LCD/STM32_template_proj/Drivers/STM32F1xx_HAL_Driver/Inc\stm32f1xx_ll_bus.h ****   *         @arg @ref LL_APB1_GRP1_PERIPH_UART4 (*)
 695:C:/Users/nace/OneDrive/Desktop/STM32/Projects_nace/NUCLEO_LL_Project_LCD/STM32_template_proj/Drivers/STM32F1xx_HAL_Driver/Inc\stm32f1xx_ll_bus.h ****   *         @arg @ref LL_APB1_GRP1_PERIPH_UART5 (*)
 696:C:/Users/nace/OneDrive/Desktop/STM32/Projects_nace/NUCLEO_LL_Project_LCD/STM32_template_proj/Drivers/STM32F1xx_HAL_Driver/Inc\stm32f1xx_ll_bus.h ****   *         @arg @ref LL_APB1_GRP1_PERIPH_USART2
 697:C:/Users/nace/OneDrive/Desktop/STM32/Projects_nace/NUCLEO_LL_Project_LCD/STM32_template_proj/Drivers/STM32F1xx_HAL_Driver/Inc\stm32f1xx_ll_bus.h ****   *         @arg @ref LL_APB1_GRP1_PERIPH_USART3 (*)
 698:C:/Users/nace/OneDrive/Desktop/STM32/Projects_nace/NUCLEO_LL_Project_LCD/STM32_template_proj/Drivers/STM32F1xx_HAL_Driver/Inc\stm32f1xx_ll_bus.h ****   *         @arg @ref LL_APB1_GRP1_PERIPH_USB (*)
 699:C:/Users/nace/OneDrive/Desktop/STM32/Projects_nace/NUCLEO_LL_Project_LCD/STM32_template_proj/Drivers/STM32F1xx_HAL_Driver/Inc\stm32f1xx_ll_bus.h ****   *         @arg @ref LL_APB1_GRP1_PERIPH_WWDG
 700:C:/Users/nace/OneDrive/Desktop/STM32/Projects_nace/NUCLEO_LL_Project_LCD/STM32_template_proj/Drivers/STM32F1xx_HAL_Driver/Inc\stm32f1xx_ll_bus.h ****   *
 701:C:/Users/nace/OneDrive/Desktop/STM32/Projects_nace/NUCLEO_LL_Project_LCD/STM32_template_proj/Drivers/STM32F1xx_HAL_Driver/Inc\stm32f1xx_ll_bus.h ****   *         (*) value not defined in all devices.
 702:C:/Users/nace/OneDrive/Desktop/STM32/Projects_nace/NUCLEO_LL_Project_LCD/STM32_template_proj/Drivers/STM32F1xx_HAL_Driver/Inc\stm32f1xx_ll_bus.h ****   * @retval None
 703:C:/Users/nace/OneDrive/Desktop/STM32/Projects_nace/NUCLEO_LL_Project_LCD/STM32_template_proj/Drivers/STM32F1xx_HAL_Driver/Inc\stm32f1xx_ll_bus.h **** */
 704:C:/Users/nace/OneDrive/Desktop/STM32/Projects_nace/NUCLEO_LL_Project_LCD/STM32_template_proj/Drivers/STM32F1xx_HAL_Driver/Inc\stm32f1xx_ll_bus.h **** __STATIC_INLINE void LL_APB1_GRP1_ReleaseReset(uint32_t Periphs)
 705:C:/Users/nace/OneDrive/Desktop/STM32/Projects_nace/NUCLEO_LL_Project_LCD/STM32_template_proj/Drivers/STM32F1xx_HAL_Driver/Inc\stm32f1xx_ll_bus.h **** {
 706:C:/Users/nace/OneDrive/Desktop/STM32/Projects_nace/NUCLEO_LL_Project_LCD/STM32_template_proj/Drivers/STM32F1xx_HAL_Driver/Inc\stm32f1xx_ll_bus.h ****   CLEAR_BIT(RCC->APB1RSTR, Periphs);
 707:C:/Users/nace/OneDrive/Desktop/STM32/Projects_nace/NUCLEO_LL_Project_LCD/STM32_template_proj/Drivers/STM32F1xx_HAL_Driver/Inc\stm32f1xx_ll_bus.h **** }
 708:C:/Users/nace/OneDrive/Desktop/STM32/Projects_nace/NUCLEO_LL_Project_LCD/STM32_template_proj/Drivers/STM32F1xx_HAL_Driver/Inc\stm32f1xx_ll_bus.h **** 
 709:C:/Users/nace/OneDrive/Desktop/STM32/Projects_nace/NUCLEO_LL_Project_LCD/STM32_template_proj/Drivers/STM32F1xx_HAL_Driver/Inc\stm32f1xx_ll_bus.h **** /**
 710:C:/Users/nace/OneDrive/Desktop/STM32/Projects_nace/NUCLEO_LL_Project_LCD/STM32_template_proj/Drivers/STM32F1xx_HAL_Driver/Inc\stm32f1xx_ll_bus.h ****   * @}
 711:C:/Users/nace/OneDrive/Desktop/STM32/Projects_nace/NUCLEO_LL_Project_LCD/STM32_template_proj/Drivers/STM32F1xx_HAL_Driver/Inc\stm32f1xx_ll_bus.h ****   */
 712:C:/Users/nace/OneDrive/Desktop/STM32/Projects_nace/NUCLEO_LL_Project_LCD/STM32_template_proj/Drivers/STM32F1xx_HAL_Driver/Inc\stm32f1xx_ll_bus.h **** 
 713:C:/Users/nace/OneDrive/Desktop/STM32/Projects_nace/NUCLEO_LL_Project_LCD/STM32_template_proj/Drivers/STM32F1xx_HAL_Driver/Inc\stm32f1xx_ll_bus.h **** /** @defgroup BUS_LL_EF_APB2 APB2
 714:C:/Users/nace/OneDrive/Desktop/STM32/Projects_nace/NUCLEO_LL_Project_LCD/STM32_template_proj/Drivers/STM32F1xx_HAL_Driver/Inc\stm32f1xx_ll_bus.h ****   * @{
 715:C:/Users/nace/OneDrive/Desktop/STM32/Projects_nace/NUCLEO_LL_Project_LCD/STM32_template_proj/Drivers/STM32F1xx_HAL_Driver/Inc\stm32f1xx_ll_bus.h ****   */
 716:C:/Users/nace/OneDrive/Desktop/STM32/Projects_nace/NUCLEO_LL_Project_LCD/STM32_template_proj/Drivers/STM32F1xx_HAL_Driver/Inc\stm32f1xx_ll_bus.h **** 
 717:C:/Users/nace/OneDrive/Desktop/STM32/Projects_nace/NUCLEO_LL_Project_LCD/STM32_template_proj/Drivers/STM32F1xx_HAL_Driver/Inc\stm32f1xx_ll_bus.h **** /**
 718:C:/Users/nace/OneDrive/Desktop/STM32/Projects_nace/NUCLEO_LL_Project_LCD/STM32_template_proj/Drivers/STM32F1xx_HAL_Driver/Inc\stm32f1xx_ll_bus.h ****   * @brief  Enable APB2 peripherals clock.
 719:C:/Users/nace/OneDrive/Desktop/STM32/Projects_nace/NUCLEO_LL_Project_LCD/STM32_template_proj/Drivers/STM32F1xx_HAL_Driver/Inc\stm32f1xx_ll_bus.h ****   * @rmtoll APB2ENR      ADC1EN        LL_APB2_GRP1_EnableClock\n
 720:C:/Users/nace/OneDrive/Desktop/STM32/Projects_nace/NUCLEO_LL_Project_LCD/STM32_template_proj/Drivers/STM32F1xx_HAL_Driver/Inc\stm32f1xx_ll_bus.h ****   *         APB2ENR      ADC2EN        LL_APB2_GRP1_EnableClock\n
 721:C:/Users/nace/OneDrive/Desktop/STM32/Projects_nace/NUCLEO_LL_Project_LCD/STM32_template_proj/Drivers/STM32F1xx_HAL_Driver/Inc\stm32f1xx_ll_bus.h ****   *         APB2ENR      ADC3EN        LL_APB2_GRP1_EnableClock\n
 722:C:/Users/nace/OneDrive/Desktop/STM32/Projects_nace/NUCLEO_LL_Project_LCD/STM32_template_proj/Drivers/STM32F1xx_HAL_Driver/Inc\stm32f1xx_ll_bus.h ****   *         APB2ENR      AFIOEN        LL_APB2_GRP1_EnableClock\n
 723:C:/Users/nace/OneDrive/Desktop/STM32/Projects_nace/NUCLEO_LL_Project_LCD/STM32_template_proj/Drivers/STM32F1xx_HAL_Driver/Inc\stm32f1xx_ll_bus.h ****   *         APB2ENR      IOPAEN        LL_APB2_GRP1_EnableClock\n
 724:C:/Users/nace/OneDrive/Desktop/STM32/Projects_nace/NUCLEO_LL_Project_LCD/STM32_template_proj/Drivers/STM32F1xx_HAL_Driver/Inc\stm32f1xx_ll_bus.h ****   *         APB2ENR      IOPBEN        LL_APB2_GRP1_EnableClock\n
 725:C:/Users/nace/OneDrive/Desktop/STM32/Projects_nace/NUCLEO_LL_Project_LCD/STM32_template_proj/Drivers/STM32F1xx_HAL_Driver/Inc\stm32f1xx_ll_bus.h ****   *         APB2ENR      IOPCEN        LL_APB2_GRP1_EnableClock\n
 726:C:/Users/nace/OneDrive/Desktop/STM32/Projects_nace/NUCLEO_LL_Project_LCD/STM32_template_proj/Drivers/STM32F1xx_HAL_Driver/Inc\stm32f1xx_ll_bus.h ****   *         APB2ENR      IOPDEN        LL_APB2_GRP1_EnableClock\n
 727:C:/Users/nace/OneDrive/Desktop/STM32/Projects_nace/NUCLEO_LL_Project_LCD/STM32_template_proj/Drivers/STM32F1xx_HAL_Driver/Inc\stm32f1xx_ll_bus.h ****   *         APB2ENR      IOPEEN        LL_APB2_GRP1_EnableClock\n
 728:C:/Users/nace/OneDrive/Desktop/STM32/Projects_nace/NUCLEO_LL_Project_LCD/STM32_template_proj/Drivers/STM32F1xx_HAL_Driver/Inc\stm32f1xx_ll_bus.h ****   *         APB2ENR      IOPFEN        LL_APB2_GRP1_EnableClock\n
 729:C:/Users/nace/OneDrive/Desktop/STM32/Projects_nace/NUCLEO_LL_Project_LCD/STM32_template_proj/Drivers/STM32F1xx_HAL_Driver/Inc\stm32f1xx_ll_bus.h ****   *         APB2ENR      IOPGEN        LL_APB2_GRP1_EnableClock\n
 730:C:/Users/nace/OneDrive/Desktop/STM32/Projects_nace/NUCLEO_LL_Project_LCD/STM32_template_proj/Drivers/STM32F1xx_HAL_Driver/Inc\stm32f1xx_ll_bus.h ****   *         APB2ENR      SPI1EN        LL_APB2_GRP1_EnableClock\n
 731:C:/Users/nace/OneDrive/Desktop/STM32/Projects_nace/NUCLEO_LL_Project_LCD/STM32_template_proj/Drivers/STM32F1xx_HAL_Driver/Inc\stm32f1xx_ll_bus.h ****   *         APB2ENR      TIM10EN       LL_APB2_GRP1_EnableClock\n
 732:C:/Users/nace/OneDrive/Desktop/STM32/Projects_nace/NUCLEO_LL_Project_LCD/STM32_template_proj/Drivers/STM32F1xx_HAL_Driver/Inc\stm32f1xx_ll_bus.h ****   *         APB2ENR      TIM11EN       LL_APB2_GRP1_EnableClock\n
 733:C:/Users/nace/OneDrive/Desktop/STM32/Projects_nace/NUCLEO_LL_Project_LCD/STM32_template_proj/Drivers/STM32F1xx_HAL_Driver/Inc\stm32f1xx_ll_bus.h ****   *         APB2ENR      TIM15EN       LL_APB2_GRP1_EnableClock\n
 734:C:/Users/nace/OneDrive/Desktop/STM32/Projects_nace/NUCLEO_LL_Project_LCD/STM32_template_proj/Drivers/STM32F1xx_HAL_Driver/Inc\stm32f1xx_ll_bus.h ****   *         APB2ENR      TIM16EN       LL_APB2_GRP1_EnableClock\n
 735:C:/Users/nace/OneDrive/Desktop/STM32/Projects_nace/NUCLEO_LL_Project_LCD/STM32_template_proj/Drivers/STM32F1xx_HAL_Driver/Inc\stm32f1xx_ll_bus.h ****   *         APB2ENR      TIM17EN       LL_APB2_GRP1_EnableClock\n
 736:C:/Users/nace/OneDrive/Desktop/STM32/Projects_nace/NUCLEO_LL_Project_LCD/STM32_template_proj/Drivers/STM32F1xx_HAL_Driver/Inc\stm32f1xx_ll_bus.h ****   *         APB2ENR      TIM1EN        LL_APB2_GRP1_EnableClock\n
 737:C:/Users/nace/OneDrive/Desktop/STM32/Projects_nace/NUCLEO_LL_Project_LCD/STM32_template_proj/Drivers/STM32F1xx_HAL_Driver/Inc\stm32f1xx_ll_bus.h ****   *         APB2ENR      TIM8EN        LL_APB2_GRP1_EnableClock\n
 738:C:/Users/nace/OneDrive/Desktop/STM32/Projects_nace/NUCLEO_LL_Project_LCD/STM32_template_proj/Drivers/STM32F1xx_HAL_Driver/Inc\stm32f1xx_ll_bus.h ****   *         APB2ENR      TIM9EN        LL_APB2_GRP1_EnableClock\n
 739:C:/Users/nace/OneDrive/Desktop/STM32/Projects_nace/NUCLEO_LL_Project_LCD/STM32_template_proj/Drivers/STM32F1xx_HAL_Driver/Inc\stm32f1xx_ll_bus.h ****   *         APB2ENR      USART1EN      LL_APB2_GRP1_EnableClock
 740:C:/Users/nace/OneDrive/Desktop/STM32/Projects_nace/NUCLEO_LL_Project_LCD/STM32_template_proj/Drivers/STM32F1xx_HAL_Driver/Inc\stm32f1xx_ll_bus.h ****   * @param  Periphs This parameter can be a combination of the following values:
 741:C:/Users/nace/OneDrive/Desktop/STM32/Projects_nace/NUCLEO_LL_Project_LCD/STM32_template_proj/Drivers/STM32F1xx_HAL_Driver/Inc\stm32f1xx_ll_bus.h ****   *         @arg @ref LL_APB2_GRP1_PERIPH_ADC1
 742:C:/Users/nace/OneDrive/Desktop/STM32/Projects_nace/NUCLEO_LL_Project_LCD/STM32_template_proj/Drivers/STM32F1xx_HAL_Driver/Inc\stm32f1xx_ll_bus.h ****   *         @arg @ref LL_APB2_GRP1_PERIPH_ADC2 (*)
 743:C:/Users/nace/OneDrive/Desktop/STM32/Projects_nace/NUCLEO_LL_Project_LCD/STM32_template_proj/Drivers/STM32F1xx_HAL_Driver/Inc\stm32f1xx_ll_bus.h ****   *         @arg @ref LL_APB2_GRP1_PERIPH_ADC3 (*)
 744:C:/Users/nace/OneDrive/Desktop/STM32/Projects_nace/NUCLEO_LL_Project_LCD/STM32_template_proj/Drivers/STM32F1xx_HAL_Driver/Inc\stm32f1xx_ll_bus.h ****   *         @arg @ref LL_APB2_GRP1_PERIPH_AFIO
 745:C:/Users/nace/OneDrive/Desktop/STM32/Projects_nace/NUCLEO_LL_Project_LCD/STM32_template_proj/Drivers/STM32F1xx_HAL_Driver/Inc\stm32f1xx_ll_bus.h ****   *         @arg @ref LL_APB2_GRP1_PERIPH_GPIOA
 746:C:/Users/nace/OneDrive/Desktop/STM32/Projects_nace/NUCLEO_LL_Project_LCD/STM32_template_proj/Drivers/STM32F1xx_HAL_Driver/Inc\stm32f1xx_ll_bus.h ****   *         @arg @ref LL_APB2_GRP1_PERIPH_GPIOB
 747:C:/Users/nace/OneDrive/Desktop/STM32/Projects_nace/NUCLEO_LL_Project_LCD/STM32_template_proj/Drivers/STM32F1xx_HAL_Driver/Inc\stm32f1xx_ll_bus.h ****   *         @arg @ref LL_APB2_GRP1_PERIPH_GPIOC
 748:C:/Users/nace/OneDrive/Desktop/STM32/Projects_nace/NUCLEO_LL_Project_LCD/STM32_template_proj/Drivers/STM32F1xx_HAL_Driver/Inc\stm32f1xx_ll_bus.h ****   *         @arg @ref LL_APB2_GRP1_PERIPH_GPIOD
 749:C:/Users/nace/OneDrive/Desktop/STM32/Projects_nace/NUCLEO_LL_Project_LCD/STM32_template_proj/Drivers/STM32F1xx_HAL_Driver/Inc\stm32f1xx_ll_bus.h ****   *         @arg @ref LL_APB2_GRP1_PERIPH_GPIOE (*)
 750:C:/Users/nace/OneDrive/Desktop/STM32/Projects_nace/NUCLEO_LL_Project_LCD/STM32_template_proj/Drivers/STM32F1xx_HAL_Driver/Inc\stm32f1xx_ll_bus.h ****   *         @arg @ref LL_APB2_GRP1_PERIPH_GPIOF (*)
 751:C:/Users/nace/OneDrive/Desktop/STM32/Projects_nace/NUCLEO_LL_Project_LCD/STM32_template_proj/Drivers/STM32F1xx_HAL_Driver/Inc\stm32f1xx_ll_bus.h ****   *         @arg @ref LL_APB2_GRP1_PERIPH_GPIOG (*)
 752:C:/Users/nace/OneDrive/Desktop/STM32/Projects_nace/NUCLEO_LL_Project_LCD/STM32_template_proj/Drivers/STM32F1xx_HAL_Driver/Inc\stm32f1xx_ll_bus.h ****   *         @arg @ref LL_APB2_GRP1_PERIPH_SPI1
 753:C:/Users/nace/OneDrive/Desktop/STM32/Projects_nace/NUCLEO_LL_Project_LCD/STM32_template_proj/Drivers/STM32F1xx_HAL_Driver/Inc\stm32f1xx_ll_bus.h ****   *         @arg @ref LL_APB2_GRP1_PERIPH_TIM10 (*)
 754:C:/Users/nace/OneDrive/Desktop/STM32/Projects_nace/NUCLEO_LL_Project_LCD/STM32_template_proj/Drivers/STM32F1xx_HAL_Driver/Inc\stm32f1xx_ll_bus.h ****   *         @arg @ref LL_APB2_GRP1_PERIPH_TIM11 (*)
 755:C:/Users/nace/OneDrive/Desktop/STM32/Projects_nace/NUCLEO_LL_Project_LCD/STM32_template_proj/Drivers/STM32F1xx_HAL_Driver/Inc\stm32f1xx_ll_bus.h ****   *         @arg @ref LL_APB2_GRP1_PERIPH_TIM15 (*)
 756:C:/Users/nace/OneDrive/Desktop/STM32/Projects_nace/NUCLEO_LL_Project_LCD/STM32_template_proj/Drivers/STM32F1xx_HAL_Driver/Inc\stm32f1xx_ll_bus.h ****   *         @arg @ref LL_APB2_GRP1_PERIPH_TIM16 (*)
 757:C:/Users/nace/OneDrive/Desktop/STM32/Projects_nace/NUCLEO_LL_Project_LCD/STM32_template_proj/Drivers/STM32F1xx_HAL_Driver/Inc\stm32f1xx_ll_bus.h ****   *         @arg @ref LL_APB2_GRP1_PERIPH_TIM17 (*)
 758:C:/Users/nace/OneDrive/Desktop/STM32/Projects_nace/NUCLEO_LL_Project_LCD/STM32_template_proj/Drivers/STM32F1xx_HAL_Driver/Inc\stm32f1xx_ll_bus.h ****   *         @arg @ref LL_APB2_GRP1_PERIPH_TIM1
 759:C:/Users/nace/OneDrive/Desktop/STM32/Projects_nace/NUCLEO_LL_Project_LCD/STM32_template_proj/Drivers/STM32F1xx_HAL_Driver/Inc\stm32f1xx_ll_bus.h ****   *         @arg @ref LL_APB2_GRP1_PERIPH_TIM8 (*)
 760:C:/Users/nace/OneDrive/Desktop/STM32/Projects_nace/NUCLEO_LL_Project_LCD/STM32_template_proj/Drivers/STM32F1xx_HAL_Driver/Inc\stm32f1xx_ll_bus.h ****   *         @arg @ref LL_APB2_GRP1_PERIPH_TIM9 (*)
 761:C:/Users/nace/OneDrive/Desktop/STM32/Projects_nace/NUCLEO_LL_Project_LCD/STM32_template_proj/Drivers/STM32F1xx_HAL_Driver/Inc\stm32f1xx_ll_bus.h ****   *         @arg @ref LL_APB2_GRP1_PERIPH_USART1
 762:C:/Users/nace/OneDrive/Desktop/STM32/Projects_nace/NUCLEO_LL_Project_LCD/STM32_template_proj/Drivers/STM32F1xx_HAL_Driver/Inc\stm32f1xx_ll_bus.h ****   *
 763:C:/Users/nace/OneDrive/Desktop/STM32/Projects_nace/NUCLEO_LL_Project_LCD/STM32_template_proj/Drivers/STM32F1xx_HAL_Driver/Inc\stm32f1xx_ll_bus.h ****   *         (*) value not defined in all devices.
 764:C:/Users/nace/OneDrive/Desktop/STM32/Projects_nace/NUCLEO_LL_Project_LCD/STM32_template_proj/Drivers/STM32F1xx_HAL_Driver/Inc\stm32f1xx_ll_bus.h ****   * @retval None
 765:C:/Users/nace/OneDrive/Desktop/STM32/Projects_nace/NUCLEO_LL_Project_LCD/STM32_template_proj/Drivers/STM32F1xx_HAL_Driver/Inc\stm32f1xx_ll_bus.h **** */
 766:C:/Users/nace/OneDrive/Desktop/STM32/Projects_nace/NUCLEO_LL_Project_LCD/STM32_template_proj/Drivers/STM32F1xx_HAL_Driver/Inc\stm32f1xx_ll_bus.h **** __STATIC_INLINE void LL_APB2_GRP1_EnableClock(uint32_t Periphs)
  46              		.loc 2 766 22 view .LVU3
  47              	.LBB19:
 767:C:/Users/nace/OneDrive/Desktop/STM32/Projects_nace/NUCLEO_LL_Project_LCD/STM32_template_proj/Drivers/STM32F1xx_HAL_Driver/Inc\stm32f1xx_ll_bus.h **** {
 768:C:/Users/nace/OneDrive/Desktop/STM32/Projects_nace/NUCLEO_LL_Project_LCD/STM32_template_proj/Drivers/STM32F1xx_HAL_Driver/Inc\stm32f1xx_ll_bus.h ****   __IO uint32_t tmpreg;
  48              		.loc 2 768 3 view .LVU4
 769:C:/Users/nace/OneDrive/Desktop/STM32/Projects_nace/NUCLEO_LL_Project_LCD/STM32_template_proj/Drivers/STM32F1xx_HAL_Driver/Inc\stm32f1xx_ll_bus.h ****   SET_BIT(RCC->APB2ENR, Periphs);
  49              		.loc 2 769 3 view .LVU5
  50 0008 1F4C     		ldr	r4, .L5
  51 000a A569     		ldr	r5, [r4, #24]
  52 000c 45F00405 		orr	r5, r5, #4
  53 0010 A561     		str	r5, [r4, #24]
  54              	.LVL2:
 770:C:/Users/nace/OneDrive/Desktop/STM32/Projects_nace/NUCLEO_LL_Project_LCD/STM32_template_proj/Drivers/STM32F1xx_HAL_Driver/Inc\stm32f1xx_ll_bus.h ****   /* Delay after an RCC peripheral clock enabling */
 771:C:/Users/nace/OneDrive/Desktop/STM32/Projects_nace/NUCLEO_LL_Project_LCD/STM32_template_proj/Drivers/STM32F1xx_HAL_Driver/Inc\stm32f1xx_ll_bus.h ****   tmpreg = READ_BIT(RCC->APB2ENR, Periphs);
  55              		.loc 2 771 3 view .LVU6
  56              		.loc 2 771 12 is_stmt 0 view .LVU7
  57 0012 A569     		ldr	r5, [r4, #24]
  58 0014 05F00405 		and	r5, r5, #4
  59              		.loc 2 771 10 view .LVU8
  60 0018 0495     		str	r5, [sp, #16]
 772:C:/Users/nace/OneDrive/Desktop/STM32/Projects_nace/NUCLEO_LL_Project_LCD/STM32_template_proj/Drivers/STM32F1xx_HAL_Driver/Inc\stm32f1xx_ll_bus.h ****   (void)tmpreg;
  61              		.loc 2 772 3 is_stmt 1 view .LVU9
  62 001a 049D     		ldr	r5, [sp, #16]
  63              	.LVL3:
  64              		.loc 2 772 3 is_stmt 0 view .LVU10
  65              	.LBE19:
  66              	.LBE18:
  16:C:/Users/nace/OneDrive/Desktop/STM32/Projects_nace/NUCLEO_LL_Project_LCD/STM32_template_proj/Core/Src\nt_gpio.c ****     LL_APB2_GRP1_EnableClock(LL_APB2_GRP1_PERIPH_GPIOB);
  67              		.loc 1 16 5 is_stmt 1 view .LVU11
  68              	.LBB20:
  69              	.LBI20:
 766:C:/Users/nace/OneDrive/Desktop/STM32/Projects_nace/NUCLEO_LL_Project_LCD/STM32_template_proj/Drivers/STM32F1xx_HAL_Driver/Inc\stm32f1xx_ll_bus.h **** {
  70              		.loc 2 766 22 view .LVU12
  71              	.LBB21:
 768:C:/Users/nace/OneDrive/Desktop/STM32/Projects_nace/NUCLEO_LL_Project_LCD/STM32_template_proj/Drivers/STM32F1xx_HAL_Driver/Inc\stm32f1xx_ll_bus.h ****   SET_BIT(RCC->APB2ENR, Periphs);
  72              		.loc 2 768 3 view .LVU13
 769:C:/Users/nace/OneDrive/Desktop/STM32/Projects_nace/NUCLEO_LL_Project_LCD/STM32_template_proj/Drivers/STM32F1xx_HAL_Driver/Inc\stm32f1xx_ll_bus.h ****   /* Delay after an RCC peripheral clock enabling */
  73              		.loc 2 769 3 view .LVU14
  74 001c A569     		ldr	r5, [r4, #24]
  75 001e 45F00805 		orr	r5, r5, #8
  76 0022 A561     		str	r5, [r4, #24]
 771:C:/Users/nace/OneDrive/Desktop/STM32/Projects_nace/NUCLEO_LL_Project_LCD/STM32_template_proj/Drivers/STM32F1xx_HAL_Driver/Inc\stm32f1xx_ll_bus.h ****   (void)tmpreg;
  77              		.loc 2 771 3 view .LVU15
 771:C:/Users/nace/OneDrive/Desktop/STM32/Projects_nace/NUCLEO_LL_Project_LCD/STM32_template_proj/Drivers/STM32F1xx_HAL_Driver/Inc\stm32f1xx_ll_bus.h ****   (void)tmpreg;
  78              		.loc 2 771 12 is_stmt 0 view .LVU16
  79 0024 A569     		ldr	r5, [r4, #24]
  80 0026 05F00805 		and	r5, r5, #8
 771:C:/Users/nace/OneDrive/Desktop/STM32/Projects_nace/NUCLEO_LL_Project_LCD/STM32_template_proj/Drivers/STM32F1xx_HAL_Driver/Inc\stm32f1xx_ll_bus.h ****   (void)tmpreg;
  81              		.loc 2 771 10 view .LVU17
  82 002a 0395     		str	r5, [sp, #12]
  83              		.loc 2 772 3 is_stmt 1 view .LVU18
  84 002c 039D     		ldr	r5, [sp, #12]
  85              	.LVL4:
  86              		.loc 2 772 3 is_stmt 0 view .LVU19
  87              	.LBE21:
  88              	.LBE20:
  17:C:/Users/nace/OneDrive/Desktop/STM32/Projects_nace/NUCLEO_LL_Project_LCD/STM32_template_proj/Core/Src\nt_gpio.c ****     LL_APB2_GRP1_EnableClock(LL_APB2_GRP1_PERIPH_GPIOC);
  89              		.loc 1 17 5 is_stmt 1 view .LVU20
  90              	.LBB22:
  91              	.LBI22:
 766:C:/Users/nace/OneDrive/Desktop/STM32/Projects_nace/NUCLEO_LL_Project_LCD/STM32_template_proj/Drivers/STM32F1xx_HAL_Driver/Inc\stm32f1xx_ll_bus.h **** {
  92              		.loc 2 766 22 view .LVU21
  93              	.LBB23:
 768:C:/Users/nace/OneDrive/Desktop/STM32/Projects_nace/NUCLEO_LL_Project_LCD/STM32_template_proj/Drivers/STM32F1xx_HAL_Driver/Inc\stm32f1xx_ll_bus.h ****   SET_BIT(RCC->APB2ENR, Periphs);
  94              		.loc 2 768 3 view .LVU22
 769:C:/Users/nace/OneDrive/Desktop/STM32/Projects_nace/NUCLEO_LL_Project_LCD/STM32_template_proj/Drivers/STM32F1xx_HAL_Driver/Inc\stm32f1xx_ll_bus.h ****   /* Delay after an RCC peripheral clock enabling */
  95              		.loc 2 769 3 view .LVU23
  96 002e A569     		ldr	r5, [r4, #24]
  97 0030 45F01005 		orr	r5, r5, #16
  98 0034 A561     		str	r5, [r4, #24]
 771:C:/Users/nace/OneDrive/Desktop/STM32/Projects_nace/NUCLEO_LL_Project_LCD/STM32_template_proj/Drivers/STM32F1xx_HAL_Driver/Inc\stm32f1xx_ll_bus.h ****   (void)tmpreg;
  99              		.loc 2 771 3 view .LVU24
 771:C:/Users/nace/OneDrive/Desktop/STM32/Projects_nace/NUCLEO_LL_Project_LCD/STM32_template_proj/Drivers/STM32F1xx_HAL_Driver/Inc\stm32f1xx_ll_bus.h ****   (void)tmpreg;
 100              		.loc 2 771 12 is_stmt 0 view .LVU25
 101 0036 A569     		ldr	r5, [r4, #24]
 102 0038 05F01005 		and	r5, r5, #16
 771:C:/Users/nace/OneDrive/Desktop/STM32/Projects_nace/NUCLEO_LL_Project_LCD/STM32_template_proj/Drivers/STM32F1xx_HAL_Driver/Inc\stm32f1xx_ll_bus.h ****   (void)tmpreg;
 103              		.loc 2 771 10 view .LVU26
 104 003c 0295     		str	r5, [sp, #8]
 105              		.loc 2 772 3 is_stmt 1 view .LVU27
 106 003e 029D     		ldr	r5, [sp, #8]
 107              	.LVL5:
 108              		.loc 2 772 3 is_stmt 0 view .LVU28
 109              	.LBE23:
 110              	.LBE22:
  18:C:/Users/nace/OneDrive/Desktop/STM32/Projects_nace/NUCLEO_LL_Project_LCD/STM32_template_proj/Core/Src\nt_gpio.c ****     LL_APB2_GRP1_EnableClock(LL_APB2_GRP1_PERIPH_GPIOD);
 111              		.loc 1 18 5 is_stmt 1 view .LVU29
 112              	.LBB24:
 113              	.LBI24:
 766:C:/Users/nace/OneDrive/Desktop/STM32/Projects_nace/NUCLEO_LL_Project_LCD/STM32_template_proj/Drivers/STM32F1xx_HAL_Driver/Inc\stm32f1xx_ll_bus.h **** {
 114              		.loc 2 766 22 view .LVU30
 115              	.LBB25:
 768:C:/Users/nace/OneDrive/Desktop/STM32/Projects_nace/NUCLEO_LL_Project_LCD/STM32_template_proj/Drivers/STM32F1xx_HAL_Driver/Inc\stm32f1xx_ll_bus.h ****   SET_BIT(RCC->APB2ENR, Periphs);
 116              		.loc 2 768 3 view .LVU31
 769:C:/Users/nace/OneDrive/Desktop/STM32/Projects_nace/NUCLEO_LL_Project_LCD/STM32_template_proj/Drivers/STM32F1xx_HAL_Driver/Inc\stm32f1xx_ll_bus.h ****   /* Delay after an RCC peripheral clock enabling */
 117              		.loc 2 769 3 view .LVU32
 118 0040 A569     		ldr	r5, [r4, #24]
 119 0042 45F02005 		orr	r5, r5, #32
 120 0046 A561     		str	r5, [r4, #24]
 771:C:/Users/nace/OneDrive/Desktop/STM32/Projects_nace/NUCLEO_LL_Project_LCD/STM32_template_proj/Drivers/STM32F1xx_HAL_Driver/Inc\stm32f1xx_ll_bus.h ****   (void)tmpreg;
 121              		.loc 2 771 3 view .LVU33
 771:C:/Users/nace/OneDrive/Desktop/STM32/Projects_nace/NUCLEO_LL_Project_LCD/STM32_template_proj/Drivers/STM32F1xx_HAL_Driver/Inc\stm32f1xx_ll_bus.h ****   (void)tmpreg;
 122              		.loc 2 771 12 is_stmt 0 view .LVU34
 123 0048 A469     		ldr	r4, [r4, #24]
 124 004a 04F02004 		and	r4, r4, #32
 771:C:/Users/nace/OneDrive/Desktop/STM32/Projects_nace/NUCLEO_LL_Project_LCD/STM32_template_proj/Drivers/STM32F1xx_HAL_Driver/Inc\stm32f1xx_ll_bus.h ****   (void)tmpreg;
 125              		.loc 2 771 10 view .LVU35
 126 004e 0194     		str	r4, [sp, #4]
 127              		.loc 2 772 3 is_stmt 1 view .LVU36
 128 0050 019C     		ldr	r4, [sp, #4]
 129              	.LVL6:
 130              		.loc 2 772 3 is_stmt 0 view .LVU37
 131              	.LBE25:
 132              	.LBE24:
  19:C:/Users/nace/OneDrive/Desktop/STM32/Projects_nace/NUCLEO_LL_Project_LCD/STM32_template_proj/Core/Src\nt_gpio.c **** 
  20:C:/Users/nace/OneDrive/Desktop/STM32/Projects_nace/NUCLEO_LL_Project_LCD/STM32_template_proj/Core/Src\nt_gpio.c ****     //LL_APB2_GRP1_EnableClock(LL_APB2_GRP1_PERIPH_AFIO);
  21:C:/Users/nace/OneDrive/Desktop/STM32/Projects_nace/NUCLEO_LL_Project_LCD/STM32_template_proj/Core/Src\nt_gpio.c ****     //LL_APB1_GRP1_EnableClock(LL_APB1_GRP1_PERIPH_PWR);
  22:C:/Users/nace/OneDrive/Desktop/STM32/Projects_nace/NUCLEO_LL_Project_LCD/STM32_template_proj/Core/Src\nt_gpio.c ****     
  23:C:/Users/nace/OneDrive/Desktop/STM32/Projects_nace/NUCLEO_LL_Project_LCD/STM32_template_proj/Core/Src\nt_gpio.c ****     pin_def->port = port;
 133              		.loc 1 23 5 is_stmt 1 view .LVU38
 134              		.loc 1 23 19 is_stmt 0 view .LVU39
 135 0052 0160     		str	r1, [r0]
  24:C:/Users/nace/OneDrive/Desktop/STM32/Projects_nace/NUCLEO_LL_Project_LCD/STM32_template_proj/Core/Src\nt_gpio.c ****     pin_def->pin = pin;
 136              		.loc 1 24 5 is_stmt 1 view .LVU40
 137              		.loc 1 24 18 is_stmt 0 view .LVU41
 138 0054 4260     		str	r2, [r0, #4]
  25:C:/Users/nace/OneDrive/Desktop/STM32/Projects_nace/NUCLEO_LL_Project_LCD/STM32_template_proj/Core/Src\nt_gpio.c **** 
  26:C:/Users/nace/OneDrive/Desktop/STM32/Projects_nace/NUCLEO_LL_Project_LCD/STM32_template_proj/Core/Src\nt_gpio.c ****     LL_GPIO_InitTypeDef gpio_init;
 139              		.loc 1 26 5 is_stmt 1 view .LVU42
  27:C:/Users/nace/OneDrive/Desktop/STM32/Projects_nace/NUCLEO_LL_Project_LCD/STM32_template_proj/Core/Src\nt_gpio.c **** 
  28:C:/Users/nace/OneDrive/Desktop/STM32/Projects_nace/NUCLEO_LL_Project_LCD/STM32_template_proj/Core/Src\nt_gpio.c ****     gpio_init.Pin = pin_def->pin;
 140              		.loc 1 28 5 view .LVU43
 141              		.loc 1 28 19 is_stmt 0 view .LVU44
 142 0056 0592     		str	r2, [sp, #20]
  29:C:/Users/nace/OneDrive/Desktop/STM32/Projects_nace/NUCLEO_LL_Project_LCD/STM32_template_proj/Core/Src\nt_gpio.c ****     gpio_init.Mode = mode;
 143              		.loc 1 29 5 is_stmt 1 view .LVU45
 144              		.loc 1 29 20 is_stmt 0 view .LVU46
 145 0058 0693     		str	r3, [sp, #24]
  30:C:/Users/nace/OneDrive/Desktop/STM32/Projects_nace/NUCLEO_LL_Project_LCD/STM32_template_proj/Core/Src\nt_gpio.c **** 
  31:C:/Users/nace/OneDrive/Desktop/STM32/Projects_nace/NUCLEO_LL_Project_LCD/STM32_template_proj/Core/Src\nt_gpio.c ****     switch (pin_type)
 146              		.loc 1 31 5 is_stmt 1 view .LVU47
 147 005a BCF1010F 		cmp	ip, #1
 148 005e 0DD0     		beq	.L2
 149 0060 BCF1020F 		cmp	ip, #2
 150 0064 04D1     		bne	.L3
  32:C:/Users/nace/OneDrive/Desktop/STM32/Projects_nace/NUCLEO_LL_Project_LCD/STM32_template_proj/Core/Src\nt_gpio.c ****     {
  33:C:/Users/nace/OneDrive/Desktop/STM32/Projects_nace/NUCLEO_LL_Project_LCD/STM32_template_proj/Core/Src\nt_gpio.c ****     case nt_Output:
  34:C:/Users/nace/OneDrive/Desktop/STM32/Projects_nace/NUCLEO_LL_Project_LCD/STM32_template_proj/Core/Src\nt_gpio.c ****         //preveri e je output as push-pull ali open drain in na podlagi tega doloi tudi pull-
  35:C:/Users/nace/OneDrive/Desktop/STM32/Projects_nace/NUCLEO_LL_Project_LCD/STM32_template_proj/Core/Src\nt_gpio.c ****         gpio_init.Speed = LL_GPIO_SPEED_FREQ_LOW;
 151              		.loc 1 35 9 view .LVU48
 152              		.loc 1 35 25 is_stmt 0 view .LVU49
 153 0066 0223     		movs	r3, #2
 154              	.LVL7:
 155              		.loc 1 35 25 view .LVU50
 156 0068 0793     		str	r3, [sp, #28]
  36:C:/Users/nace/OneDrive/Desktop/STM32/Projects_nace/NUCLEO_LL_Project_LCD/STM32_template_proj/Core/Src\nt_gpio.c ****         gpio_init.OutputType = LL_GPIO_OUTPUT_PUSHPULL;
 157              		.loc 1 36 9 is_stmt 1 view .LVU51
 158              		.loc 1 36 30 is_stmt 0 view .LVU52
 159 006a 0023     		movs	r3, #0
 160 006c 0893     		str	r3, [sp, #32]
  37:C:/Users/nace/OneDrive/Desktop/STM32/Projects_nace/NUCLEO_LL_Project_LCD/STM32_template_proj/Core/Src\nt_gpio.c ****         gpio_init.Pull = LL_GPIO_PULL_DOWN;
 161              		.loc 1 37 9 is_stmt 1 view .LVU53
 162              		.loc 1 37 24 is_stmt 0 view .LVU54
 163 006e 0993     		str	r3, [sp, #36]
  38:C:/Users/nace/OneDrive/Desktop/STM32/Projects_nace/NUCLEO_LL_Project_LCD/STM32_template_proj/Core/Src\nt_gpio.c ****         
  39:C:/Users/nace/OneDrive/Desktop/STM32/Projects_nace/NUCLEO_LL_Project_LCD/STM32_template_proj/Core/Src\nt_gpio.c ****         //gpio_init.Pull = LL_GPIO_PULL_UP;
  40:C:/Users/nace/OneDrive/Desktop/STM32/Projects_nace/NUCLEO_LL_Project_LCD/STM32_template_proj/Core/Src\nt_gpio.c ****         //gpio_init.OutputType = LL_GPIO_OUTPUT_OPENDRAIN;
  41:C:/Users/nace/OneDrive/Desktop/STM32/Projects_nace/NUCLEO_LL_Project_LCD/STM32_template_proj/Core/Src\nt_gpio.c ****         break;
 164              		.loc 1 41 9 is_stmt 1 view .LVU55
 165              	.L3:
  42:C:/Users/nace/OneDrive/Desktop/STM32/Projects_nace/NUCLEO_LL_Project_LCD/STM32_template_proj/Core/Src\nt_gpio.c **** 
  43:C:/Users/nace/OneDrive/Desktop/STM32/Projects_nace/NUCLEO_LL_Project_LCD/STM32_template_proj/Core/Src\nt_gpio.c ****     case nt_Input:
  44:C:/Users/nace/OneDrive/Desktop/STM32/Projects_nace/NUCLEO_LL_Project_LCD/STM32_template_proj/Core/Src\nt_gpio.c ****         gpio_init.Speed = LL_GPIO_SPEED_FREQ_LOW;
  45:C:/Users/nace/OneDrive/Desktop/STM32/Projects_nace/NUCLEO_LL_Project_LCD/STM32_template_proj/Core/Src\nt_gpio.c ****         gpio_init.Pull = LL_GPIO_PULL_UP;
  46:C:/Users/nace/OneDrive/Desktop/STM32/Projects_nace/NUCLEO_LL_Project_LCD/STM32_template_proj/Core/Src\nt_gpio.c ****         break;
  47:C:/Users/nace/OneDrive/Desktop/STM32/Projects_nace/NUCLEO_LL_Project_LCD/STM32_template_proj/Core/Src\nt_gpio.c **** 
  48:C:/Users/nace/OneDrive/Desktop/STM32/Projects_nace/NUCLEO_LL_Project_LCD/STM32_template_proj/Core/Src\nt_gpio.c ****     default:
  49:C:/Users/nace/OneDrive/Desktop/STM32/Projects_nace/NUCLEO_LL_Project_LCD/STM32_template_proj/Core/Src\nt_gpio.c ****         break;
  50:C:/Users/nace/OneDrive/Desktop/STM32/Projects_nace/NUCLEO_LL_Project_LCD/STM32_template_proj/Core/Src\nt_gpio.c ****     }
  51:C:/Users/nace/OneDrive/Desktop/STM32/Projects_nace/NUCLEO_LL_Project_LCD/STM32_template_proj/Core/Src\nt_gpio.c **** 
  52:C:/Users/nace/OneDrive/Desktop/STM32/Projects_nace/NUCLEO_LL_Project_LCD/STM32_template_proj/Core/Src\nt_gpio.c ****     LL_GPIO_Init((GPIO_TypeDef *)pin_def->port, &gpio_init);
 166              		.loc 1 52 5 view .LVU56
 167 0070 05A9     		add	r1, sp, #20
 168              	.LVL8:
 169              		.loc 1 52 5 is_stmt 0 view .LVU57
 170 0072 0068     		ldr	r0, [r0]
 171              	.LVL9:
 172              		.loc 1 52 5 view .LVU58
 173 0074 FFF7FEFF 		bl	LL_GPIO_Init
 174              	.LVL10:
  53:C:/Users/nace/OneDrive/Desktop/STM32/Projects_nace/NUCLEO_LL_Project_LCD/STM32_template_proj/Core/Src\nt_gpio.c **** }
 175              		.loc 1 53 1 view .LVU59
 176 0078 0BB0     		add	sp, sp, #44
 177              		.cfi_remember_state
 178              		.cfi_def_cfa_offset 12
 179              		@ sp needed
 180 007a 30BD     		pop	{r4, r5, pc}
 181              	.LVL11:
 182              	.L2:
 183              		.cfi_restore_state
  44:C:/Users/nace/OneDrive/Desktop/STM32/Projects_nace/NUCLEO_LL_Project_LCD/STM32_template_proj/Core/Src\nt_gpio.c ****         gpio_init.Pull = LL_GPIO_PULL_UP;
 184              		.loc 1 44 9 is_stmt 1 view .LVU60
  44:C:/Users/nace/OneDrive/Desktop/STM32/Projects_nace/NUCLEO_LL_Project_LCD/STM32_template_proj/Core/Src\nt_gpio.c ****         gpio_init.Pull = LL_GPIO_PULL_UP;
 185              		.loc 1 44 25 is_stmt 0 view .LVU61
 186 007c 0223     		movs	r3, #2
 187              	.LVL12:
  44:C:/Users/nace/OneDrive/Desktop/STM32/Projects_nace/NUCLEO_LL_Project_LCD/STM32_template_proj/Core/Src\nt_gpio.c ****         gpio_init.Pull = LL_GPIO_PULL_UP;
 188              		.loc 1 44 25 view .LVU62
 189 007e 0793     		str	r3, [sp, #28]
  45:C:/Users/nace/OneDrive/Desktop/STM32/Projects_nace/NUCLEO_LL_Project_LCD/STM32_template_proj/Core/Src\nt_gpio.c ****         break;
 190              		.loc 1 45 9 is_stmt 1 view .LVU63
  45:C:/Users/nace/OneDrive/Desktop/STM32/Projects_nace/NUCLEO_LL_Project_LCD/STM32_template_proj/Core/Src\nt_gpio.c ****         break;
 191              		.loc 1 45 24 is_stmt 0 view .LVU64
 192 0080 0123     		movs	r3, #1
 193 0082 0993     		str	r3, [sp, #36]
  46:C:/Users/nace/OneDrive/Desktop/STM32/Projects_nace/NUCLEO_LL_Project_LCD/STM32_template_proj/Core/Src\nt_gpio.c **** 
 194              		.loc 1 46 9 is_stmt 1 view .LVU65
 195 0084 F4E7     		b	.L3
 196              	.L6:
 197 0086 00BF     		.align	2
 198              	.L5:
 199 0088 00100240 		.word	1073876992
 200              		.cfi_endproc
 201              	.LFE145:
 203              		.section	.text.nt_pinOn,"ax",%progbits
 204              		.align	1
 205              		.global	nt_pinOn
 206              		.syntax unified
 207              		.thumb
 208              		.thumb_func
 210              	nt_pinOn:
 211              	.LVL13:
 212              	.LFB146:
  54:C:/Users/nace/OneDrive/Desktop/STM32/Projects_nace/NUCLEO_LL_Project_LCD/STM32_template_proj/Core/Src\nt_gpio.c **** 
  55:C:/Users/nace/OneDrive/Desktop/STM32/Projects_nace/NUCLEO_LL_Project_LCD/STM32_template_proj/Core/Src\nt_gpio.c **** 
  56:C:/Users/nace/OneDrive/Desktop/STM32/Projects_nace/NUCLEO_LL_Project_LCD/STM32_template_proj/Core/Src\nt_gpio.c **** void nt_pinOn(nt_PinDefStruct_t *pin_def)
  57:C:/Users/nace/OneDrive/Desktop/STM32/Projects_nace/NUCLEO_LL_Project_LCD/STM32_template_proj/Core/Src\nt_gpio.c **** {
 213              		.loc 1 57 1 view -0
 214              		.cfi_startproc
 215              		@ args = 0, pretend = 0, frame = 0
 216              		@ frame_needed = 0, uses_anonymous_args = 0
 217              		@ link register save eliminated.
  58:C:/Users/nace/OneDrive/Desktop/STM32/Projects_nace/NUCLEO_LL_Project_LCD/STM32_template_proj/Core/Src\nt_gpio.c ****     LL_GPIO_SetOutputPin((GPIO_TypeDef *)pin_def->port, pin_def->pin);
 218              		.loc 1 58 5 view .LVU67
 219              		.loc 1 58 49 is_stmt 0 view .LVU68
 220 0000 0268     		ldr	r2, [r0]
 221              		.loc 1 58 5 view .LVU69
 222 0002 4368     		ldr	r3, [r0, #4]
 223              	.LVL14:
 224              	.LBB26:
 225              	.LBI26:
 226              		.file 3 "C:/Users/nace/OneDrive/Desktop/STM32/Projects_nace/NUCLEO_LL_Project_LCD/STM32_template_p
   1:C:/Users/nace/OneDrive/Desktop/STM32/Projects_nace/NUCLEO_LL_Project_LCD/STM32_template_proj/Drivers/STM32F1xx_HAL_Driver/Inc\stm32f1xx_ll_gpio.h **** /**
   2:C:/Users/nace/OneDrive/Desktop/STM32/Projects_nace/NUCLEO_LL_Project_LCD/STM32_template_proj/Drivers/STM32F1xx_HAL_Driver/Inc\stm32f1xx_ll_gpio.h ****   ******************************************************************************
   3:C:/Users/nace/OneDrive/Desktop/STM32/Projects_nace/NUCLEO_LL_Project_LCD/STM32_template_proj/Drivers/STM32F1xx_HAL_Driver/Inc\stm32f1xx_ll_gpio.h ****   * @file    stm32f1xx_ll_gpio.h
   4:C:/Users/nace/OneDrive/Desktop/STM32/Projects_nace/NUCLEO_LL_Project_LCD/STM32_template_proj/Drivers/STM32F1xx_HAL_Driver/Inc\stm32f1xx_ll_gpio.h ****   * @author  MCD Application Team
   5:C:/Users/nace/OneDrive/Desktop/STM32/Projects_nace/NUCLEO_LL_Project_LCD/STM32_template_proj/Drivers/STM32F1xx_HAL_Driver/Inc\stm32f1xx_ll_gpio.h ****   * @brief   Header file of GPIO LL module.
   6:C:/Users/nace/OneDrive/Desktop/STM32/Projects_nace/NUCLEO_LL_Project_LCD/STM32_template_proj/Drivers/STM32F1xx_HAL_Driver/Inc\stm32f1xx_ll_gpio.h ****   ******************************************************************************
   7:C:/Users/nace/OneDrive/Desktop/STM32/Projects_nace/NUCLEO_LL_Project_LCD/STM32_template_proj/Drivers/STM32F1xx_HAL_Driver/Inc\stm32f1xx_ll_gpio.h ****   * @attention
   8:C:/Users/nace/OneDrive/Desktop/STM32/Projects_nace/NUCLEO_LL_Project_LCD/STM32_template_proj/Drivers/STM32F1xx_HAL_Driver/Inc\stm32f1xx_ll_gpio.h ****   *
   9:C:/Users/nace/OneDrive/Desktop/STM32/Projects_nace/NUCLEO_LL_Project_LCD/STM32_template_proj/Drivers/STM32F1xx_HAL_Driver/Inc\stm32f1xx_ll_gpio.h ****   * Copyright (c) 2016 STMicroelectronics.
  10:C:/Users/nace/OneDrive/Desktop/STM32/Projects_nace/NUCLEO_LL_Project_LCD/STM32_template_proj/Drivers/STM32F1xx_HAL_Driver/Inc\stm32f1xx_ll_gpio.h ****   * All rights reserved.
  11:C:/Users/nace/OneDrive/Desktop/STM32/Projects_nace/NUCLEO_LL_Project_LCD/STM32_template_proj/Drivers/STM32F1xx_HAL_Driver/Inc\stm32f1xx_ll_gpio.h ****   *
  12:C:/Users/nace/OneDrive/Desktop/STM32/Projects_nace/NUCLEO_LL_Project_LCD/STM32_template_proj/Drivers/STM32F1xx_HAL_Driver/Inc\stm32f1xx_ll_gpio.h ****   * This software is licensed under terms that can be found in the LICENSE file
  13:C:/Users/nace/OneDrive/Desktop/STM32/Projects_nace/NUCLEO_LL_Project_LCD/STM32_template_proj/Drivers/STM32F1xx_HAL_Driver/Inc\stm32f1xx_ll_gpio.h ****   * in the root directory of this software component.
  14:C:/Users/nace/OneDrive/Desktop/STM32/Projects_nace/NUCLEO_LL_Project_LCD/STM32_template_proj/Drivers/STM32F1xx_HAL_Driver/Inc\stm32f1xx_ll_gpio.h ****   * If no LICENSE file comes with this software, it is provided AS-IS.
  15:C:/Users/nace/OneDrive/Desktop/STM32/Projects_nace/NUCLEO_LL_Project_LCD/STM32_template_proj/Drivers/STM32F1xx_HAL_Driver/Inc\stm32f1xx_ll_gpio.h ****   *
  16:C:/Users/nace/OneDrive/Desktop/STM32/Projects_nace/NUCLEO_LL_Project_LCD/STM32_template_proj/Drivers/STM32F1xx_HAL_Driver/Inc\stm32f1xx_ll_gpio.h ****   ******************************************************************************
  17:C:/Users/nace/OneDrive/Desktop/STM32/Projects_nace/NUCLEO_LL_Project_LCD/STM32_template_proj/Drivers/STM32F1xx_HAL_Driver/Inc\stm32f1xx_ll_gpio.h ****   */
  18:C:/Users/nace/OneDrive/Desktop/STM32/Projects_nace/NUCLEO_LL_Project_LCD/STM32_template_proj/Drivers/STM32F1xx_HAL_Driver/Inc\stm32f1xx_ll_gpio.h **** 
  19:C:/Users/nace/OneDrive/Desktop/STM32/Projects_nace/NUCLEO_LL_Project_LCD/STM32_template_proj/Drivers/STM32F1xx_HAL_Driver/Inc\stm32f1xx_ll_gpio.h **** /* Define to prevent recursive inclusion -------------------------------------*/
  20:C:/Users/nace/OneDrive/Desktop/STM32/Projects_nace/NUCLEO_LL_Project_LCD/STM32_template_proj/Drivers/STM32F1xx_HAL_Driver/Inc\stm32f1xx_ll_gpio.h **** #ifndef STM32F1xx_LL_GPIO_H
  21:C:/Users/nace/OneDrive/Desktop/STM32/Projects_nace/NUCLEO_LL_Project_LCD/STM32_template_proj/Drivers/STM32F1xx_HAL_Driver/Inc\stm32f1xx_ll_gpio.h **** #define STM32F1xx_LL_GPIO_H
  22:C:/Users/nace/OneDrive/Desktop/STM32/Projects_nace/NUCLEO_LL_Project_LCD/STM32_template_proj/Drivers/STM32F1xx_HAL_Driver/Inc\stm32f1xx_ll_gpio.h **** 
  23:C:/Users/nace/OneDrive/Desktop/STM32/Projects_nace/NUCLEO_LL_Project_LCD/STM32_template_proj/Drivers/STM32F1xx_HAL_Driver/Inc\stm32f1xx_ll_gpio.h **** #ifdef __cplusplus
  24:C:/Users/nace/OneDrive/Desktop/STM32/Projects_nace/NUCLEO_LL_Project_LCD/STM32_template_proj/Drivers/STM32F1xx_HAL_Driver/Inc\stm32f1xx_ll_gpio.h **** extern "C" {
  25:C:/Users/nace/OneDrive/Desktop/STM32/Projects_nace/NUCLEO_LL_Project_LCD/STM32_template_proj/Drivers/STM32F1xx_HAL_Driver/Inc\stm32f1xx_ll_gpio.h **** #endif
  26:C:/Users/nace/OneDrive/Desktop/STM32/Projects_nace/NUCLEO_LL_Project_LCD/STM32_template_proj/Drivers/STM32F1xx_HAL_Driver/Inc\stm32f1xx_ll_gpio.h **** 
  27:C:/Users/nace/OneDrive/Desktop/STM32/Projects_nace/NUCLEO_LL_Project_LCD/STM32_template_proj/Drivers/STM32F1xx_HAL_Driver/Inc\stm32f1xx_ll_gpio.h **** /* Includes ------------------------------------------------------------------*/
  28:C:/Users/nace/OneDrive/Desktop/STM32/Projects_nace/NUCLEO_LL_Project_LCD/STM32_template_proj/Drivers/STM32F1xx_HAL_Driver/Inc\stm32f1xx_ll_gpio.h **** #include "stm32f1xx.h"
  29:C:/Users/nace/OneDrive/Desktop/STM32/Projects_nace/NUCLEO_LL_Project_LCD/STM32_template_proj/Drivers/STM32F1xx_HAL_Driver/Inc\stm32f1xx_ll_gpio.h **** 
  30:C:/Users/nace/OneDrive/Desktop/STM32/Projects_nace/NUCLEO_LL_Project_LCD/STM32_template_proj/Drivers/STM32F1xx_HAL_Driver/Inc\stm32f1xx_ll_gpio.h **** /** @addtogroup STM32F1xx_LL_Driver
  31:C:/Users/nace/OneDrive/Desktop/STM32/Projects_nace/NUCLEO_LL_Project_LCD/STM32_template_proj/Drivers/STM32F1xx_HAL_Driver/Inc\stm32f1xx_ll_gpio.h ****   * @{
  32:C:/Users/nace/OneDrive/Desktop/STM32/Projects_nace/NUCLEO_LL_Project_LCD/STM32_template_proj/Drivers/STM32F1xx_HAL_Driver/Inc\stm32f1xx_ll_gpio.h ****   */
  33:C:/Users/nace/OneDrive/Desktop/STM32/Projects_nace/NUCLEO_LL_Project_LCD/STM32_template_proj/Drivers/STM32F1xx_HAL_Driver/Inc\stm32f1xx_ll_gpio.h **** 
  34:C:/Users/nace/OneDrive/Desktop/STM32/Projects_nace/NUCLEO_LL_Project_LCD/STM32_template_proj/Drivers/STM32F1xx_HAL_Driver/Inc\stm32f1xx_ll_gpio.h **** #if defined (GPIOA) || defined (GPIOB) || defined (GPIOC) || defined (GPIOD) || defined (GPIOE) || 
  35:C:/Users/nace/OneDrive/Desktop/STM32/Projects_nace/NUCLEO_LL_Project_LCD/STM32_template_proj/Drivers/STM32F1xx_HAL_Driver/Inc\stm32f1xx_ll_gpio.h **** 
  36:C:/Users/nace/OneDrive/Desktop/STM32/Projects_nace/NUCLEO_LL_Project_LCD/STM32_template_proj/Drivers/STM32F1xx_HAL_Driver/Inc\stm32f1xx_ll_gpio.h **** /** @defgroup GPIO_LL GPIO
  37:C:/Users/nace/OneDrive/Desktop/STM32/Projects_nace/NUCLEO_LL_Project_LCD/STM32_template_proj/Drivers/STM32F1xx_HAL_Driver/Inc\stm32f1xx_ll_gpio.h ****   * @{
  38:C:/Users/nace/OneDrive/Desktop/STM32/Projects_nace/NUCLEO_LL_Project_LCD/STM32_template_proj/Drivers/STM32F1xx_HAL_Driver/Inc\stm32f1xx_ll_gpio.h ****   */
  39:C:/Users/nace/OneDrive/Desktop/STM32/Projects_nace/NUCLEO_LL_Project_LCD/STM32_template_proj/Drivers/STM32F1xx_HAL_Driver/Inc\stm32f1xx_ll_gpio.h **** 
  40:C:/Users/nace/OneDrive/Desktop/STM32/Projects_nace/NUCLEO_LL_Project_LCD/STM32_template_proj/Drivers/STM32F1xx_HAL_Driver/Inc\stm32f1xx_ll_gpio.h **** /* Private types -------------------------------------------------------------*/
  41:C:/Users/nace/OneDrive/Desktop/STM32/Projects_nace/NUCLEO_LL_Project_LCD/STM32_template_proj/Drivers/STM32F1xx_HAL_Driver/Inc\stm32f1xx_ll_gpio.h **** /* Private variables ---------------------------------------------------------*/
  42:C:/Users/nace/OneDrive/Desktop/STM32/Projects_nace/NUCLEO_LL_Project_LCD/STM32_template_proj/Drivers/STM32F1xx_HAL_Driver/Inc\stm32f1xx_ll_gpio.h **** /* Private constants ---------------------------------------------------------*/
  43:C:/Users/nace/OneDrive/Desktop/STM32/Projects_nace/NUCLEO_LL_Project_LCD/STM32_template_proj/Drivers/STM32F1xx_HAL_Driver/Inc\stm32f1xx_ll_gpio.h **** 
  44:C:/Users/nace/OneDrive/Desktop/STM32/Projects_nace/NUCLEO_LL_Project_LCD/STM32_template_proj/Drivers/STM32F1xx_HAL_Driver/Inc\stm32f1xx_ll_gpio.h **** /** @defgroup GPIO_LL_Private_Constants GPIO Private Constants
  45:C:/Users/nace/OneDrive/Desktop/STM32/Projects_nace/NUCLEO_LL_Project_LCD/STM32_template_proj/Drivers/STM32F1xx_HAL_Driver/Inc\stm32f1xx_ll_gpio.h ****   * @{
  46:C:/Users/nace/OneDrive/Desktop/STM32/Projects_nace/NUCLEO_LL_Project_LCD/STM32_template_proj/Drivers/STM32F1xx_HAL_Driver/Inc\stm32f1xx_ll_gpio.h ****   */
  47:C:/Users/nace/OneDrive/Desktop/STM32/Projects_nace/NUCLEO_LL_Project_LCD/STM32_template_proj/Drivers/STM32F1xx_HAL_Driver/Inc\stm32f1xx_ll_gpio.h **** /* Defines used for Pin Mask Initialization */
  48:C:/Users/nace/OneDrive/Desktop/STM32/Projects_nace/NUCLEO_LL_Project_LCD/STM32_template_proj/Drivers/STM32F1xx_HAL_Driver/Inc\stm32f1xx_ll_gpio.h **** #define GPIO_PIN_MASK_POS   8U
  49:C:/Users/nace/OneDrive/Desktop/STM32/Projects_nace/NUCLEO_LL_Project_LCD/STM32_template_proj/Drivers/STM32F1xx_HAL_Driver/Inc\stm32f1xx_ll_gpio.h **** #define GPIO_PIN_NB         16U
  50:C:/Users/nace/OneDrive/Desktop/STM32/Projects_nace/NUCLEO_LL_Project_LCD/STM32_template_proj/Drivers/STM32F1xx_HAL_Driver/Inc\stm32f1xx_ll_gpio.h **** /**
  51:C:/Users/nace/OneDrive/Desktop/STM32/Projects_nace/NUCLEO_LL_Project_LCD/STM32_template_proj/Drivers/STM32F1xx_HAL_Driver/Inc\stm32f1xx_ll_gpio.h ****   * @}
  52:C:/Users/nace/OneDrive/Desktop/STM32/Projects_nace/NUCLEO_LL_Project_LCD/STM32_template_proj/Drivers/STM32F1xx_HAL_Driver/Inc\stm32f1xx_ll_gpio.h ****   */
  53:C:/Users/nace/OneDrive/Desktop/STM32/Projects_nace/NUCLEO_LL_Project_LCD/STM32_template_proj/Drivers/STM32F1xx_HAL_Driver/Inc\stm32f1xx_ll_gpio.h **** 
  54:C:/Users/nace/OneDrive/Desktop/STM32/Projects_nace/NUCLEO_LL_Project_LCD/STM32_template_proj/Drivers/STM32F1xx_HAL_Driver/Inc\stm32f1xx_ll_gpio.h **** /* Private macros ------------------------------------------------------------*/
  55:C:/Users/nace/OneDrive/Desktop/STM32/Projects_nace/NUCLEO_LL_Project_LCD/STM32_template_proj/Drivers/STM32F1xx_HAL_Driver/Inc\stm32f1xx_ll_gpio.h **** #if defined(USE_FULL_LL_DRIVER)
  56:C:/Users/nace/OneDrive/Desktop/STM32/Projects_nace/NUCLEO_LL_Project_LCD/STM32_template_proj/Drivers/STM32F1xx_HAL_Driver/Inc\stm32f1xx_ll_gpio.h **** /** @defgroup GPIO_LL_Private_Macros GPIO Private Macros
  57:C:/Users/nace/OneDrive/Desktop/STM32/Projects_nace/NUCLEO_LL_Project_LCD/STM32_template_proj/Drivers/STM32F1xx_HAL_Driver/Inc\stm32f1xx_ll_gpio.h ****   * @{
  58:C:/Users/nace/OneDrive/Desktop/STM32/Projects_nace/NUCLEO_LL_Project_LCD/STM32_template_proj/Drivers/STM32F1xx_HAL_Driver/Inc\stm32f1xx_ll_gpio.h ****   */
  59:C:/Users/nace/OneDrive/Desktop/STM32/Projects_nace/NUCLEO_LL_Project_LCD/STM32_template_proj/Drivers/STM32F1xx_HAL_Driver/Inc\stm32f1xx_ll_gpio.h **** 
  60:C:/Users/nace/OneDrive/Desktop/STM32/Projects_nace/NUCLEO_LL_Project_LCD/STM32_template_proj/Drivers/STM32F1xx_HAL_Driver/Inc\stm32f1xx_ll_gpio.h **** /**
  61:C:/Users/nace/OneDrive/Desktop/STM32/Projects_nace/NUCLEO_LL_Project_LCD/STM32_template_proj/Drivers/STM32F1xx_HAL_Driver/Inc\stm32f1xx_ll_gpio.h ****   * @}
  62:C:/Users/nace/OneDrive/Desktop/STM32/Projects_nace/NUCLEO_LL_Project_LCD/STM32_template_proj/Drivers/STM32F1xx_HAL_Driver/Inc\stm32f1xx_ll_gpio.h ****   */
  63:C:/Users/nace/OneDrive/Desktop/STM32/Projects_nace/NUCLEO_LL_Project_LCD/STM32_template_proj/Drivers/STM32F1xx_HAL_Driver/Inc\stm32f1xx_ll_gpio.h **** #endif /*USE_FULL_LL_DRIVER*/
  64:C:/Users/nace/OneDrive/Desktop/STM32/Projects_nace/NUCLEO_LL_Project_LCD/STM32_template_proj/Drivers/STM32F1xx_HAL_Driver/Inc\stm32f1xx_ll_gpio.h **** 
  65:C:/Users/nace/OneDrive/Desktop/STM32/Projects_nace/NUCLEO_LL_Project_LCD/STM32_template_proj/Drivers/STM32F1xx_HAL_Driver/Inc\stm32f1xx_ll_gpio.h **** /* Exported types ------------------------------------------------------------*/
  66:C:/Users/nace/OneDrive/Desktop/STM32/Projects_nace/NUCLEO_LL_Project_LCD/STM32_template_proj/Drivers/STM32F1xx_HAL_Driver/Inc\stm32f1xx_ll_gpio.h **** #if defined(USE_FULL_LL_DRIVER)
  67:C:/Users/nace/OneDrive/Desktop/STM32/Projects_nace/NUCLEO_LL_Project_LCD/STM32_template_proj/Drivers/STM32F1xx_HAL_Driver/Inc\stm32f1xx_ll_gpio.h **** /** @defgroup GPIO_LL_ES_INIT GPIO Exported Init structures
  68:C:/Users/nace/OneDrive/Desktop/STM32/Projects_nace/NUCLEO_LL_Project_LCD/STM32_template_proj/Drivers/STM32F1xx_HAL_Driver/Inc\stm32f1xx_ll_gpio.h ****   * @{
  69:C:/Users/nace/OneDrive/Desktop/STM32/Projects_nace/NUCLEO_LL_Project_LCD/STM32_template_proj/Drivers/STM32F1xx_HAL_Driver/Inc\stm32f1xx_ll_gpio.h ****   */
  70:C:/Users/nace/OneDrive/Desktop/STM32/Projects_nace/NUCLEO_LL_Project_LCD/STM32_template_proj/Drivers/STM32F1xx_HAL_Driver/Inc\stm32f1xx_ll_gpio.h **** 
  71:C:/Users/nace/OneDrive/Desktop/STM32/Projects_nace/NUCLEO_LL_Project_LCD/STM32_template_proj/Drivers/STM32F1xx_HAL_Driver/Inc\stm32f1xx_ll_gpio.h **** /**
  72:C:/Users/nace/OneDrive/Desktop/STM32/Projects_nace/NUCLEO_LL_Project_LCD/STM32_template_proj/Drivers/STM32F1xx_HAL_Driver/Inc\stm32f1xx_ll_gpio.h ****   * @brief LL GPIO Init Structure definition
  73:C:/Users/nace/OneDrive/Desktop/STM32/Projects_nace/NUCLEO_LL_Project_LCD/STM32_template_proj/Drivers/STM32F1xx_HAL_Driver/Inc\stm32f1xx_ll_gpio.h ****   */
  74:C:/Users/nace/OneDrive/Desktop/STM32/Projects_nace/NUCLEO_LL_Project_LCD/STM32_template_proj/Drivers/STM32F1xx_HAL_Driver/Inc\stm32f1xx_ll_gpio.h **** typedef struct
  75:C:/Users/nace/OneDrive/Desktop/STM32/Projects_nace/NUCLEO_LL_Project_LCD/STM32_template_proj/Drivers/STM32F1xx_HAL_Driver/Inc\stm32f1xx_ll_gpio.h **** {
  76:C:/Users/nace/OneDrive/Desktop/STM32/Projects_nace/NUCLEO_LL_Project_LCD/STM32_template_proj/Drivers/STM32F1xx_HAL_Driver/Inc\stm32f1xx_ll_gpio.h ****   uint32_t Pin;          /*!< Specifies the GPIO pins to be configured.
  77:C:/Users/nace/OneDrive/Desktop/STM32/Projects_nace/NUCLEO_LL_Project_LCD/STM32_template_proj/Drivers/STM32F1xx_HAL_Driver/Inc\stm32f1xx_ll_gpio.h ****                               This parameter can be any value of @ref GPIO_LL_EC_PIN */
  78:C:/Users/nace/OneDrive/Desktop/STM32/Projects_nace/NUCLEO_LL_Project_LCD/STM32_template_proj/Drivers/STM32F1xx_HAL_Driver/Inc\stm32f1xx_ll_gpio.h **** 
  79:C:/Users/nace/OneDrive/Desktop/STM32/Projects_nace/NUCLEO_LL_Project_LCD/STM32_template_proj/Drivers/STM32F1xx_HAL_Driver/Inc\stm32f1xx_ll_gpio.h ****   uint32_t Mode;         /*!< Specifies the operating mode for the selected pins.
  80:C:/Users/nace/OneDrive/Desktop/STM32/Projects_nace/NUCLEO_LL_Project_LCD/STM32_template_proj/Drivers/STM32F1xx_HAL_Driver/Inc\stm32f1xx_ll_gpio.h ****                               This parameter can be a value of @ref GPIO_LL_EC_MODE.
  81:C:/Users/nace/OneDrive/Desktop/STM32/Projects_nace/NUCLEO_LL_Project_LCD/STM32_template_proj/Drivers/STM32F1xx_HAL_Driver/Inc\stm32f1xx_ll_gpio.h **** 
  82:C:/Users/nace/OneDrive/Desktop/STM32/Projects_nace/NUCLEO_LL_Project_LCD/STM32_template_proj/Drivers/STM32F1xx_HAL_Driver/Inc\stm32f1xx_ll_gpio.h ****                               GPIO HW configuration can be modified afterwards using unitary functi
  83:C:/Users/nace/OneDrive/Desktop/STM32/Projects_nace/NUCLEO_LL_Project_LCD/STM32_template_proj/Drivers/STM32F1xx_HAL_Driver/Inc\stm32f1xx_ll_gpio.h **** 
  84:C:/Users/nace/OneDrive/Desktop/STM32/Projects_nace/NUCLEO_LL_Project_LCD/STM32_template_proj/Drivers/STM32F1xx_HAL_Driver/Inc\stm32f1xx_ll_gpio.h ****   uint32_t Speed;        /*!< Specifies the speed for the selected pins.
  85:C:/Users/nace/OneDrive/Desktop/STM32/Projects_nace/NUCLEO_LL_Project_LCD/STM32_template_proj/Drivers/STM32F1xx_HAL_Driver/Inc\stm32f1xx_ll_gpio.h ****                               This parameter can be a value of @ref GPIO_LL_EC_SPEED.
  86:C:/Users/nace/OneDrive/Desktop/STM32/Projects_nace/NUCLEO_LL_Project_LCD/STM32_template_proj/Drivers/STM32F1xx_HAL_Driver/Inc\stm32f1xx_ll_gpio.h **** 
  87:C:/Users/nace/OneDrive/Desktop/STM32/Projects_nace/NUCLEO_LL_Project_LCD/STM32_template_proj/Drivers/STM32F1xx_HAL_Driver/Inc\stm32f1xx_ll_gpio.h ****                               GPIO HW configuration can be modified afterwards using unitary functi
  88:C:/Users/nace/OneDrive/Desktop/STM32/Projects_nace/NUCLEO_LL_Project_LCD/STM32_template_proj/Drivers/STM32F1xx_HAL_Driver/Inc\stm32f1xx_ll_gpio.h **** 
  89:C:/Users/nace/OneDrive/Desktop/STM32/Projects_nace/NUCLEO_LL_Project_LCD/STM32_template_proj/Drivers/STM32F1xx_HAL_Driver/Inc\stm32f1xx_ll_gpio.h ****   uint32_t OutputType;   /*!< Specifies the operating output type for the selected pins.
  90:C:/Users/nace/OneDrive/Desktop/STM32/Projects_nace/NUCLEO_LL_Project_LCD/STM32_template_proj/Drivers/STM32F1xx_HAL_Driver/Inc\stm32f1xx_ll_gpio.h ****                               This parameter can be a value of @ref GPIO_LL_EC_OUTPUT.
  91:C:/Users/nace/OneDrive/Desktop/STM32/Projects_nace/NUCLEO_LL_Project_LCD/STM32_template_proj/Drivers/STM32F1xx_HAL_Driver/Inc\stm32f1xx_ll_gpio.h **** 
  92:C:/Users/nace/OneDrive/Desktop/STM32/Projects_nace/NUCLEO_LL_Project_LCD/STM32_template_proj/Drivers/STM32F1xx_HAL_Driver/Inc\stm32f1xx_ll_gpio.h ****                               GPIO HW configuration can be modified afterwards using unitary functi
  93:C:/Users/nace/OneDrive/Desktop/STM32/Projects_nace/NUCLEO_LL_Project_LCD/STM32_template_proj/Drivers/STM32F1xx_HAL_Driver/Inc\stm32f1xx_ll_gpio.h **** 
  94:C:/Users/nace/OneDrive/Desktop/STM32/Projects_nace/NUCLEO_LL_Project_LCD/STM32_template_proj/Drivers/STM32F1xx_HAL_Driver/Inc\stm32f1xx_ll_gpio.h ****   uint32_t Pull;         /*!< Specifies the operating Pull-up/Pull down for the selected pins.
  95:C:/Users/nace/OneDrive/Desktop/STM32/Projects_nace/NUCLEO_LL_Project_LCD/STM32_template_proj/Drivers/STM32F1xx_HAL_Driver/Inc\stm32f1xx_ll_gpio.h ****                               This parameter can be a value of @ref GPIO_LL_EC_PULL.
  96:C:/Users/nace/OneDrive/Desktop/STM32/Projects_nace/NUCLEO_LL_Project_LCD/STM32_template_proj/Drivers/STM32F1xx_HAL_Driver/Inc\stm32f1xx_ll_gpio.h **** 
  97:C:/Users/nace/OneDrive/Desktop/STM32/Projects_nace/NUCLEO_LL_Project_LCD/STM32_template_proj/Drivers/STM32F1xx_HAL_Driver/Inc\stm32f1xx_ll_gpio.h ****                               GPIO HW configuration can be modified afterwards using unitary functi
  98:C:/Users/nace/OneDrive/Desktop/STM32/Projects_nace/NUCLEO_LL_Project_LCD/STM32_template_proj/Drivers/STM32F1xx_HAL_Driver/Inc\stm32f1xx_ll_gpio.h **** } LL_GPIO_InitTypeDef;
  99:C:/Users/nace/OneDrive/Desktop/STM32/Projects_nace/NUCLEO_LL_Project_LCD/STM32_template_proj/Drivers/STM32F1xx_HAL_Driver/Inc\stm32f1xx_ll_gpio.h **** 
 100:C:/Users/nace/OneDrive/Desktop/STM32/Projects_nace/NUCLEO_LL_Project_LCD/STM32_template_proj/Drivers/STM32F1xx_HAL_Driver/Inc\stm32f1xx_ll_gpio.h **** /**
 101:C:/Users/nace/OneDrive/Desktop/STM32/Projects_nace/NUCLEO_LL_Project_LCD/STM32_template_proj/Drivers/STM32F1xx_HAL_Driver/Inc\stm32f1xx_ll_gpio.h ****   * @}
 102:C:/Users/nace/OneDrive/Desktop/STM32/Projects_nace/NUCLEO_LL_Project_LCD/STM32_template_proj/Drivers/STM32F1xx_HAL_Driver/Inc\stm32f1xx_ll_gpio.h ****   */
 103:C:/Users/nace/OneDrive/Desktop/STM32/Projects_nace/NUCLEO_LL_Project_LCD/STM32_template_proj/Drivers/STM32F1xx_HAL_Driver/Inc\stm32f1xx_ll_gpio.h **** #endif /* USE_FULL_LL_DRIVER */
 104:C:/Users/nace/OneDrive/Desktop/STM32/Projects_nace/NUCLEO_LL_Project_LCD/STM32_template_proj/Drivers/STM32F1xx_HAL_Driver/Inc\stm32f1xx_ll_gpio.h **** 
 105:C:/Users/nace/OneDrive/Desktop/STM32/Projects_nace/NUCLEO_LL_Project_LCD/STM32_template_proj/Drivers/STM32F1xx_HAL_Driver/Inc\stm32f1xx_ll_gpio.h **** /* Exported constants --------------------------------------------------------*/
 106:C:/Users/nace/OneDrive/Desktop/STM32/Projects_nace/NUCLEO_LL_Project_LCD/STM32_template_proj/Drivers/STM32F1xx_HAL_Driver/Inc\stm32f1xx_ll_gpio.h **** /** @defgroup GPIO_LL_Exported_Constants GPIO Exported Constants
 107:C:/Users/nace/OneDrive/Desktop/STM32/Projects_nace/NUCLEO_LL_Project_LCD/STM32_template_proj/Drivers/STM32F1xx_HAL_Driver/Inc\stm32f1xx_ll_gpio.h ****   * @{
 108:C:/Users/nace/OneDrive/Desktop/STM32/Projects_nace/NUCLEO_LL_Project_LCD/STM32_template_proj/Drivers/STM32F1xx_HAL_Driver/Inc\stm32f1xx_ll_gpio.h ****   */
 109:C:/Users/nace/OneDrive/Desktop/STM32/Projects_nace/NUCLEO_LL_Project_LCD/STM32_template_proj/Drivers/STM32F1xx_HAL_Driver/Inc\stm32f1xx_ll_gpio.h **** 
 110:C:/Users/nace/OneDrive/Desktop/STM32/Projects_nace/NUCLEO_LL_Project_LCD/STM32_template_proj/Drivers/STM32F1xx_HAL_Driver/Inc\stm32f1xx_ll_gpio.h **** /** @defgroup GPIO_LL_EC_PIN PIN
 111:C:/Users/nace/OneDrive/Desktop/STM32/Projects_nace/NUCLEO_LL_Project_LCD/STM32_template_proj/Drivers/STM32F1xx_HAL_Driver/Inc\stm32f1xx_ll_gpio.h ****   * @{
 112:C:/Users/nace/OneDrive/Desktop/STM32/Projects_nace/NUCLEO_LL_Project_LCD/STM32_template_proj/Drivers/STM32F1xx_HAL_Driver/Inc\stm32f1xx_ll_gpio.h ****   */
 113:C:/Users/nace/OneDrive/Desktop/STM32/Projects_nace/NUCLEO_LL_Project_LCD/STM32_template_proj/Drivers/STM32F1xx_HAL_Driver/Inc\stm32f1xx_ll_gpio.h **** #define LL_GPIO_PIN_0                    ((GPIO_BSRR_BS0  << GPIO_PIN_MASK_POS) | 0x00000001U)  /*!
 114:C:/Users/nace/OneDrive/Desktop/STM32/Projects_nace/NUCLEO_LL_Project_LCD/STM32_template_proj/Drivers/STM32F1xx_HAL_Driver/Inc\stm32f1xx_ll_gpio.h **** #define LL_GPIO_PIN_1                    ((GPIO_BSRR_BS1  << GPIO_PIN_MASK_POS) | 0x00000002U)  /*!
 115:C:/Users/nace/OneDrive/Desktop/STM32/Projects_nace/NUCLEO_LL_Project_LCD/STM32_template_proj/Drivers/STM32F1xx_HAL_Driver/Inc\stm32f1xx_ll_gpio.h **** #define LL_GPIO_PIN_2                    ((GPIO_BSRR_BS2  << GPIO_PIN_MASK_POS) | 0x00000004U)  /*!
 116:C:/Users/nace/OneDrive/Desktop/STM32/Projects_nace/NUCLEO_LL_Project_LCD/STM32_template_proj/Drivers/STM32F1xx_HAL_Driver/Inc\stm32f1xx_ll_gpio.h **** #define LL_GPIO_PIN_3                    ((GPIO_BSRR_BS3  << GPIO_PIN_MASK_POS) | 0x00000008U)  /*!
 117:C:/Users/nace/OneDrive/Desktop/STM32/Projects_nace/NUCLEO_LL_Project_LCD/STM32_template_proj/Drivers/STM32F1xx_HAL_Driver/Inc\stm32f1xx_ll_gpio.h **** #define LL_GPIO_PIN_4                    ((GPIO_BSRR_BS4  << GPIO_PIN_MASK_POS) | 0x00000010U)  /*!
 118:C:/Users/nace/OneDrive/Desktop/STM32/Projects_nace/NUCLEO_LL_Project_LCD/STM32_template_proj/Drivers/STM32F1xx_HAL_Driver/Inc\stm32f1xx_ll_gpio.h **** #define LL_GPIO_PIN_5                    ((GPIO_BSRR_BS5  << GPIO_PIN_MASK_POS) | 0x00000020U)  /*!
 119:C:/Users/nace/OneDrive/Desktop/STM32/Projects_nace/NUCLEO_LL_Project_LCD/STM32_template_proj/Drivers/STM32F1xx_HAL_Driver/Inc\stm32f1xx_ll_gpio.h **** #define LL_GPIO_PIN_6                    ((GPIO_BSRR_BS6  << GPIO_PIN_MASK_POS) | 0x00000040U)  /*!
 120:C:/Users/nace/OneDrive/Desktop/STM32/Projects_nace/NUCLEO_LL_Project_LCD/STM32_template_proj/Drivers/STM32F1xx_HAL_Driver/Inc\stm32f1xx_ll_gpio.h **** #define LL_GPIO_PIN_7                    ((GPIO_BSRR_BS7  << GPIO_PIN_MASK_POS) | 0x00000080U)  /*!
 121:C:/Users/nace/OneDrive/Desktop/STM32/Projects_nace/NUCLEO_LL_Project_LCD/STM32_template_proj/Drivers/STM32F1xx_HAL_Driver/Inc\stm32f1xx_ll_gpio.h **** #define LL_GPIO_PIN_8                    ((GPIO_BSRR_BS8  << GPIO_PIN_MASK_POS) | 0x04000001U)  /*!
 122:C:/Users/nace/OneDrive/Desktop/STM32/Projects_nace/NUCLEO_LL_Project_LCD/STM32_template_proj/Drivers/STM32F1xx_HAL_Driver/Inc\stm32f1xx_ll_gpio.h **** #define LL_GPIO_PIN_9                    ((GPIO_BSRR_BS9  << GPIO_PIN_MASK_POS) | 0x04000002U)  /*!
 123:C:/Users/nace/OneDrive/Desktop/STM32/Projects_nace/NUCLEO_LL_Project_LCD/STM32_template_proj/Drivers/STM32F1xx_HAL_Driver/Inc\stm32f1xx_ll_gpio.h **** #define LL_GPIO_PIN_10                   ((GPIO_BSRR_BS10 << GPIO_PIN_MASK_POS) | 0x04000004U)  /*!
 124:C:/Users/nace/OneDrive/Desktop/STM32/Projects_nace/NUCLEO_LL_Project_LCD/STM32_template_proj/Drivers/STM32F1xx_HAL_Driver/Inc\stm32f1xx_ll_gpio.h **** #define LL_GPIO_PIN_11                   ((GPIO_BSRR_BS11 << GPIO_PIN_MASK_POS) | 0x04000008U)  /*!
 125:C:/Users/nace/OneDrive/Desktop/STM32/Projects_nace/NUCLEO_LL_Project_LCD/STM32_template_proj/Drivers/STM32F1xx_HAL_Driver/Inc\stm32f1xx_ll_gpio.h **** #define LL_GPIO_PIN_12                   ((GPIO_BSRR_BS12 << GPIO_PIN_MASK_POS) | 0x04000010U)  /*!
 126:C:/Users/nace/OneDrive/Desktop/STM32/Projects_nace/NUCLEO_LL_Project_LCD/STM32_template_proj/Drivers/STM32F1xx_HAL_Driver/Inc\stm32f1xx_ll_gpio.h **** #define LL_GPIO_PIN_13                   ((GPIO_BSRR_BS13 << GPIO_PIN_MASK_POS) | 0x04000020U)  /*!
 127:C:/Users/nace/OneDrive/Desktop/STM32/Projects_nace/NUCLEO_LL_Project_LCD/STM32_template_proj/Drivers/STM32F1xx_HAL_Driver/Inc\stm32f1xx_ll_gpio.h **** #define LL_GPIO_PIN_14                   ((GPIO_BSRR_BS14 << GPIO_PIN_MASK_POS) | 0x04000040U)  /*!
 128:C:/Users/nace/OneDrive/Desktop/STM32/Projects_nace/NUCLEO_LL_Project_LCD/STM32_template_proj/Drivers/STM32F1xx_HAL_Driver/Inc\stm32f1xx_ll_gpio.h **** #define LL_GPIO_PIN_15                   ((GPIO_BSRR_BS15 << GPIO_PIN_MASK_POS) | 0x04000080U)  /*!
 129:C:/Users/nace/OneDrive/Desktop/STM32/Projects_nace/NUCLEO_LL_Project_LCD/STM32_template_proj/Drivers/STM32F1xx_HAL_Driver/Inc\stm32f1xx_ll_gpio.h **** #define LL_GPIO_PIN_ALL                  (LL_GPIO_PIN_0  | LL_GPIO_PIN_1  | LL_GPIO_PIN_2  | \
 130:C:/Users/nace/OneDrive/Desktop/STM32/Projects_nace/NUCLEO_LL_Project_LCD/STM32_template_proj/Drivers/STM32F1xx_HAL_Driver/Inc\stm32f1xx_ll_gpio.h ****                                           LL_GPIO_PIN_3  | LL_GPIO_PIN_4  | LL_GPIO_PIN_5  | \
 131:C:/Users/nace/OneDrive/Desktop/STM32/Projects_nace/NUCLEO_LL_Project_LCD/STM32_template_proj/Drivers/STM32F1xx_HAL_Driver/Inc\stm32f1xx_ll_gpio.h ****                                           LL_GPIO_PIN_6  | LL_GPIO_PIN_7  | LL_GPIO_PIN_8  | \
 132:C:/Users/nace/OneDrive/Desktop/STM32/Projects_nace/NUCLEO_LL_Project_LCD/STM32_template_proj/Drivers/STM32F1xx_HAL_Driver/Inc\stm32f1xx_ll_gpio.h ****                                           LL_GPIO_PIN_9  | LL_GPIO_PIN_10 | LL_GPIO_PIN_11 | \
 133:C:/Users/nace/OneDrive/Desktop/STM32/Projects_nace/NUCLEO_LL_Project_LCD/STM32_template_proj/Drivers/STM32F1xx_HAL_Driver/Inc\stm32f1xx_ll_gpio.h ****                                           LL_GPIO_PIN_12 | LL_GPIO_PIN_13 | LL_GPIO_PIN_14 | \
 134:C:/Users/nace/OneDrive/Desktop/STM32/Projects_nace/NUCLEO_LL_Project_LCD/STM32_template_proj/Drivers/STM32F1xx_HAL_Driver/Inc\stm32f1xx_ll_gpio.h ****                                           LL_GPIO_PIN_15)                                      /*!<
 135:C:/Users/nace/OneDrive/Desktop/STM32/Projects_nace/NUCLEO_LL_Project_LCD/STM32_template_proj/Drivers/STM32F1xx_HAL_Driver/Inc\stm32f1xx_ll_gpio.h **** /**
 136:C:/Users/nace/OneDrive/Desktop/STM32/Projects_nace/NUCLEO_LL_Project_LCD/STM32_template_proj/Drivers/STM32F1xx_HAL_Driver/Inc\stm32f1xx_ll_gpio.h ****   * @}
 137:C:/Users/nace/OneDrive/Desktop/STM32/Projects_nace/NUCLEO_LL_Project_LCD/STM32_template_proj/Drivers/STM32F1xx_HAL_Driver/Inc\stm32f1xx_ll_gpio.h ****   */
 138:C:/Users/nace/OneDrive/Desktop/STM32/Projects_nace/NUCLEO_LL_Project_LCD/STM32_template_proj/Drivers/STM32F1xx_HAL_Driver/Inc\stm32f1xx_ll_gpio.h **** 
 139:C:/Users/nace/OneDrive/Desktop/STM32/Projects_nace/NUCLEO_LL_Project_LCD/STM32_template_proj/Drivers/STM32F1xx_HAL_Driver/Inc\stm32f1xx_ll_gpio.h **** /** @defgroup GPIO_LL_EC_MODE Mode
 140:C:/Users/nace/OneDrive/Desktop/STM32/Projects_nace/NUCLEO_LL_Project_LCD/STM32_template_proj/Drivers/STM32F1xx_HAL_Driver/Inc\stm32f1xx_ll_gpio.h ****   * @{
 141:C:/Users/nace/OneDrive/Desktop/STM32/Projects_nace/NUCLEO_LL_Project_LCD/STM32_template_proj/Drivers/STM32F1xx_HAL_Driver/Inc\stm32f1xx_ll_gpio.h ****   */
 142:C:/Users/nace/OneDrive/Desktop/STM32/Projects_nace/NUCLEO_LL_Project_LCD/STM32_template_proj/Drivers/STM32F1xx_HAL_Driver/Inc\stm32f1xx_ll_gpio.h **** #define LL_GPIO_MODE_ANALOG              0x00000000U       /*!< Select analog mode */
 143:C:/Users/nace/OneDrive/Desktop/STM32/Projects_nace/NUCLEO_LL_Project_LCD/STM32_template_proj/Drivers/STM32F1xx_HAL_Driver/Inc\stm32f1xx_ll_gpio.h **** #define LL_GPIO_MODE_FLOATING            GPIO_CRL_CNF0_0   /*!< Select floating mode */
 144:C:/Users/nace/OneDrive/Desktop/STM32/Projects_nace/NUCLEO_LL_Project_LCD/STM32_template_proj/Drivers/STM32F1xx_HAL_Driver/Inc\stm32f1xx_ll_gpio.h **** #define LL_GPIO_MODE_INPUT               GPIO_CRL_CNF0_1   /*!< Select input mode */
 145:C:/Users/nace/OneDrive/Desktop/STM32/Projects_nace/NUCLEO_LL_Project_LCD/STM32_template_proj/Drivers/STM32F1xx_HAL_Driver/Inc\stm32f1xx_ll_gpio.h **** #define LL_GPIO_MODE_OUTPUT              GPIO_CRL_MODE0_0  /*!< Select general purpose output mode 
 146:C:/Users/nace/OneDrive/Desktop/STM32/Projects_nace/NUCLEO_LL_Project_LCD/STM32_template_proj/Drivers/STM32F1xx_HAL_Driver/Inc\stm32f1xx_ll_gpio.h **** #define LL_GPIO_MODE_ALTERNATE           (GPIO_CRL_CNF0_1 | GPIO_CRL_MODE0_0) /*!< Select alternate
 147:C:/Users/nace/OneDrive/Desktop/STM32/Projects_nace/NUCLEO_LL_Project_LCD/STM32_template_proj/Drivers/STM32F1xx_HAL_Driver/Inc\stm32f1xx_ll_gpio.h **** /**
 148:C:/Users/nace/OneDrive/Desktop/STM32/Projects_nace/NUCLEO_LL_Project_LCD/STM32_template_proj/Drivers/STM32F1xx_HAL_Driver/Inc\stm32f1xx_ll_gpio.h ****   * @}
 149:C:/Users/nace/OneDrive/Desktop/STM32/Projects_nace/NUCLEO_LL_Project_LCD/STM32_template_proj/Drivers/STM32F1xx_HAL_Driver/Inc\stm32f1xx_ll_gpio.h ****   */
 150:C:/Users/nace/OneDrive/Desktop/STM32/Projects_nace/NUCLEO_LL_Project_LCD/STM32_template_proj/Drivers/STM32F1xx_HAL_Driver/Inc\stm32f1xx_ll_gpio.h **** 
 151:C:/Users/nace/OneDrive/Desktop/STM32/Projects_nace/NUCLEO_LL_Project_LCD/STM32_template_proj/Drivers/STM32F1xx_HAL_Driver/Inc\stm32f1xx_ll_gpio.h **** /** @defgroup GPIO_LL_EC_OUTPUT Output Type
 152:C:/Users/nace/OneDrive/Desktop/STM32/Projects_nace/NUCLEO_LL_Project_LCD/STM32_template_proj/Drivers/STM32F1xx_HAL_Driver/Inc\stm32f1xx_ll_gpio.h ****   * @{
 153:C:/Users/nace/OneDrive/Desktop/STM32/Projects_nace/NUCLEO_LL_Project_LCD/STM32_template_proj/Drivers/STM32F1xx_HAL_Driver/Inc\stm32f1xx_ll_gpio.h ****   */
 154:C:/Users/nace/OneDrive/Desktop/STM32/Projects_nace/NUCLEO_LL_Project_LCD/STM32_template_proj/Drivers/STM32F1xx_HAL_Driver/Inc\stm32f1xx_ll_gpio.h **** #define LL_GPIO_OUTPUT_PUSHPULL          0x00000000U                /*!< Select push-pull as output
 155:C:/Users/nace/OneDrive/Desktop/STM32/Projects_nace/NUCLEO_LL_Project_LCD/STM32_template_proj/Drivers/STM32F1xx_HAL_Driver/Inc\stm32f1xx_ll_gpio.h **** #define LL_GPIO_OUTPUT_OPENDRAIN         GPIO_CRL_CNF0_0            /*!< Select open-drain as outpu
 156:C:/Users/nace/OneDrive/Desktop/STM32/Projects_nace/NUCLEO_LL_Project_LCD/STM32_template_proj/Drivers/STM32F1xx_HAL_Driver/Inc\stm32f1xx_ll_gpio.h **** /**
 157:C:/Users/nace/OneDrive/Desktop/STM32/Projects_nace/NUCLEO_LL_Project_LCD/STM32_template_proj/Drivers/STM32F1xx_HAL_Driver/Inc\stm32f1xx_ll_gpio.h ****   * @}
 158:C:/Users/nace/OneDrive/Desktop/STM32/Projects_nace/NUCLEO_LL_Project_LCD/STM32_template_proj/Drivers/STM32F1xx_HAL_Driver/Inc\stm32f1xx_ll_gpio.h ****   */
 159:C:/Users/nace/OneDrive/Desktop/STM32/Projects_nace/NUCLEO_LL_Project_LCD/STM32_template_proj/Drivers/STM32F1xx_HAL_Driver/Inc\stm32f1xx_ll_gpio.h **** 
 160:C:/Users/nace/OneDrive/Desktop/STM32/Projects_nace/NUCLEO_LL_Project_LCD/STM32_template_proj/Drivers/STM32F1xx_HAL_Driver/Inc\stm32f1xx_ll_gpio.h **** /** @defgroup GPIO_LL_EC_SPEED Output Speed
 161:C:/Users/nace/OneDrive/Desktop/STM32/Projects_nace/NUCLEO_LL_Project_LCD/STM32_template_proj/Drivers/STM32F1xx_HAL_Driver/Inc\stm32f1xx_ll_gpio.h ****   * @{
 162:C:/Users/nace/OneDrive/Desktop/STM32/Projects_nace/NUCLEO_LL_Project_LCD/STM32_template_proj/Drivers/STM32F1xx_HAL_Driver/Inc\stm32f1xx_ll_gpio.h ****   */
 163:C:/Users/nace/OneDrive/Desktop/STM32/Projects_nace/NUCLEO_LL_Project_LCD/STM32_template_proj/Drivers/STM32F1xx_HAL_Driver/Inc\stm32f1xx_ll_gpio.h **** #define LL_GPIO_MODE_OUTPUT_10MHz        GPIO_CRL_MODE0_0            /*!< Select Output mode, max s
 164:C:/Users/nace/OneDrive/Desktop/STM32/Projects_nace/NUCLEO_LL_Project_LCD/STM32_template_proj/Drivers/STM32F1xx_HAL_Driver/Inc\stm32f1xx_ll_gpio.h **** #define LL_GPIO_MODE_OUTPUT_2MHz         GPIO_CRL_MODE0_1            /*!< Select Output mode, max s
 165:C:/Users/nace/OneDrive/Desktop/STM32/Projects_nace/NUCLEO_LL_Project_LCD/STM32_template_proj/Drivers/STM32F1xx_HAL_Driver/Inc\stm32f1xx_ll_gpio.h **** #define LL_GPIO_MODE_OUTPUT_50MHz        GPIO_CRL_MODE0              /*!< Select Output mode, max s
 166:C:/Users/nace/OneDrive/Desktop/STM32/Projects_nace/NUCLEO_LL_Project_LCD/STM32_template_proj/Drivers/STM32F1xx_HAL_Driver/Inc\stm32f1xx_ll_gpio.h **** /**
 167:C:/Users/nace/OneDrive/Desktop/STM32/Projects_nace/NUCLEO_LL_Project_LCD/STM32_template_proj/Drivers/STM32F1xx_HAL_Driver/Inc\stm32f1xx_ll_gpio.h ****   * @}
 168:C:/Users/nace/OneDrive/Desktop/STM32/Projects_nace/NUCLEO_LL_Project_LCD/STM32_template_proj/Drivers/STM32F1xx_HAL_Driver/Inc\stm32f1xx_ll_gpio.h ****   */
 169:C:/Users/nace/OneDrive/Desktop/STM32/Projects_nace/NUCLEO_LL_Project_LCD/STM32_template_proj/Drivers/STM32F1xx_HAL_Driver/Inc\stm32f1xx_ll_gpio.h **** 
 170:C:/Users/nace/OneDrive/Desktop/STM32/Projects_nace/NUCLEO_LL_Project_LCD/STM32_template_proj/Drivers/STM32F1xx_HAL_Driver/Inc\stm32f1xx_ll_gpio.h **** #define LL_GPIO_SPEED_FREQ_LOW           LL_GPIO_MODE_OUTPUT_2MHz    /*!< Select I/O low output spe
 171:C:/Users/nace/OneDrive/Desktop/STM32/Projects_nace/NUCLEO_LL_Project_LCD/STM32_template_proj/Drivers/STM32F1xx_HAL_Driver/Inc\stm32f1xx_ll_gpio.h **** #define LL_GPIO_SPEED_FREQ_MEDIUM        LL_GPIO_MODE_OUTPUT_10MHz   /*!< Select I/O medium output 
 172:C:/Users/nace/OneDrive/Desktop/STM32/Projects_nace/NUCLEO_LL_Project_LCD/STM32_template_proj/Drivers/STM32F1xx_HAL_Driver/Inc\stm32f1xx_ll_gpio.h **** #define LL_GPIO_SPEED_FREQ_HIGH          LL_GPIO_MODE_OUTPUT_50MHz   /*!< Select I/O high output sp
 173:C:/Users/nace/OneDrive/Desktop/STM32/Projects_nace/NUCLEO_LL_Project_LCD/STM32_template_proj/Drivers/STM32F1xx_HAL_Driver/Inc\stm32f1xx_ll_gpio.h **** 
 174:C:/Users/nace/OneDrive/Desktop/STM32/Projects_nace/NUCLEO_LL_Project_LCD/STM32_template_proj/Drivers/STM32F1xx_HAL_Driver/Inc\stm32f1xx_ll_gpio.h **** /** @defgroup GPIO_LL_EC_PULL Pull Up Pull Down
 175:C:/Users/nace/OneDrive/Desktop/STM32/Projects_nace/NUCLEO_LL_Project_LCD/STM32_template_proj/Drivers/STM32F1xx_HAL_Driver/Inc\stm32f1xx_ll_gpio.h ****   * @{
 176:C:/Users/nace/OneDrive/Desktop/STM32/Projects_nace/NUCLEO_LL_Project_LCD/STM32_template_proj/Drivers/STM32F1xx_HAL_Driver/Inc\stm32f1xx_ll_gpio.h ****   */
 177:C:/Users/nace/OneDrive/Desktop/STM32/Projects_nace/NUCLEO_LL_Project_LCD/STM32_template_proj/Drivers/STM32F1xx_HAL_Driver/Inc\stm32f1xx_ll_gpio.h **** #define LL_GPIO_PULL_DOWN                0x00000000U    /*!< Select I/O pull down */
 178:C:/Users/nace/OneDrive/Desktop/STM32/Projects_nace/NUCLEO_LL_Project_LCD/STM32_template_proj/Drivers/STM32F1xx_HAL_Driver/Inc\stm32f1xx_ll_gpio.h **** #define LL_GPIO_PULL_UP                  GPIO_ODR_ODR0  /*!< Select I/O pull up */
 179:C:/Users/nace/OneDrive/Desktop/STM32/Projects_nace/NUCLEO_LL_Project_LCD/STM32_template_proj/Drivers/STM32F1xx_HAL_Driver/Inc\stm32f1xx_ll_gpio.h **** 
 180:C:/Users/nace/OneDrive/Desktop/STM32/Projects_nace/NUCLEO_LL_Project_LCD/STM32_template_proj/Drivers/STM32F1xx_HAL_Driver/Inc\stm32f1xx_ll_gpio.h **** /**
 181:C:/Users/nace/OneDrive/Desktop/STM32/Projects_nace/NUCLEO_LL_Project_LCD/STM32_template_proj/Drivers/STM32F1xx_HAL_Driver/Inc\stm32f1xx_ll_gpio.h ****   * @}
 182:C:/Users/nace/OneDrive/Desktop/STM32/Projects_nace/NUCLEO_LL_Project_LCD/STM32_template_proj/Drivers/STM32F1xx_HAL_Driver/Inc\stm32f1xx_ll_gpio.h ****   */
 183:C:/Users/nace/OneDrive/Desktop/STM32/Projects_nace/NUCLEO_LL_Project_LCD/STM32_template_proj/Drivers/STM32F1xx_HAL_Driver/Inc\stm32f1xx_ll_gpio.h **** 
 184:C:/Users/nace/OneDrive/Desktop/STM32/Projects_nace/NUCLEO_LL_Project_LCD/STM32_template_proj/Drivers/STM32F1xx_HAL_Driver/Inc\stm32f1xx_ll_gpio.h **** /** @defgroup GPIO_LL_EVENTOUT_PIN EVENTOUT Pin
 185:C:/Users/nace/OneDrive/Desktop/STM32/Projects_nace/NUCLEO_LL_Project_LCD/STM32_template_proj/Drivers/STM32F1xx_HAL_Driver/Inc\stm32f1xx_ll_gpio.h ****   * @{
 186:C:/Users/nace/OneDrive/Desktop/STM32/Projects_nace/NUCLEO_LL_Project_LCD/STM32_template_proj/Drivers/STM32F1xx_HAL_Driver/Inc\stm32f1xx_ll_gpio.h ****   */
 187:C:/Users/nace/OneDrive/Desktop/STM32/Projects_nace/NUCLEO_LL_Project_LCD/STM32_template_proj/Drivers/STM32F1xx_HAL_Driver/Inc\stm32f1xx_ll_gpio.h **** 
 188:C:/Users/nace/OneDrive/Desktop/STM32/Projects_nace/NUCLEO_LL_Project_LCD/STM32_template_proj/Drivers/STM32F1xx_HAL_Driver/Inc\stm32f1xx_ll_gpio.h **** #define LL_GPIO_AF_EVENTOUT_PIN_0        AFIO_EVCR_PIN_PX0   /*!< EVENTOUT on pin 0 */
 189:C:/Users/nace/OneDrive/Desktop/STM32/Projects_nace/NUCLEO_LL_Project_LCD/STM32_template_proj/Drivers/STM32F1xx_HAL_Driver/Inc\stm32f1xx_ll_gpio.h **** #define LL_GPIO_AF_EVENTOUT_PIN_1        AFIO_EVCR_PIN_PX1   /*!< EVENTOUT on pin 1 */
 190:C:/Users/nace/OneDrive/Desktop/STM32/Projects_nace/NUCLEO_LL_Project_LCD/STM32_template_proj/Drivers/STM32F1xx_HAL_Driver/Inc\stm32f1xx_ll_gpio.h **** #define LL_GPIO_AF_EVENTOUT_PIN_2        AFIO_EVCR_PIN_PX2   /*!< EVENTOUT on pin 2 */
 191:C:/Users/nace/OneDrive/Desktop/STM32/Projects_nace/NUCLEO_LL_Project_LCD/STM32_template_proj/Drivers/STM32F1xx_HAL_Driver/Inc\stm32f1xx_ll_gpio.h **** #define LL_GPIO_AF_EVENTOUT_PIN_3        AFIO_EVCR_PIN_PX3   /*!< EVENTOUT on pin 3 */
 192:C:/Users/nace/OneDrive/Desktop/STM32/Projects_nace/NUCLEO_LL_Project_LCD/STM32_template_proj/Drivers/STM32F1xx_HAL_Driver/Inc\stm32f1xx_ll_gpio.h **** #define LL_GPIO_AF_EVENTOUT_PIN_4        AFIO_EVCR_PIN_PX4   /*!< EVENTOUT on pin 4 */
 193:C:/Users/nace/OneDrive/Desktop/STM32/Projects_nace/NUCLEO_LL_Project_LCD/STM32_template_proj/Drivers/STM32F1xx_HAL_Driver/Inc\stm32f1xx_ll_gpio.h **** #define LL_GPIO_AF_EVENTOUT_PIN_5        AFIO_EVCR_PIN_PX5   /*!< EVENTOUT on pin 5 */
 194:C:/Users/nace/OneDrive/Desktop/STM32/Projects_nace/NUCLEO_LL_Project_LCD/STM32_template_proj/Drivers/STM32F1xx_HAL_Driver/Inc\stm32f1xx_ll_gpio.h **** #define LL_GPIO_AF_EVENTOUT_PIN_6        AFIO_EVCR_PIN_PX6   /*!< EVENTOUT on pin 6 */
 195:C:/Users/nace/OneDrive/Desktop/STM32/Projects_nace/NUCLEO_LL_Project_LCD/STM32_template_proj/Drivers/STM32F1xx_HAL_Driver/Inc\stm32f1xx_ll_gpio.h **** #define LL_GPIO_AF_EVENTOUT_PIN_7        AFIO_EVCR_PIN_PX7   /*!< EVENTOUT on pin 7 */
 196:C:/Users/nace/OneDrive/Desktop/STM32/Projects_nace/NUCLEO_LL_Project_LCD/STM32_template_proj/Drivers/STM32F1xx_HAL_Driver/Inc\stm32f1xx_ll_gpio.h **** #define LL_GPIO_AF_EVENTOUT_PIN_8        AFIO_EVCR_PIN_PX8   /*!< EVENTOUT on pin 8 */
 197:C:/Users/nace/OneDrive/Desktop/STM32/Projects_nace/NUCLEO_LL_Project_LCD/STM32_template_proj/Drivers/STM32F1xx_HAL_Driver/Inc\stm32f1xx_ll_gpio.h **** #define LL_GPIO_AF_EVENTOUT_PIN_9        AFIO_EVCR_PIN_PX9   /*!< EVENTOUT on pin 9 */
 198:C:/Users/nace/OneDrive/Desktop/STM32/Projects_nace/NUCLEO_LL_Project_LCD/STM32_template_proj/Drivers/STM32F1xx_HAL_Driver/Inc\stm32f1xx_ll_gpio.h **** #define LL_GPIO_AF_EVENTOUT_PIN_10       AFIO_EVCR_PIN_PX10  /*!< EVENTOUT on pin 10 */
 199:C:/Users/nace/OneDrive/Desktop/STM32/Projects_nace/NUCLEO_LL_Project_LCD/STM32_template_proj/Drivers/STM32F1xx_HAL_Driver/Inc\stm32f1xx_ll_gpio.h **** #define LL_GPIO_AF_EVENTOUT_PIN_11       AFIO_EVCR_PIN_PX11  /*!< EVENTOUT on pin 11 */
 200:C:/Users/nace/OneDrive/Desktop/STM32/Projects_nace/NUCLEO_LL_Project_LCD/STM32_template_proj/Drivers/STM32F1xx_HAL_Driver/Inc\stm32f1xx_ll_gpio.h **** #define LL_GPIO_AF_EVENTOUT_PIN_12       AFIO_EVCR_PIN_PX12  /*!< EVENTOUT on pin 12 */
 201:C:/Users/nace/OneDrive/Desktop/STM32/Projects_nace/NUCLEO_LL_Project_LCD/STM32_template_proj/Drivers/STM32F1xx_HAL_Driver/Inc\stm32f1xx_ll_gpio.h **** #define LL_GPIO_AF_EVENTOUT_PIN_13       AFIO_EVCR_PIN_PX13  /*!< EVENTOUT on pin 13 */
 202:C:/Users/nace/OneDrive/Desktop/STM32/Projects_nace/NUCLEO_LL_Project_LCD/STM32_template_proj/Drivers/STM32F1xx_HAL_Driver/Inc\stm32f1xx_ll_gpio.h **** #define LL_GPIO_AF_EVENTOUT_PIN_14       AFIO_EVCR_PIN_PX14  /*!< EVENTOUT on pin 14 */
 203:C:/Users/nace/OneDrive/Desktop/STM32/Projects_nace/NUCLEO_LL_Project_LCD/STM32_template_proj/Drivers/STM32F1xx_HAL_Driver/Inc\stm32f1xx_ll_gpio.h **** #define LL_GPIO_AF_EVENTOUT_PIN_15       AFIO_EVCR_PIN_PX15  /*!< EVENTOUT on pin 15 */
 204:C:/Users/nace/OneDrive/Desktop/STM32/Projects_nace/NUCLEO_LL_Project_LCD/STM32_template_proj/Drivers/STM32F1xx_HAL_Driver/Inc\stm32f1xx_ll_gpio.h **** 
 205:C:/Users/nace/OneDrive/Desktop/STM32/Projects_nace/NUCLEO_LL_Project_LCD/STM32_template_proj/Drivers/STM32F1xx_HAL_Driver/Inc\stm32f1xx_ll_gpio.h **** /**
 206:C:/Users/nace/OneDrive/Desktop/STM32/Projects_nace/NUCLEO_LL_Project_LCD/STM32_template_proj/Drivers/STM32F1xx_HAL_Driver/Inc\stm32f1xx_ll_gpio.h ****   * @}
 207:C:/Users/nace/OneDrive/Desktop/STM32/Projects_nace/NUCLEO_LL_Project_LCD/STM32_template_proj/Drivers/STM32F1xx_HAL_Driver/Inc\stm32f1xx_ll_gpio.h ****   */
 208:C:/Users/nace/OneDrive/Desktop/STM32/Projects_nace/NUCLEO_LL_Project_LCD/STM32_template_proj/Drivers/STM32F1xx_HAL_Driver/Inc\stm32f1xx_ll_gpio.h **** 
 209:C:/Users/nace/OneDrive/Desktop/STM32/Projects_nace/NUCLEO_LL_Project_LCD/STM32_template_proj/Drivers/STM32F1xx_HAL_Driver/Inc\stm32f1xx_ll_gpio.h **** /** @defgroup GPIO_LL_EVENTOUT_PORT EVENTOUT Port
 210:C:/Users/nace/OneDrive/Desktop/STM32/Projects_nace/NUCLEO_LL_Project_LCD/STM32_template_proj/Drivers/STM32F1xx_HAL_Driver/Inc\stm32f1xx_ll_gpio.h ****   * @{
 211:C:/Users/nace/OneDrive/Desktop/STM32/Projects_nace/NUCLEO_LL_Project_LCD/STM32_template_proj/Drivers/STM32F1xx_HAL_Driver/Inc\stm32f1xx_ll_gpio.h ****   */
 212:C:/Users/nace/OneDrive/Desktop/STM32/Projects_nace/NUCLEO_LL_Project_LCD/STM32_template_proj/Drivers/STM32F1xx_HAL_Driver/Inc\stm32f1xx_ll_gpio.h **** 
 213:C:/Users/nace/OneDrive/Desktop/STM32/Projects_nace/NUCLEO_LL_Project_LCD/STM32_template_proj/Drivers/STM32F1xx_HAL_Driver/Inc\stm32f1xx_ll_gpio.h **** #define LL_GPIO_AF_EVENTOUT_PORT_A       AFIO_EVCR_PORT_PA  /*!< EVENTOUT on port A */
 214:C:/Users/nace/OneDrive/Desktop/STM32/Projects_nace/NUCLEO_LL_Project_LCD/STM32_template_proj/Drivers/STM32F1xx_HAL_Driver/Inc\stm32f1xx_ll_gpio.h **** #define LL_GPIO_AF_EVENTOUT_PORT_B       AFIO_EVCR_PORT_PB  /*!< EVENTOUT on port B */
 215:C:/Users/nace/OneDrive/Desktop/STM32/Projects_nace/NUCLEO_LL_Project_LCD/STM32_template_proj/Drivers/STM32F1xx_HAL_Driver/Inc\stm32f1xx_ll_gpio.h **** #define LL_GPIO_AF_EVENTOUT_PORT_C       AFIO_EVCR_PORT_PC  /*!< EVENTOUT on port C */
 216:C:/Users/nace/OneDrive/Desktop/STM32/Projects_nace/NUCLEO_LL_Project_LCD/STM32_template_proj/Drivers/STM32F1xx_HAL_Driver/Inc\stm32f1xx_ll_gpio.h **** #define LL_GPIO_AF_EVENTOUT_PORT_D       AFIO_EVCR_PORT_PD  /*!< EVENTOUT on port D */
 217:C:/Users/nace/OneDrive/Desktop/STM32/Projects_nace/NUCLEO_LL_Project_LCD/STM32_template_proj/Drivers/STM32F1xx_HAL_Driver/Inc\stm32f1xx_ll_gpio.h **** #define LL_GPIO_AF_EVENTOUT_PORT_E       AFIO_EVCR_PORT_PE  /*!< EVENTOUT on port E */
 218:C:/Users/nace/OneDrive/Desktop/STM32/Projects_nace/NUCLEO_LL_Project_LCD/STM32_template_proj/Drivers/STM32F1xx_HAL_Driver/Inc\stm32f1xx_ll_gpio.h **** 
 219:C:/Users/nace/OneDrive/Desktop/STM32/Projects_nace/NUCLEO_LL_Project_LCD/STM32_template_proj/Drivers/STM32F1xx_HAL_Driver/Inc\stm32f1xx_ll_gpio.h **** /**
 220:C:/Users/nace/OneDrive/Desktop/STM32/Projects_nace/NUCLEO_LL_Project_LCD/STM32_template_proj/Drivers/STM32F1xx_HAL_Driver/Inc\stm32f1xx_ll_gpio.h ****   * @}
 221:C:/Users/nace/OneDrive/Desktop/STM32/Projects_nace/NUCLEO_LL_Project_LCD/STM32_template_proj/Drivers/STM32F1xx_HAL_Driver/Inc\stm32f1xx_ll_gpio.h ****   */
 222:C:/Users/nace/OneDrive/Desktop/STM32/Projects_nace/NUCLEO_LL_Project_LCD/STM32_template_proj/Drivers/STM32F1xx_HAL_Driver/Inc\stm32f1xx_ll_gpio.h **** 
 223:C:/Users/nace/OneDrive/Desktop/STM32/Projects_nace/NUCLEO_LL_Project_LCD/STM32_template_proj/Drivers/STM32F1xx_HAL_Driver/Inc\stm32f1xx_ll_gpio.h **** /** @defgroup GPIO_LL_EC_EXTI_PORT GPIO EXTI PORT
 224:C:/Users/nace/OneDrive/Desktop/STM32/Projects_nace/NUCLEO_LL_Project_LCD/STM32_template_proj/Drivers/STM32F1xx_HAL_Driver/Inc\stm32f1xx_ll_gpio.h ****   * @{
 225:C:/Users/nace/OneDrive/Desktop/STM32/Projects_nace/NUCLEO_LL_Project_LCD/STM32_template_proj/Drivers/STM32F1xx_HAL_Driver/Inc\stm32f1xx_ll_gpio.h ****   */
 226:C:/Users/nace/OneDrive/Desktop/STM32/Projects_nace/NUCLEO_LL_Project_LCD/STM32_template_proj/Drivers/STM32F1xx_HAL_Driver/Inc\stm32f1xx_ll_gpio.h **** #define LL_GPIO_AF_EXTI_PORTA            0U   /*!< EXTI PORT A */
 227:C:/Users/nace/OneDrive/Desktop/STM32/Projects_nace/NUCLEO_LL_Project_LCD/STM32_template_proj/Drivers/STM32F1xx_HAL_Driver/Inc\stm32f1xx_ll_gpio.h **** #define LL_GPIO_AF_EXTI_PORTB            1U   /*!< EXTI PORT B */
 228:C:/Users/nace/OneDrive/Desktop/STM32/Projects_nace/NUCLEO_LL_Project_LCD/STM32_template_proj/Drivers/STM32F1xx_HAL_Driver/Inc\stm32f1xx_ll_gpio.h **** #define LL_GPIO_AF_EXTI_PORTC            2U   /*!< EXTI PORT C */
 229:C:/Users/nace/OneDrive/Desktop/STM32/Projects_nace/NUCLEO_LL_Project_LCD/STM32_template_proj/Drivers/STM32F1xx_HAL_Driver/Inc\stm32f1xx_ll_gpio.h **** #define LL_GPIO_AF_EXTI_PORTD            3U   /*!< EXTI PORT D */
 230:C:/Users/nace/OneDrive/Desktop/STM32/Projects_nace/NUCLEO_LL_Project_LCD/STM32_template_proj/Drivers/STM32F1xx_HAL_Driver/Inc\stm32f1xx_ll_gpio.h **** #define LL_GPIO_AF_EXTI_PORTE            4U   /*!< EXTI PORT E */
 231:C:/Users/nace/OneDrive/Desktop/STM32/Projects_nace/NUCLEO_LL_Project_LCD/STM32_template_proj/Drivers/STM32F1xx_HAL_Driver/Inc\stm32f1xx_ll_gpio.h **** #define LL_GPIO_AF_EXTI_PORTF            5U   /*!< EXTI PORT F */
 232:C:/Users/nace/OneDrive/Desktop/STM32/Projects_nace/NUCLEO_LL_Project_LCD/STM32_template_proj/Drivers/STM32F1xx_HAL_Driver/Inc\stm32f1xx_ll_gpio.h **** #define LL_GPIO_AF_EXTI_PORTG            6U   /*!< EXTI PORT G */
 233:C:/Users/nace/OneDrive/Desktop/STM32/Projects_nace/NUCLEO_LL_Project_LCD/STM32_template_proj/Drivers/STM32F1xx_HAL_Driver/Inc\stm32f1xx_ll_gpio.h **** /**
 234:C:/Users/nace/OneDrive/Desktop/STM32/Projects_nace/NUCLEO_LL_Project_LCD/STM32_template_proj/Drivers/STM32F1xx_HAL_Driver/Inc\stm32f1xx_ll_gpio.h ****   * @}
 235:C:/Users/nace/OneDrive/Desktop/STM32/Projects_nace/NUCLEO_LL_Project_LCD/STM32_template_proj/Drivers/STM32F1xx_HAL_Driver/Inc\stm32f1xx_ll_gpio.h ****   */
 236:C:/Users/nace/OneDrive/Desktop/STM32/Projects_nace/NUCLEO_LL_Project_LCD/STM32_template_proj/Drivers/STM32F1xx_HAL_Driver/Inc\stm32f1xx_ll_gpio.h **** 
 237:C:/Users/nace/OneDrive/Desktop/STM32/Projects_nace/NUCLEO_LL_Project_LCD/STM32_template_proj/Drivers/STM32F1xx_HAL_Driver/Inc\stm32f1xx_ll_gpio.h **** /** @defgroup GPIO_LL_EC_EXTI_LINE GPIO EXTI LINE
 238:C:/Users/nace/OneDrive/Desktop/STM32/Projects_nace/NUCLEO_LL_Project_LCD/STM32_template_proj/Drivers/STM32F1xx_HAL_Driver/Inc\stm32f1xx_ll_gpio.h ****   * @{
 239:C:/Users/nace/OneDrive/Desktop/STM32/Projects_nace/NUCLEO_LL_Project_LCD/STM32_template_proj/Drivers/STM32F1xx_HAL_Driver/Inc\stm32f1xx_ll_gpio.h ****   */
 240:C:/Users/nace/OneDrive/Desktop/STM32/Projects_nace/NUCLEO_LL_Project_LCD/STM32_template_proj/Drivers/STM32F1xx_HAL_Driver/Inc\stm32f1xx_ll_gpio.h **** #define LL_GPIO_AF_EXTI_LINE0            (0x000FU << 16U | 0U)  /*!< EXTI_POSITION_0  | EXTICR[0] *
 241:C:/Users/nace/OneDrive/Desktop/STM32/Projects_nace/NUCLEO_LL_Project_LCD/STM32_template_proj/Drivers/STM32F1xx_HAL_Driver/Inc\stm32f1xx_ll_gpio.h **** #define LL_GPIO_AF_EXTI_LINE1            (0x00F0U << 16U | 0U)  /*!< EXTI_POSITION_4  | EXTICR[0] *
 242:C:/Users/nace/OneDrive/Desktop/STM32/Projects_nace/NUCLEO_LL_Project_LCD/STM32_template_proj/Drivers/STM32F1xx_HAL_Driver/Inc\stm32f1xx_ll_gpio.h **** #define LL_GPIO_AF_EXTI_LINE2            (0x0F00U << 16U | 0U)  /*!< EXTI_POSITION_8  | EXTICR[0] *
 243:C:/Users/nace/OneDrive/Desktop/STM32/Projects_nace/NUCLEO_LL_Project_LCD/STM32_template_proj/Drivers/STM32F1xx_HAL_Driver/Inc\stm32f1xx_ll_gpio.h **** #define LL_GPIO_AF_EXTI_LINE3            (0xF000U << 16U | 0U)  /*!< EXTI_POSITION_12 | EXTICR[0] *
 244:C:/Users/nace/OneDrive/Desktop/STM32/Projects_nace/NUCLEO_LL_Project_LCD/STM32_template_proj/Drivers/STM32F1xx_HAL_Driver/Inc\stm32f1xx_ll_gpio.h **** #define LL_GPIO_AF_EXTI_LINE4            (0x000FU << 16U | 1U)  /*!< EXTI_POSITION_0  | EXTICR[1] *
 245:C:/Users/nace/OneDrive/Desktop/STM32/Projects_nace/NUCLEO_LL_Project_LCD/STM32_template_proj/Drivers/STM32F1xx_HAL_Driver/Inc\stm32f1xx_ll_gpio.h **** #define LL_GPIO_AF_EXTI_LINE5            (0x00F0U << 16U | 1U)  /*!< EXTI_POSITION_4  | EXTICR[1] *
 246:C:/Users/nace/OneDrive/Desktop/STM32/Projects_nace/NUCLEO_LL_Project_LCD/STM32_template_proj/Drivers/STM32F1xx_HAL_Driver/Inc\stm32f1xx_ll_gpio.h **** #define LL_GPIO_AF_EXTI_LINE6            (0x0F00U << 16U | 1U)  /*!< EXTI_POSITION_8  | EXTICR[1] *
 247:C:/Users/nace/OneDrive/Desktop/STM32/Projects_nace/NUCLEO_LL_Project_LCD/STM32_template_proj/Drivers/STM32F1xx_HAL_Driver/Inc\stm32f1xx_ll_gpio.h **** #define LL_GPIO_AF_EXTI_LINE7            (0xF000U << 16U | 1U)  /*!< EXTI_POSITION_12 | EXTICR[1] *
 248:C:/Users/nace/OneDrive/Desktop/STM32/Projects_nace/NUCLEO_LL_Project_LCD/STM32_template_proj/Drivers/STM32F1xx_HAL_Driver/Inc\stm32f1xx_ll_gpio.h **** #define LL_GPIO_AF_EXTI_LINE8            (0x000FU << 16U | 2U)  /*!< EXTI_POSITION_0  | EXTICR[2] *
 249:C:/Users/nace/OneDrive/Desktop/STM32/Projects_nace/NUCLEO_LL_Project_LCD/STM32_template_proj/Drivers/STM32F1xx_HAL_Driver/Inc\stm32f1xx_ll_gpio.h **** #define LL_GPIO_AF_EXTI_LINE9            (0x00F0U << 16U | 2U)  /*!< EXTI_POSITION_4  | EXTICR[2] *
 250:C:/Users/nace/OneDrive/Desktop/STM32/Projects_nace/NUCLEO_LL_Project_LCD/STM32_template_proj/Drivers/STM32F1xx_HAL_Driver/Inc\stm32f1xx_ll_gpio.h **** #define LL_GPIO_AF_EXTI_LINE10           (0x0F00U << 16U | 2U)  /*!< EXTI_POSITION_8  | EXTICR[2] *
 251:C:/Users/nace/OneDrive/Desktop/STM32/Projects_nace/NUCLEO_LL_Project_LCD/STM32_template_proj/Drivers/STM32F1xx_HAL_Driver/Inc\stm32f1xx_ll_gpio.h **** #define LL_GPIO_AF_EXTI_LINE11           (0xF000U << 16U | 2U)  /*!< EXTI_POSITION_12 | EXTICR[2] *
 252:C:/Users/nace/OneDrive/Desktop/STM32/Projects_nace/NUCLEO_LL_Project_LCD/STM32_template_proj/Drivers/STM32F1xx_HAL_Driver/Inc\stm32f1xx_ll_gpio.h **** #define LL_GPIO_AF_EXTI_LINE12           (0x000FU << 16U | 3U)  /*!< EXTI_POSITION_0  | EXTICR[3] *
 253:C:/Users/nace/OneDrive/Desktop/STM32/Projects_nace/NUCLEO_LL_Project_LCD/STM32_template_proj/Drivers/STM32F1xx_HAL_Driver/Inc\stm32f1xx_ll_gpio.h **** #define LL_GPIO_AF_EXTI_LINE13           (0x00F0U << 16U | 3U)  /*!< EXTI_POSITION_4  | EXTICR[3] *
 254:C:/Users/nace/OneDrive/Desktop/STM32/Projects_nace/NUCLEO_LL_Project_LCD/STM32_template_proj/Drivers/STM32F1xx_HAL_Driver/Inc\stm32f1xx_ll_gpio.h **** #define LL_GPIO_AF_EXTI_LINE14           (0x0F00U << 16U | 3U)  /*!< EXTI_POSITION_8  | EXTICR[3] *
 255:C:/Users/nace/OneDrive/Desktop/STM32/Projects_nace/NUCLEO_LL_Project_LCD/STM32_template_proj/Drivers/STM32F1xx_HAL_Driver/Inc\stm32f1xx_ll_gpio.h **** #define LL_GPIO_AF_EXTI_LINE15           (0xF000U << 16U | 3U)  /*!< EXTI_POSITION_12 | EXTICR[3] *
 256:C:/Users/nace/OneDrive/Desktop/STM32/Projects_nace/NUCLEO_LL_Project_LCD/STM32_template_proj/Drivers/STM32F1xx_HAL_Driver/Inc\stm32f1xx_ll_gpio.h **** /**
 257:C:/Users/nace/OneDrive/Desktop/STM32/Projects_nace/NUCLEO_LL_Project_LCD/STM32_template_proj/Drivers/STM32F1xx_HAL_Driver/Inc\stm32f1xx_ll_gpio.h ****   * @}
 258:C:/Users/nace/OneDrive/Desktop/STM32/Projects_nace/NUCLEO_LL_Project_LCD/STM32_template_proj/Drivers/STM32F1xx_HAL_Driver/Inc\stm32f1xx_ll_gpio.h ****   */
 259:C:/Users/nace/OneDrive/Desktop/STM32/Projects_nace/NUCLEO_LL_Project_LCD/STM32_template_proj/Drivers/STM32F1xx_HAL_Driver/Inc\stm32f1xx_ll_gpio.h **** 
 260:C:/Users/nace/OneDrive/Desktop/STM32/Projects_nace/NUCLEO_LL_Project_LCD/STM32_template_proj/Drivers/STM32F1xx_HAL_Driver/Inc\stm32f1xx_ll_gpio.h **** /**
 261:C:/Users/nace/OneDrive/Desktop/STM32/Projects_nace/NUCLEO_LL_Project_LCD/STM32_template_proj/Drivers/STM32F1xx_HAL_Driver/Inc\stm32f1xx_ll_gpio.h ****   * @}
 262:C:/Users/nace/OneDrive/Desktop/STM32/Projects_nace/NUCLEO_LL_Project_LCD/STM32_template_proj/Drivers/STM32F1xx_HAL_Driver/Inc\stm32f1xx_ll_gpio.h ****   */
 263:C:/Users/nace/OneDrive/Desktop/STM32/Projects_nace/NUCLEO_LL_Project_LCD/STM32_template_proj/Drivers/STM32F1xx_HAL_Driver/Inc\stm32f1xx_ll_gpio.h **** 
 264:C:/Users/nace/OneDrive/Desktop/STM32/Projects_nace/NUCLEO_LL_Project_LCD/STM32_template_proj/Drivers/STM32F1xx_HAL_Driver/Inc\stm32f1xx_ll_gpio.h **** /* Exported macro ------------------------------------------------------------*/
 265:C:/Users/nace/OneDrive/Desktop/STM32/Projects_nace/NUCLEO_LL_Project_LCD/STM32_template_proj/Drivers/STM32F1xx_HAL_Driver/Inc\stm32f1xx_ll_gpio.h **** /** @defgroup GPIO_LL_Exported_Macros GPIO Exported Macros
 266:C:/Users/nace/OneDrive/Desktop/STM32/Projects_nace/NUCLEO_LL_Project_LCD/STM32_template_proj/Drivers/STM32F1xx_HAL_Driver/Inc\stm32f1xx_ll_gpio.h ****   * @{
 267:C:/Users/nace/OneDrive/Desktop/STM32/Projects_nace/NUCLEO_LL_Project_LCD/STM32_template_proj/Drivers/STM32F1xx_HAL_Driver/Inc\stm32f1xx_ll_gpio.h ****   */
 268:C:/Users/nace/OneDrive/Desktop/STM32/Projects_nace/NUCLEO_LL_Project_LCD/STM32_template_proj/Drivers/STM32F1xx_HAL_Driver/Inc\stm32f1xx_ll_gpio.h **** 
 269:C:/Users/nace/OneDrive/Desktop/STM32/Projects_nace/NUCLEO_LL_Project_LCD/STM32_template_proj/Drivers/STM32F1xx_HAL_Driver/Inc\stm32f1xx_ll_gpio.h **** /** @defgroup GPIO_LL_EM_WRITE_READ Common Write and read registers Macros
 270:C:/Users/nace/OneDrive/Desktop/STM32/Projects_nace/NUCLEO_LL_Project_LCD/STM32_template_proj/Drivers/STM32F1xx_HAL_Driver/Inc\stm32f1xx_ll_gpio.h ****   * @{
 271:C:/Users/nace/OneDrive/Desktop/STM32/Projects_nace/NUCLEO_LL_Project_LCD/STM32_template_proj/Drivers/STM32F1xx_HAL_Driver/Inc\stm32f1xx_ll_gpio.h ****   */
 272:C:/Users/nace/OneDrive/Desktop/STM32/Projects_nace/NUCLEO_LL_Project_LCD/STM32_template_proj/Drivers/STM32F1xx_HAL_Driver/Inc\stm32f1xx_ll_gpio.h **** 
 273:C:/Users/nace/OneDrive/Desktop/STM32/Projects_nace/NUCLEO_LL_Project_LCD/STM32_template_proj/Drivers/STM32F1xx_HAL_Driver/Inc\stm32f1xx_ll_gpio.h **** /**
 274:C:/Users/nace/OneDrive/Desktop/STM32/Projects_nace/NUCLEO_LL_Project_LCD/STM32_template_proj/Drivers/STM32F1xx_HAL_Driver/Inc\stm32f1xx_ll_gpio.h ****   * @brief  Write a value in GPIO register
 275:C:/Users/nace/OneDrive/Desktop/STM32/Projects_nace/NUCLEO_LL_Project_LCD/STM32_template_proj/Drivers/STM32F1xx_HAL_Driver/Inc\stm32f1xx_ll_gpio.h ****   * @param  __INSTANCE__ GPIO Instance
 276:C:/Users/nace/OneDrive/Desktop/STM32/Projects_nace/NUCLEO_LL_Project_LCD/STM32_template_proj/Drivers/STM32F1xx_HAL_Driver/Inc\stm32f1xx_ll_gpio.h ****   * @param  __REG__ Register to be written
 277:C:/Users/nace/OneDrive/Desktop/STM32/Projects_nace/NUCLEO_LL_Project_LCD/STM32_template_proj/Drivers/STM32F1xx_HAL_Driver/Inc\stm32f1xx_ll_gpio.h ****   * @param  __VALUE__ Value to be written in the register
 278:C:/Users/nace/OneDrive/Desktop/STM32/Projects_nace/NUCLEO_LL_Project_LCD/STM32_template_proj/Drivers/STM32F1xx_HAL_Driver/Inc\stm32f1xx_ll_gpio.h ****   * @retval None
 279:C:/Users/nace/OneDrive/Desktop/STM32/Projects_nace/NUCLEO_LL_Project_LCD/STM32_template_proj/Drivers/STM32F1xx_HAL_Driver/Inc\stm32f1xx_ll_gpio.h ****   */
 280:C:/Users/nace/OneDrive/Desktop/STM32/Projects_nace/NUCLEO_LL_Project_LCD/STM32_template_proj/Drivers/STM32F1xx_HAL_Driver/Inc\stm32f1xx_ll_gpio.h **** #define LL_GPIO_WriteReg(__INSTANCE__, __REG__, __VALUE__) WRITE_REG(__INSTANCE__->__REG__, (__VALU
 281:C:/Users/nace/OneDrive/Desktop/STM32/Projects_nace/NUCLEO_LL_Project_LCD/STM32_template_proj/Drivers/STM32F1xx_HAL_Driver/Inc\stm32f1xx_ll_gpio.h **** 
 282:C:/Users/nace/OneDrive/Desktop/STM32/Projects_nace/NUCLEO_LL_Project_LCD/STM32_template_proj/Drivers/STM32F1xx_HAL_Driver/Inc\stm32f1xx_ll_gpio.h **** /**
 283:C:/Users/nace/OneDrive/Desktop/STM32/Projects_nace/NUCLEO_LL_Project_LCD/STM32_template_proj/Drivers/STM32F1xx_HAL_Driver/Inc\stm32f1xx_ll_gpio.h ****   * @brief  Read a value in GPIO register
 284:C:/Users/nace/OneDrive/Desktop/STM32/Projects_nace/NUCLEO_LL_Project_LCD/STM32_template_proj/Drivers/STM32F1xx_HAL_Driver/Inc\stm32f1xx_ll_gpio.h ****   * @param  __INSTANCE__ GPIO Instance
 285:C:/Users/nace/OneDrive/Desktop/STM32/Projects_nace/NUCLEO_LL_Project_LCD/STM32_template_proj/Drivers/STM32F1xx_HAL_Driver/Inc\stm32f1xx_ll_gpio.h ****   * @param  __REG__ Register to be read
 286:C:/Users/nace/OneDrive/Desktop/STM32/Projects_nace/NUCLEO_LL_Project_LCD/STM32_template_proj/Drivers/STM32F1xx_HAL_Driver/Inc\stm32f1xx_ll_gpio.h ****   * @retval Register value
 287:C:/Users/nace/OneDrive/Desktop/STM32/Projects_nace/NUCLEO_LL_Project_LCD/STM32_template_proj/Drivers/STM32F1xx_HAL_Driver/Inc\stm32f1xx_ll_gpio.h ****   */
 288:C:/Users/nace/OneDrive/Desktop/STM32/Projects_nace/NUCLEO_LL_Project_LCD/STM32_template_proj/Drivers/STM32F1xx_HAL_Driver/Inc\stm32f1xx_ll_gpio.h **** #define LL_GPIO_ReadReg(__INSTANCE__, __REG__) READ_REG(__INSTANCE__->__REG__)
 289:C:/Users/nace/OneDrive/Desktop/STM32/Projects_nace/NUCLEO_LL_Project_LCD/STM32_template_proj/Drivers/STM32F1xx_HAL_Driver/Inc\stm32f1xx_ll_gpio.h **** /**
 290:C:/Users/nace/OneDrive/Desktop/STM32/Projects_nace/NUCLEO_LL_Project_LCD/STM32_template_proj/Drivers/STM32F1xx_HAL_Driver/Inc\stm32f1xx_ll_gpio.h ****   * @}
 291:C:/Users/nace/OneDrive/Desktop/STM32/Projects_nace/NUCLEO_LL_Project_LCD/STM32_template_proj/Drivers/STM32F1xx_HAL_Driver/Inc\stm32f1xx_ll_gpio.h ****   */
 292:C:/Users/nace/OneDrive/Desktop/STM32/Projects_nace/NUCLEO_LL_Project_LCD/STM32_template_proj/Drivers/STM32F1xx_HAL_Driver/Inc\stm32f1xx_ll_gpio.h **** 
 293:C:/Users/nace/OneDrive/Desktop/STM32/Projects_nace/NUCLEO_LL_Project_LCD/STM32_template_proj/Drivers/STM32F1xx_HAL_Driver/Inc\stm32f1xx_ll_gpio.h **** /**
 294:C:/Users/nace/OneDrive/Desktop/STM32/Projects_nace/NUCLEO_LL_Project_LCD/STM32_template_proj/Drivers/STM32F1xx_HAL_Driver/Inc\stm32f1xx_ll_gpio.h ****   * @}
 295:C:/Users/nace/OneDrive/Desktop/STM32/Projects_nace/NUCLEO_LL_Project_LCD/STM32_template_proj/Drivers/STM32F1xx_HAL_Driver/Inc\stm32f1xx_ll_gpio.h ****   */
 296:C:/Users/nace/OneDrive/Desktop/STM32/Projects_nace/NUCLEO_LL_Project_LCD/STM32_template_proj/Drivers/STM32F1xx_HAL_Driver/Inc\stm32f1xx_ll_gpio.h **** 
 297:C:/Users/nace/OneDrive/Desktop/STM32/Projects_nace/NUCLEO_LL_Project_LCD/STM32_template_proj/Drivers/STM32F1xx_HAL_Driver/Inc\stm32f1xx_ll_gpio.h **** /* Exported functions --------------------------------------------------------*/
 298:C:/Users/nace/OneDrive/Desktop/STM32/Projects_nace/NUCLEO_LL_Project_LCD/STM32_template_proj/Drivers/STM32F1xx_HAL_Driver/Inc\stm32f1xx_ll_gpio.h **** /** @defgroup GPIO_LL_Exported_Functions GPIO Exported Functions
 299:C:/Users/nace/OneDrive/Desktop/STM32/Projects_nace/NUCLEO_LL_Project_LCD/STM32_template_proj/Drivers/STM32F1xx_HAL_Driver/Inc\stm32f1xx_ll_gpio.h ****   * @{
 300:C:/Users/nace/OneDrive/Desktop/STM32/Projects_nace/NUCLEO_LL_Project_LCD/STM32_template_proj/Drivers/STM32F1xx_HAL_Driver/Inc\stm32f1xx_ll_gpio.h ****   */
 301:C:/Users/nace/OneDrive/Desktop/STM32/Projects_nace/NUCLEO_LL_Project_LCD/STM32_template_proj/Drivers/STM32F1xx_HAL_Driver/Inc\stm32f1xx_ll_gpio.h **** 
 302:C:/Users/nace/OneDrive/Desktop/STM32/Projects_nace/NUCLEO_LL_Project_LCD/STM32_template_proj/Drivers/STM32F1xx_HAL_Driver/Inc\stm32f1xx_ll_gpio.h **** /** @defgroup GPIO_LL_EF_Port_Configuration Port Configuration
 303:C:/Users/nace/OneDrive/Desktop/STM32/Projects_nace/NUCLEO_LL_Project_LCD/STM32_template_proj/Drivers/STM32F1xx_HAL_Driver/Inc\stm32f1xx_ll_gpio.h ****   * @{
 304:C:/Users/nace/OneDrive/Desktop/STM32/Projects_nace/NUCLEO_LL_Project_LCD/STM32_template_proj/Drivers/STM32F1xx_HAL_Driver/Inc\stm32f1xx_ll_gpio.h ****   */
 305:C:/Users/nace/OneDrive/Desktop/STM32/Projects_nace/NUCLEO_LL_Project_LCD/STM32_template_proj/Drivers/STM32F1xx_HAL_Driver/Inc\stm32f1xx_ll_gpio.h **** 
 306:C:/Users/nace/OneDrive/Desktop/STM32/Projects_nace/NUCLEO_LL_Project_LCD/STM32_template_proj/Drivers/STM32F1xx_HAL_Driver/Inc\stm32f1xx_ll_gpio.h **** /**
 307:C:/Users/nace/OneDrive/Desktop/STM32/Projects_nace/NUCLEO_LL_Project_LCD/STM32_template_proj/Drivers/STM32F1xx_HAL_Driver/Inc\stm32f1xx_ll_gpio.h ****   * @brief  Configure gpio mode for a dedicated pin on dedicated port.
 308:C:/Users/nace/OneDrive/Desktop/STM32/Projects_nace/NUCLEO_LL_Project_LCD/STM32_template_proj/Drivers/STM32F1xx_HAL_Driver/Inc\stm32f1xx_ll_gpio.h ****   * @note   I/O mode can be Analog, Floating input, Input with pull-up/pull-down, General purpose O
 309:C:/Users/nace/OneDrive/Desktop/STM32/Projects_nace/NUCLEO_LL_Project_LCD/STM32_template_proj/Drivers/STM32F1xx_HAL_Driver/Inc\stm32f1xx_ll_gpio.h ****   *         Alternate function Output.
 310:C:/Users/nace/OneDrive/Desktop/STM32/Projects_nace/NUCLEO_LL_Project_LCD/STM32_template_proj/Drivers/STM32F1xx_HAL_Driver/Inc\stm32f1xx_ll_gpio.h ****   * @note   Warning: only one pin can be passed as parameter.
 311:C:/Users/nace/OneDrive/Desktop/STM32/Projects_nace/NUCLEO_LL_Project_LCD/STM32_template_proj/Drivers/STM32F1xx_HAL_Driver/Inc\stm32f1xx_ll_gpio.h ****   * @rmtoll CRL        CNFy         LL_GPIO_SetPinMode
 312:C:/Users/nace/OneDrive/Desktop/STM32/Projects_nace/NUCLEO_LL_Project_LCD/STM32_template_proj/Drivers/STM32F1xx_HAL_Driver/Inc\stm32f1xx_ll_gpio.h ****   * @rmtoll CRL        MODEy        LL_GPIO_SetPinMode
 313:C:/Users/nace/OneDrive/Desktop/STM32/Projects_nace/NUCLEO_LL_Project_LCD/STM32_template_proj/Drivers/STM32F1xx_HAL_Driver/Inc\stm32f1xx_ll_gpio.h ****   * @rmtoll CRH        CNFy         LL_GPIO_SetPinMode
 314:C:/Users/nace/OneDrive/Desktop/STM32/Projects_nace/NUCLEO_LL_Project_LCD/STM32_template_proj/Drivers/STM32F1xx_HAL_Driver/Inc\stm32f1xx_ll_gpio.h ****   * @rmtoll CRH        MODEy        LL_GPIO_SetPinMode
 315:C:/Users/nace/OneDrive/Desktop/STM32/Projects_nace/NUCLEO_LL_Project_LCD/STM32_template_proj/Drivers/STM32F1xx_HAL_Driver/Inc\stm32f1xx_ll_gpio.h ****   * @param  GPIOx GPIO Port
 316:C:/Users/nace/OneDrive/Desktop/STM32/Projects_nace/NUCLEO_LL_Project_LCD/STM32_template_proj/Drivers/STM32F1xx_HAL_Driver/Inc\stm32f1xx_ll_gpio.h ****   * @param  Pin This parameter can be one of the following values:
 317:C:/Users/nace/OneDrive/Desktop/STM32/Projects_nace/NUCLEO_LL_Project_LCD/STM32_template_proj/Drivers/STM32F1xx_HAL_Driver/Inc\stm32f1xx_ll_gpio.h ****   *         @arg @ref LL_GPIO_PIN_0
 318:C:/Users/nace/OneDrive/Desktop/STM32/Projects_nace/NUCLEO_LL_Project_LCD/STM32_template_proj/Drivers/STM32F1xx_HAL_Driver/Inc\stm32f1xx_ll_gpio.h ****   *         @arg @ref LL_GPIO_PIN_1
 319:C:/Users/nace/OneDrive/Desktop/STM32/Projects_nace/NUCLEO_LL_Project_LCD/STM32_template_proj/Drivers/STM32F1xx_HAL_Driver/Inc\stm32f1xx_ll_gpio.h ****   *         @arg @ref LL_GPIO_PIN_2
 320:C:/Users/nace/OneDrive/Desktop/STM32/Projects_nace/NUCLEO_LL_Project_LCD/STM32_template_proj/Drivers/STM32F1xx_HAL_Driver/Inc\stm32f1xx_ll_gpio.h ****   *         @arg @ref LL_GPIO_PIN_3
 321:C:/Users/nace/OneDrive/Desktop/STM32/Projects_nace/NUCLEO_LL_Project_LCD/STM32_template_proj/Drivers/STM32F1xx_HAL_Driver/Inc\stm32f1xx_ll_gpio.h ****   *         @arg @ref LL_GPIO_PIN_4
 322:C:/Users/nace/OneDrive/Desktop/STM32/Projects_nace/NUCLEO_LL_Project_LCD/STM32_template_proj/Drivers/STM32F1xx_HAL_Driver/Inc\stm32f1xx_ll_gpio.h ****   *         @arg @ref LL_GPIO_PIN_5
 323:C:/Users/nace/OneDrive/Desktop/STM32/Projects_nace/NUCLEO_LL_Project_LCD/STM32_template_proj/Drivers/STM32F1xx_HAL_Driver/Inc\stm32f1xx_ll_gpio.h ****   *         @arg @ref LL_GPIO_PIN_6
 324:C:/Users/nace/OneDrive/Desktop/STM32/Projects_nace/NUCLEO_LL_Project_LCD/STM32_template_proj/Drivers/STM32F1xx_HAL_Driver/Inc\stm32f1xx_ll_gpio.h ****   *         @arg @ref LL_GPIO_PIN_7
 325:C:/Users/nace/OneDrive/Desktop/STM32/Projects_nace/NUCLEO_LL_Project_LCD/STM32_template_proj/Drivers/STM32F1xx_HAL_Driver/Inc\stm32f1xx_ll_gpio.h ****   *         @arg @ref LL_GPIO_PIN_8
 326:C:/Users/nace/OneDrive/Desktop/STM32/Projects_nace/NUCLEO_LL_Project_LCD/STM32_template_proj/Drivers/STM32F1xx_HAL_Driver/Inc\stm32f1xx_ll_gpio.h ****   *         @arg @ref LL_GPIO_PIN_9
 327:C:/Users/nace/OneDrive/Desktop/STM32/Projects_nace/NUCLEO_LL_Project_LCD/STM32_template_proj/Drivers/STM32F1xx_HAL_Driver/Inc\stm32f1xx_ll_gpio.h ****   *         @arg @ref LL_GPIO_PIN_10
 328:C:/Users/nace/OneDrive/Desktop/STM32/Projects_nace/NUCLEO_LL_Project_LCD/STM32_template_proj/Drivers/STM32F1xx_HAL_Driver/Inc\stm32f1xx_ll_gpio.h ****   *         @arg @ref LL_GPIO_PIN_11
 329:C:/Users/nace/OneDrive/Desktop/STM32/Projects_nace/NUCLEO_LL_Project_LCD/STM32_template_proj/Drivers/STM32F1xx_HAL_Driver/Inc\stm32f1xx_ll_gpio.h ****   *         @arg @ref LL_GPIO_PIN_12
 330:C:/Users/nace/OneDrive/Desktop/STM32/Projects_nace/NUCLEO_LL_Project_LCD/STM32_template_proj/Drivers/STM32F1xx_HAL_Driver/Inc\stm32f1xx_ll_gpio.h ****   *         @arg @ref LL_GPIO_PIN_13
 331:C:/Users/nace/OneDrive/Desktop/STM32/Projects_nace/NUCLEO_LL_Project_LCD/STM32_template_proj/Drivers/STM32F1xx_HAL_Driver/Inc\stm32f1xx_ll_gpio.h ****   *         @arg @ref LL_GPIO_PIN_14
 332:C:/Users/nace/OneDrive/Desktop/STM32/Projects_nace/NUCLEO_LL_Project_LCD/STM32_template_proj/Drivers/STM32F1xx_HAL_Driver/Inc\stm32f1xx_ll_gpio.h ****   *         @arg @ref LL_GPIO_PIN_15
 333:C:/Users/nace/OneDrive/Desktop/STM32/Projects_nace/NUCLEO_LL_Project_LCD/STM32_template_proj/Drivers/STM32F1xx_HAL_Driver/Inc\stm32f1xx_ll_gpio.h ****   * @param  Mode This parameter can be one of the following values:
 334:C:/Users/nace/OneDrive/Desktop/STM32/Projects_nace/NUCLEO_LL_Project_LCD/STM32_template_proj/Drivers/STM32F1xx_HAL_Driver/Inc\stm32f1xx_ll_gpio.h ****   *         @arg @ref LL_GPIO_MODE_ANALOG
 335:C:/Users/nace/OneDrive/Desktop/STM32/Projects_nace/NUCLEO_LL_Project_LCD/STM32_template_proj/Drivers/STM32F1xx_HAL_Driver/Inc\stm32f1xx_ll_gpio.h ****   *         @arg @ref LL_GPIO_MODE_FLOATING
 336:C:/Users/nace/OneDrive/Desktop/STM32/Projects_nace/NUCLEO_LL_Project_LCD/STM32_template_proj/Drivers/STM32F1xx_HAL_Driver/Inc\stm32f1xx_ll_gpio.h ****   *         @arg @ref LL_GPIO_MODE_INPUT
 337:C:/Users/nace/OneDrive/Desktop/STM32/Projects_nace/NUCLEO_LL_Project_LCD/STM32_template_proj/Drivers/STM32F1xx_HAL_Driver/Inc\stm32f1xx_ll_gpio.h ****   *         @arg @ref LL_GPIO_MODE_OUTPUT
 338:C:/Users/nace/OneDrive/Desktop/STM32/Projects_nace/NUCLEO_LL_Project_LCD/STM32_template_proj/Drivers/STM32F1xx_HAL_Driver/Inc\stm32f1xx_ll_gpio.h ****   *         @arg @ref LL_GPIO_MODE_ALTERNATE
 339:C:/Users/nace/OneDrive/Desktop/STM32/Projects_nace/NUCLEO_LL_Project_LCD/STM32_template_proj/Drivers/STM32F1xx_HAL_Driver/Inc\stm32f1xx_ll_gpio.h ****   * @retval None
 340:C:/Users/nace/OneDrive/Desktop/STM32/Projects_nace/NUCLEO_LL_Project_LCD/STM32_template_proj/Drivers/STM32F1xx_HAL_Driver/Inc\stm32f1xx_ll_gpio.h ****   */
 341:C:/Users/nace/OneDrive/Desktop/STM32/Projects_nace/NUCLEO_LL_Project_LCD/STM32_template_proj/Drivers/STM32F1xx_HAL_Driver/Inc\stm32f1xx_ll_gpio.h **** __STATIC_INLINE void LL_GPIO_SetPinMode(GPIO_TypeDef *GPIOx, uint32_t Pin, uint32_t Mode)
 342:C:/Users/nace/OneDrive/Desktop/STM32/Projects_nace/NUCLEO_LL_Project_LCD/STM32_template_proj/Drivers/STM32F1xx_HAL_Driver/Inc\stm32f1xx_ll_gpio.h **** {
 343:C:/Users/nace/OneDrive/Desktop/STM32/Projects_nace/NUCLEO_LL_Project_LCD/STM32_template_proj/Drivers/STM32F1xx_HAL_Driver/Inc\stm32f1xx_ll_gpio.h ****   register uint32_t *pReg = (uint32_t *)((uint32_t)((uint32_t)(&GPIOx->CRL) + (Pin >> 24)));
 344:C:/Users/nace/OneDrive/Desktop/STM32/Projects_nace/NUCLEO_LL_Project_LCD/STM32_template_proj/Drivers/STM32F1xx_HAL_Driver/Inc\stm32f1xx_ll_gpio.h ****   MODIFY_REG(*pReg, ((GPIO_CRL_CNF0 | GPIO_CRL_MODE0) << (POSITION_VAL(Pin) * 4U)), (Mode << (POSIT
 345:C:/Users/nace/OneDrive/Desktop/STM32/Projects_nace/NUCLEO_LL_Project_LCD/STM32_template_proj/Drivers/STM32F1xx_HAL_Driver/Inc\stm32f1xx_ll_gpio.h **** }
 346:C:/Users/nace/OneDrive/Desktop/STM32/Projects_nace/NUCLEO_LL_Project_LCD/STM32_template_proj/Drivers/STM32F1xx_HAL_Driver/Inc\stm32f1xx_ll_gpio.h **** 
 347:C:/Users/nace/OneDrive/Desktop/STM32/Projects_nace/NUCLEO_LL_Project_LCD/STM32_template_proj/Drivers/STM32F1xx_HAL_Driver/Inc\stm32f1xx_ll_gpio.h **** /**
 348:C:/Users/nace/OneDrive/Desktop/STM32/Projects_nace/NUCLEO_LL_Project_LCD/STM32_template_proj/Drivers/STM32F1xx_HAL_Driver/Inc\stm32f1xx_ll_gpio.h ****   * @brief  Return gpio mode for a dedicated pin on dedicated port.
 349:C:/Users/nace/OneDrive/Desktop/STM32/Projects_nace/NUCLEO_LL_Project_LCD/STM32_template_proj/Drivers/STM32F1xx_HAL_Driver/Inc\stm32f1xx_ll_gpio.h ****   * @note   I/O mode can be Analog, Floating input, Input with pull-up/pull-down, General purpose O
 350:C:/Users/nace/OneDrive/Desktop/STM32/Projects_nace/NUCLEO_LL_Project_LCD/STM32_template_proj/Drivers/STM32F1xx_HAL_Driver/Inc\stm32f1xx_ll_gpio.h ****   *         Alternate function Output.
 351:C:/Users/nace/OneDrive/Desktop/STM32/Projects_nace/NUCLEO_LL_Project_LCD/STM32_template_proj/Drivers/STM32F1xx_HAL_Driver/Inc\stm32f1xx_ll_gpio.h ****   * @note   Warning: only one pin can be passed as parameter.
 352:C:/Users/nace/OneDrive/Desktop/STM32/Projects_nace/NUCLEO_LL_Project_LCD/STM32_template_proj/Drivers/STM32F1xx_HAL_Driver/Inc\stm32f1xx_ll_gpio.h ****   * @rmtoll CRL        CNFy         LL_GPIO_GetPinMode
 353:C:/Users/nace/OneDrive/Desktop/STM32/Projects_nace/NUCLEO_LL_Project_LCD/STM32_template_proj/Drivers/STM32F1xx_HAL_Driver/Inc\stm32f1xx_ll_gpio.h ****   * @rmtoll CRL        MODEy        LL_GPIO_GetPinMode
 354:C:/Users/nace/OneDrive/Desktop/STM32/Projects_nace/NUCLEO_LL_Project_LCD/STM32_template_proj/Drivers/STM32F1xx_HAL_Driver/Inc\stm32f1xx_ll_gpio.h ****   * @rmtoll CRH        CNFy         LL_GPIO_GetPinMode
 355:C:/Users/nace/OneDrive/Desktop/STM32/Projects_nace/NUCLEO_LL_Project_LCD/STM32_template_proj/Drivers/STM32F1xx_HAL_Driver/Inc\stm32f1xx_ll_gpio.h ****   * @rmtoll CRH        MODEy        LL_GPIO_GetPinMode
 356:C:/Users/nace/OneDrive/Desktop/STM32/Projects_nace/NUCLEO_LL_Project_LCD/STM32_template_proj/Drivers/STM32F1xx_HAL_Driver/Inc\stm32f1xx_ll_gpio.h ****   * @param  GPIOx GPIO Port
 357:C:/Users/nace/OneDrive/Desktop/STM32/Projects_nace/NUCLEO_LL_Project_LCD/STM32_template_proj/Drivers/STM32F1xx_HAL_Driver/Inc\stm32f1xx_ll_gpio.h ****   * @param  Pin This parameter can be one of the following values:
 358:C:/Users/nace/OneDrive/Desktop/STM32/Projects_nace/NUCLEO_LL_Project_LCD/STM32_template_proj/Drivers/STM32F1xx_HAL_Driver/Inc\stm32f1xx_ll_gpio.h ****   *         @arg @ref LL_GPIO_PIN_0
 359:C:/Users/nace/OneDrive/Desktop/STM32/Projects_nace/NUCLEO_LL_Project_LCD/STM32_template_proj/Drivers/STM32F1xx_HAL_Driver/Inc\stm32f1xx_ll_gpio.h ****   *         @arg @ref LL_GPIO_PIN_1
 360:C:/Users/nace/OneDrive/Desktop/STM32/Projects_nace/NUCLEO_LL_Project_LCD/STM32_template_proj/Drivers/STM32F1xx_HAL_Driver/Inc\stm32f1xx_ll_gpio.h ****   *         @arg @ref LL_GPIO_PIN_2
 361:C:/Users/nace/OneDrive/Desktop/STM32/Projects_nace/NUCLEO_LL_Project_LCD/STM32_template_proj/Drivers/STM32F1xx_HAL_Driver/Inc\stm32f1xx_ll_gpio.h ****   *         @arg @ref LL_GPIO_PIN_3
 362:C:/Users/nace/OneDrive/Desktop/STM32/Projects_nace/NUCLEO_LL_Project_LCD/STM32_template_proj/Drivers/STM32F1xx_HAL_Driver/Inc\stm32f1xx_ll_gpio.h ****   *         @arg @ref LL_GPIO_PIN_4
 363:C:/Users/nace/OneDrive/Desktop/STM32/Projects_nace/NUCLEO_LL_Project_LCD/STM32_template_proj/Drivers/STM32F1xx_HAL_Driver/Inc\stm32f1xx_ll_gpio.h ****   *         @arg @ref LL_GPIO_PIN_5
 364:C:/Users/nace/OneDrive/Desktop/STM32/Projects_nace/NUCLEO_LL_Project_LCD/STM32_template_proj/Drivers/STM32F1xx_HAL_Driver/Inc\stm32f1xx_ll_gpio.h ****   *         @arg @ref LL_GPIO_PIN_6
 365:C:/Users/nace/OneDrive/Desktop/STM32/Projects_nace/NUCLEO_LL_Project_LCD/STM32_template_proj/Drivers/STM32F1xx_HAL_Driver/Inc\stm32f1xx_ll_gpio.h ****   *         @arg @ref LL_GPIO_PIN_7
 366:C:/Users/nace/OneDrive/Desktop/STM32/Projects_nace/NUCLEO_LL_Project_LCD/STM32_template_proj/Drivers/STM32F1xx_HAL_Driver/Inc\stm32f1xx_ll_gpio.h ****   *         @arg @ref LL_GPIO_PIN_8
 367:C:/Users/nace/OneDrive/Desktop/STM32/Projects_nace/NUCLEO_LL_Project_LCD/STM32_template_proj/Drivers/STM32F1xx_HAL_Driver/Inc\stm32f1xx_ll_gpio.h ****   *         @arg @ref LL_GPIO_PIN_9
 368:C:/Users/nace/OneDrive/Desktop/STM32/Projects_nace/NUCLEO_LL_Project_LCD/STM32_template_proj/Drivers/STM32F1xx_HAL_Driver/Inc\stm32f1xx_ll_gpio.h ****   *         @arg @ref LL_GPIO_PIN_10
 369:C:/Users/nace/OneDrive/Desktop/STM32/Projects_nace/NUCLEO_LL_Project_LCD/STM32_template_proj/Drivers/STM32F1xx_HAL_Driver/Inc\stm32f1xx_ll_gpio.h ****   *         @arg @ref LL_GPIO_PIN_11
 370:C:/Users/nace/OneDrive/Desktop/STM32/Projects_nace/NUCLEO_LL_Project_LCD/STM32_template_proj/Drivers/STM32F1xx_HAL_Driver/Inc\stm32f1xx_ll_gpio.h ****   *         @arg @ref LL_GPIO_PIN_12
 371:C:/Users/nace/OneDrive/Desktop/STM32/Projects_nace/NUCLEO_LL_Project_LCD/STM32_template_proj/Drivers/STM32F1xx_HAL_Driver/Inc\stm32f1xx_ll_gpio.h ****   *         @arg @ref LL_GPIO_PIN_13
 372:C:/Users/nace/OneDrive/Desktop/STM32/Projects_nace/NUCLEO_LL_Project_LCD/STM32_template_proj/Drivers/STM32F1xx_HAL_Driver/Inc\stm32f1xx_ll_gpio.h ****   *         @arg @ref LL_GPIO_PIN_14
 373:C:/Users/nace/OneDrive/Desktop/STM32/Projects_nace/NUCLEO_LL_Project_LCD/STM32_template_proj/Drivers/STM32F1xx_HAL_Driver/Inc\stm32f1xx_ll_gpio.h ****   *         @arg @ref LL_GPIO_PIN_15
 374:C:/Users/nace/OneDrive/Desktop/STM32/Projects_nace/NUCLEO_LL_Project_LCD/STM32_template_proj/Drivers/STM32F1xx_HAL_Driver/Inc\stm32f1xx_ll_gpio.h ****   * @retval Returned value can be one of the following values:
 375:C:/Users/nace/OneDrive/Desktop/STM32/Projects_nace/NUCLEO_LL_Project_LCD/STM32_template_proj/Drivers/STM32F1xx_HAL_Driver/Inc\stm32f1xx_ll_gpio.h ****   *         @arg @ref LL_GPIO_MODE_ANALOG
 376:C:/Users/nace/OneDrive/Desktop/STM32/Projects_nace/NUCLEO_LL_Project_LCD/STM32_template_proj/Drivers/STM32F1xx_HAL_Driver/Inc\stm32f1xx_ll_gpio.h ****   *         @arg @ref LL_GPIO_MODE_FLOATING
 377:C:/Users/nace/OneDrive/Desktop/STM32/Projects_nace/NUCLEO_LL_Project_LCD/STM32_template_proj/Drivers/STM32F1xx_HAL_Driver/Inc\stm32f1xx_ll_gpio.h ****   *         @arg @ref LL_GPIO_MODE_INPUT
