   1              		.cpu cortex-m3
   2              		.arch armv7-m
   3              		.fpu softvfp
   4              		.eabi_attribute 20, 1
   5              		.eabi_attribute 21, 1
   6              		.eabi_attribute 23, 3
   7              		.eabi_attribute 24, 1
   8              		.eabi_attribute 25, 1
   9              		.eabi_attribute 26, 1
  10              		.eabi_attribute 30, 1
  11              		.eabi_attribute 34, 1
  12              		.eabi_attribute 18, 4
  13              		.file	"nt_system_init.c"
  14              		.text
  15              	.Ltext0:
  16              		.cfi_sections	.debug_frame
  17              		.file 1 "C:/Users/nace/OneDrive/Desktop/STM32/Projects_nace/NUCLEO_LL_Project_LCD/STM32_NUCLEO_LL_
  18              		.section	.text.nt_systemClock_init,"ax",%progbits
  19              		.align	1
  20              		.global	nt_systemClock_init
  21              		.syntax unified
  22              		.thumb
  23              		.thumb_func
  25              	nt_systemClock_init:
  26              	.LVL0:
  27              	.LFB152:
   1:C:/Users/nace/OneDrive/Desktop/STM32/Projects_nace/NUCLEO_LL_Project_LCD/STM32_NUCLEO_LL_Project_LCD_22_02_2025/Core/Src\nt_system_init.c **** 
   2:C:/Users/nace/OneDrive/Desktop/STM32/Projects_nace/NUCLEO_LL_Project_LCD/STM32_NUCLEO_LL_Project_LCD_22_02_2025/Core/Src\nt_system_init.c **** #include "stm32f1xx_ll_utils.h"
   3:C:/Users/nace/OneDrive/Desktop/STM32/Projects_nace/NUCLEO_LL_Project_LCD/STM32_NUCLEO_LL_Project_LCD_22_02_2025/Core/Src\nt_system_init.c **** #include "stm32f1xx_ll_rcc.h"
   4:C:/Users/nace/OneDrive/Desktop/STM32/Projects_nace/NUCLEO_LL_Project_LCD/STM32_NUCLEO_LL_Project_LCD_22_02_2025/Core/Src\nt_system_init.c **** #include "stm32f1xx.h"
   5:C:/Users/nace/OneDrive/Desktop/STM32/Projects_nace/NUCLEO_LL_Project_LCD/STM32_NUCLEO_LL_Project_LCD_22_02_2025/Core/Src\nt_system_init.c **** #include "lwprintf/lwprintf.h"
   6:C:/Users/nace/OneDrive/Desktop/STM32/Projects_nace/NUCLEO_LL_Project_LCD/STM32_NUCLEO_LL_Project_LCD_22_02_2025/Core/Src\nt_system_init.c **** #include "nt_system_init.h"
   7:C:/Users/nace/OneDrive/Desktop/STM32/Projects_nace/NUCLEO_LL_Project_LCD/STM32_NUCLEO_LL_Project_LCD_22_02_2025/Core/Src\nt_system_init.c **** 
   8:C:/Users/nace/OneDrive/Desktop/STM32/Projects_nace/NUCLEO_LL_Project_LCD/STM32_NUCLEO_LL_Project_LCD_22_02_2025/Core/Src\nt_system_init.c **** /*
   9:C:/Users/nace/OneDrive/Desktop/STM32/Projects_nace/NUCLEO_LL_Project_LCD/STM32_NUCLEO_LL_Project_LCD_22_02_2025/Core/Src\nt_system_init.c **** HCLOCK max with HSE 72MHz
  10:C:/Users/nace/OneDrive/Desktop/STM32/Projects_nace/NUCLEO_LL_Project_LCD/STM32_NUCLEO_LL_Project_LCD_22_02_2025/Core/Src\nt_system_init.c **** HCLOCK max with HSI 64MHz
  11:C:/Users/nace/OneDrive/Desktop/STM32/Projects_nace/NUCLEO_LL_Project_LCD/STM32_NUCLEO_LL_Project_LCD_22_02_2025/Core/Src\nt_system_init.c **** */
  12:C:/Users/nace/OneDrive/Desktop/STM32/Projects_nace/NUCLEO_LL_Project_LCD/STM32_NUCLEO_LL_Project_LCD_22_02_2025/Core/Src\nt_system_init.c **** 
  13:C:/Users/nace/OneDrive/Desktop/STM32/Projects_nace/NUCLEO_LL_Project_LCD/STM32_NUCLEO_LL_Project_LCD_22_02_2025/Core/Src\nt_system_init.c **** bool nt_systemClock_init(nt_PLLSourceEnum_t nt_pll_source, uint32_t hse_clk_freq, nt_PLLDefStruct_t
  14:C:/Users/nace/OneDrive/Desktop/STM32/Projects_nace/NUCLEO_LL_Project_LCD/STM32_NUCLEO_LL_Project_LCD_22_02_2025/Core/Src\nt_system_init.c **** {
  28              		.loc 1 14 1 view -0
  29              		.cfi_startproc
  30              		@ args = 0, pretend = 0, frame = 24
  31              		@ frame_needed = 0, uses_anonymous_args = 0
  32              		.loc 1 14 1 is_stmt 0 view .LVU1
  33 0000 30B5     		push	{r4, r5, lr}
  34              		.cfi_def_cfa_offset 12
  35              		.cfi_offset 4, -12
  36              		.cfi_offset 5, -8
  37              		.cfi_offset 14, -4
  38 0002 87B0     		sub	sp, sp, #28
  39              		.cfi_def_cfa_offset 40
  40 0004 1446     		mov	r4, r2
  15:C:/Users/nace/OneDrive/Desktop/STM32/Projects_nace/NUCLEO_LL_Project_LCD/STM32_NUCLEO_LL_Project_LCD_22_02_2025/Core/Src\nt_system_init.c ****     ErrorStatus status = SUCCESS;
  41              		.loc 1 15 5 is_stmt 1 view .LVU2
  42              	.LVL1:
  16:C:/Users/nace/OneDrive/Desktop/STM32/Projects_nace/NUCLEO_LL_Project_LCD/STM32_NUCLEO_LL_Project_LCD_22_02_2025/Core/Src\nt_system_init.c **** 
  17:C:/Users/nace/OneDrive/Desktop/STM32/Projects_nace/NUCLEO_LL_Project_LCD/STM32_NUCLEO_LL_Project_LCD_22_02_2025/Core/Src\nt_system_init.c ****     switch (nt_pll_source)
  43              		.loc 1 17 5 view .LVU3
  44 0006 38B1     		cbz	r0, .L2
  45 0008 0128     		cmp	r0, #1
  46 000a 28D0     		beq	.L3
  47 000c 0025     		movs	r5, #0
  48              	.LVL2:
  49              	.L4:
  18:C:/Users/nace/OneDrive/Desktop/STM32/Projects_nace/NUCLEO_LL_Project_LCD/STM32_NUCLEO_LL_Project_LCD_22_02_2025/Core/Src\nt_system_init.c ****     {
  19:C:/Users/nace/OneDrive/Desktop/STM32/Projects_nace/NUCLEO_LL_Project_LCD/STM32_NUCLEO_LL_Project_LCD_22_02_2025/Core/Src\nt_system_init.c ****     case nt_HSE:
  20:C:/Users/nace/OneDrive/Desktop/STM32/Projects_nace/NUCLEO_LL_Project_LCD/STM32_NUCLEO_LL_Project_LCD_22_02_2025/Core/Src\nt_system_init.c ****         nt_pll_def->nt_HSE_freq = hse_clk_freq;
  21:C:/Users/nace/OneDrive/Desktop/STM32/Projects_nace/NUCLEO_LL_Project_LCD/STM32_NUCLEO_LL_Project_LCD_22_02_2025/Core/Src\nt_system_init.c ****         nt_pll_def->nt_pll_prediv = LL_RCC_PLLSOURCE_HSE_DIV_2;
  22:C:/Users/nace/OneDrive/Desktop/STM32/Projects_nace/NUCLEO_LL_Project_LCD/STM32_NUCLEO_LL_Project_LCD_22_02_2025/Core/Src\nt_system_init.c ****         nt_pll_def->nt_pll_mul = LL_RCC_PLL_MUL_16;
  23:C:/Users/nace/OneDrive/Desktop/STM32/Projects_nace/NUCLEO_LL_Project_LCD/STM32_NUCLEO_LL_Project_LCD_22_02_2025/Core/Src\nt_system_init.c ****         //nt_pll_def->nt_pll_prediv = LL_RCC_PLLSOURCE_HSE_DIV_1;
  24:C:/Users/nace/OneDrive/Desktop/STM32/Projects_nace/NUCLEO_LL_Project_LCD/STM32_NUCLEO_LL_Project_LCD_22_02_2025/Core/Src\nt_system_init.c ****         //nt_pll_def->nt_pll_mul = LL_RCC_PLL_MUL_9;
  25:C:/Users/nace/OneDrive/Desktop/STM32/Projects_nace/NUCLEO_LL_Project_LCD/STM32_NUCLEO_LL_Project_LCD_22_02_2025/Core/Src\nt_system_init.c ****         nt_pll_def->nt_AHB_prescaler = LL_RCC_SYSCLK_DIV_1;
  26:C:/Users/nace/OneDrive/Desktop/STM32/Projects_nace/NUCLEO_LL_Project_LCD/STM32_NUCLEO_LL_Project_LCD_22_02_2025/Core/Src\nt_system_init.c ****         nt_pll_def->nt_APB1_prescaler = LL_RCC_APB1_DIV_2;
  27:C:/Users/nace/OneDrive/Desktop/STM32/Projects_nace/NUCLEO_LL_Project_LCD/STM32_NUCLEO_LL_Project_LCD_22_02_2025/Core/Src\nt_system_init.c ****         nt_pll_def->nt_APB2_prescaler = LL_RCC_APB2_DIV_1;
  28:C:/Users/nace/OneDrive/Desktop/STM32/Projects_nace/NUCLEO_LL_Project_LCD/STM32_NUCLEO_LL_Project_LCD_22_02_2025/Core/Src\nt_system_init.c **** 
  29:C:/Users/nace/OneDrive/Desktop/STM32/Projects_nace/NUCLEO_LL_Project_LCD/STM32_NUCLEO_LL_Project_LCD_22_02_2025/Core/Src\nt_system_init.c ****         LL_UTILS_PLLInitTypeDef HSE_PLL_struct;
  30:C:/Users/nace/OneDrive/Desktop/STM32/Projects_nace/NUCLEO_LL_Project_LCD/STM32_NUCLEO_LL_Project_LCD_22_02_2025/Core/Src\nt_system_init.c ****         LL_UTILS_ClkInitTypeDef HSE_CLK_struct;
  31:C:/Users/nace/OneDrive/Desktop/STM32/Projects_nace/NUCLEO_LL_Project_LCD/STM32_NUCLEO_LL_Project_LCD_22_02_2025/Core/Src\nt_system_init.c **** 
  32:C:/Users/nace/OneDrive/Desktop/STM32/Projects_nace/NUCLEO_LL_Project_LCD/STM32_NUCLEO_LL_Project_LCD_22_02_2025/Core/Src\nt_system_init.c ****         HSE_PLL_struct.PLLMul = nt_pll_def->nt_pll_mul;
  33:C:/Users/nace/OneDrive/Desktop/STM32/Projects_nace/NUCLEO_LL_Project_LCD/STM32_NUCLEO_LL_Project_LCD_22_02_2025/Core/Src\nt_system_init.c ****         HSE_PLL_struct.Prediv = nt_pll_def->nt_pll_prediv;
  34:C:/Users/nace/OneDrive/Desktop/STM32/Projects_nace/NUCLEO_LL_Project_LCD/STM32_NUCLEO_LL_Project_LCD_22_02_2025/Core/Src\nt_system_init.c **** 
  35:C:/Users/nace/OneDrive/Desktop/STM32/Projects_nace/NUCLEO_LL_Project_LCD/STM32_NUCLEO_LL_Project_LCD_22_02_2025/Core/Src\nt_system_init.c ****         HSE_CLK_struct.AHBCLKDivider = nt_pll_def->nt_AHB_prescaler;
  36:C:/Users/nace/OneDrive/Desktop/STM32/Projects_nace/NUCLEO_LL_Project_LCD/STM32_NUCLEO_LL_Project_LCD_22_02_2025/Core/Src\nt_system_init.c ****         HSE_CLK_struct.APB1CLKDivider = nt_pll_def->nt_APB1_prescaler;
  37:C:/Users/nace/OneDrive/Desktop/STM32/Projects_nace/NUCLEO_LL_Project_LCD/STM32_NUCLEO_LL_Project_LCD_22_02_2025/Core/Src\nt_system_init.c ****         HSE_CLK_struct.APB2CLKDivider = nt_pll_def->nt_APB2_prescaler;
  38:C:/Users/nace/OneDrive/Desktop/STM32/Projects_nace/NUCLEO_LL_Project_LCD/STM32_NUCLEO_LL_Project_LCD_22_02_2025/Core/Src\nt_system_init.c **** 
  39:C:/Users/nace/OneDrive/Desktop/STM32/Projects_nace/NUCLEO_LL_Project_LCD/STM32_NUCLEO_LL_Project_LCD_22_02_2025/Core/Src\nt_system_init.c ****         status = LL_PLL_ConfigSystemClock_HSE(nt_pll_def->nt_HSE_freq, LL_UTILS_HSEBYPASS_ON, &HSE_
  40:C:/Users/nace/OneDrive/Desktop/STM32/Projects_nace/NUCLEO_LL_Project_LCD/STM32_NUCLEO_LL_Project_LCD_22_02_2025/Core/Src\nt_system_init.c **** 
  41:C:/Users/nace/OneDrive/Desktop/STM32/Projects_nace/NUCLEO_LL_Project_LCD/STM32_NUCLEO_LL_Project_LCD_22_02_2025/Core/Src\nt_system_init.c ****         LL_Init1msTick(nt_pll_def->nt_HSE_freq);
  42:C:/Users/nace/OneDrive/Desktop/STM32/Projects_nace/NUCLEO_LL_Project_LCD/STM32_NUCLEO_LL_Project_LCD_22_02_2025/Core/Src\nt_system_init.c ****         LL_RCC_HSE_EnableCSS();
  43:C:/Users/nace/OneDrive/Desktop/STM32/Projects_nace/NUCLEO_LL_Project_LCD/STM32_NUCLEO_LL_Project_LCD_22_02_2025/Core/Src\nt_system_init.c **** 
  44:C:/Users/nace/OneDrive/Desktop/STM32/Projects_nace/NUCLEO_LL_Project_LCD/STM32_NUCLEO_LL_Project_LCD_22_02_2025/Core/Src\nt_system_init.c ****         break;
  45:C:/Users/nace/OneDrive/Desktop/STM32/Projects_nace/NUCLEO_LL_Project_LCD/STM32_NUCLEO_LL_Project_LCD_22_02_2025/Core/Src\nt_system_init.c **** 
  46:C:/Users/nace/OneDrive/Desktop/STM32/Projects_nace/NUCLEO_LL_Project_LCD/STM32_NUCLEO_LL_Project_LCD_22_02_2025/Core/Src\nt_system_init.c ****     case nt_HSI:
  47:C:/Users/nace/OneDrive/Desktop/STM32/Projects_nace/NUCLEO_LL_Project_LCD/STM32_NUCLEO_LL_Project_LCD_22_02_2025/Core/Src\nt_system_init.c **** 
  48:C:/Users/nace/OneDrive/Desktop/STM32/Projects_nace/NUCLEO_LL_Project_LCD/STM32_NUCLEO_LL_Project_LCD_22_02_2025/Core/Src\nt_system_init.c ****         nt_pll_def->nt_pll_mul = LL_RCC_PLL_MUL_16;
  49:C:/Users/nace/OneDrive/Desktop/STM32/Projects_nace/NUCLEO_LL_Project_LCD/STM32_NUCLEO_LL_Project_LCD_22_02_2025/Core/Src\nt_system_init.c **** 
  50:C:/Users/nace/OneDrive/Desktop/STM32/Projects_nace/NUCLEO_LL_Project_LCD/STM32_NUCLEO_LL_Project_LCD_22_02_2025/Core/Src\nt_system_init.c ****         nt_pll_def->nt_AHB_prescaler = LL_RCC_SYSCLK_DIV_1;
  51:C:/Users/nace/OneDrive/Desktop/STM32/Projects_nace/NUCLEO_LL_Project_LCD/STM32_NUCLEO_LL_Project_LCD_22_02_2025/Core/Src\nt_system_init.c ****         nt_pll_def->nt_APB1_prescaler = LL_RCC_APB1_DIV_2;
  52:C:/Users/nace/OneDrive/Desktop/STM32/Projects_nace/NUCLEO_LL_Project_LCD/STM32_NUCLEO_LL_Project_LCD_22_02_2025/Core/Src\nt_system_init.c ****         nt_pll_def->nt_APB2_prescaler = LL_RCC_APB2_DIV_1;
  53:C:/Users/nace/OneDrive/Desktop/STM32/Projects_nace/NUCLEO_LL_Project_LCD/STM32_NUCLEO_LL_Project_LCD_22_02_2025/Core/Src\nt_system_init.c **** 
  54:C:/Users/nace/OneDrive/Desktop/STM32/Projects_nace/NUCLEO_LL_Project_LCD/STM32_NUCLEO_LL_Project_LCD_22_02_2025/Core/Src\nt_system_init.c ****         LL_UTILS_PLLInitTypeDef HSI_PLL_struct;
  55:C:/Users/nace/OneDrive/Desktop/STM32/Projects_nace/NUCLEO_LL_Project_LCD/STM32_NUCLEO_LL_Project_LCD_22_02_2025/Core/Src\nt_system_init.c ****         LL_UTILS_ClkInitTypeDef HSI_CLK_struct;
  56:C:/Users/nace/OneDrive/Desktop/STM32/Projects_nace/NUCLEO_LL_Project_LCD/STM32_NUCLEO_LL_Project_LCD_22_02_2025/Core/Src\nt_system_init.c **** 
  57:C:/Users/nace/OneDrive/Desktop/STM32/Projects_nace/NUCLEO_LL_Project_LCD/STM32_NUCLEO_LL_Project_LCD_22_02_2025/Core/Src\nt_system_init.c ****         HSI_PLL_struct.PLLMul = nt_pll_def->nt_pll_mul;
  58:C:/Users/nace/OneDrive/Desktop/STM32/Projects_nace/NUCLEO_LL_Project_LCD/STM32_NUCLEO_LL_Project_LCD_22_02_2025/Core/Src\nt_system_init.c **** 
  59:C:/Users/nace/OneDrive/Desktop/STM32/Projects_nace/NUCLEO_LL_Project_LCD/STM32_NUCLEO_LL_Project_LCD_22_02_2025/Core/Src\nt_system_init.c ****         HSI_CLK_struct.AHBCLKDivider = nt_pll_def->nt_AHB_prescaler;
  60:C:/Users/nace/OneDrive/Desktop/STM32/Projects_nace/NUCLEO_LL_Project_LCD/STM32_NUCLEO_LL_Project_LCD_22_02_2025/Core/Src\nt_system_init.c ****         HSI_CLK_struct.APB1CLKDivider = nt_pll_def->nt_APB1_prescaler;
  61:C:/Users/nace/OneDrive/Desktop/STM32/Projects_nace/NUCLEO_LL_Project_LCD/STM32_NUCLEO_LL_Project_LCD_22_02_2025/Core/Src\nt_system_init.c ****         HSI_CLK_struct.APB2CLKDivider = nt_pll_def->nt_APB2_prescaler;
  62:C:/Users/nace/OneDrive/Desktop/STM32/Projects_nace/NUCLEO_LL_Project_LCD/STM32_NUCLEO_LL_Project_LCD_22_02_2025/Core/Src\nt_system_init.c **** 
  63:C:/Users/nace/OneDrive/Desktop/STM32/Projects_nace/NUCLEO_LL_Project_LCD/STM32_NUCLEO_LL_Project_LCD_22_02_2025/Core/Src\nt_system_init.c ****         status = LL_PLL_ConfigSystemClock_HSI(&HSI_PLL_struct, &HSI_CLK_struct);
  64:C:/Users/nace/OneDrive/Desktop/STM32/Projects_nace/NUCLEO_LL_Project_LCD/STM32_NUCLEO_LL_Project_LCD_22_02_2025/Core/Src\nt_system_init.c **** 
  65:C:/Users/nace/OneDrive/Desktop/STM32/Projects_nace/NUCLEO_LL_Project_LCD/STM32_NUCLEO_LL_Project_LCD_22_02_2025/Core/Src\nt_system_init.c ****         LL_Init1msTick(nt_pll_def->nt_HSE_freq);
  66:C:/Users/nace/OneDrive/Desktop/STM32/Projects_nace/NUCLEO_LL_Project_LCD/STM32_NUCLEO_LL_Project_LCD_22_02_2025/Core/Src\nt_system_init.c **** 
  67:C:/Users/nace/OneDrive/Desktop/STM32/Projects_nace/NUCLEO_LL_Project_LCD/STM32_NUCLEO_LL_Project_LCD_22_02_2025/Core/Src\nt_system_init.c ****         break;
  68:C:/Users/nace/OneDrive/Desktop/STM32/Projects_nace/NUCLEO_LL_Project_LCD/STM32_NUCLEO_LL_Project_LCD_22_02_2025/Core/Src\nt_system_init.c **** 
  69:C:/Users/nace/OneDrive/Desktop/STM32/Projects_nace/NUCLEO_LL_Project_LCD/STM32_NUCLEO_LL_Project_LCD_22_02_2025/Core/Src\nt_system_init.c ****     default:
  70:C:/Users/nace/OneDrive/Desktop/STM32/Projects_nace/NUCLEO_LL_Project_LCD/STM32_NUCLEO_LL_Project_LCD_22_02_2025/Core/Src\nt_system_init.c **** 
  71:C:/Users/nace/OneDrive/Desktop/STM32/Projects_nace/NUCLEO_LL_Project_LCD/STM32_NUCLEO_LL_Project_LCD_22_02_2025/Core/Src\nt_system_init.c ****         break;
  72:C:/Users/nace/OneDrive/Desktop/STM32/Projects_nace/NUCLEO_LL_Project_LCD/STM32_NUCLEO_LL_Project_LCD_22_02_2025/Core/Src\nt_system_init.c ****     }
  73:C:/Users/nace/OneDrive/Desktop/STM32/Projects_nace/NUCLEO_LL_Project_LCD/STM32_NUCLEO_LL_Project_LCD_22_02_2025/Core/Src\nt_system_init.c **** 
  74:C:/Users/nace/OneDrive/Desktop/STM32/Projects_nace/NUCLEO_LL_Project_LCD/STM32_NUCLEO_LL_Project_LCD_22_02_2025/Core/Src\nt_system_init.c ****     
  75:C:/Users/nace/OneDrive/Desktop/STM32/Projects_nace/NUCLEO_LL_Project_LCD/STM32_NUCLEO_LL_Project_LCD_22_02_2025/Core/Src\nt_system_init.c **** 
  76:C:/Users/nace/OneDrive/Desktop/STM32/Projects_nace/NUCLEO_LL_Project_LCD/STM32_NUCLEO_LL_Project_LCD_22_02_2025/Core/Src\nt_system_init.c ****     return status;
  50              		.loc 1 76 5 view .LVU4
  77:C:/Users/nace/OneDrive/Desktop/STM32/Projects_nace/NUCLEO_LL_Project_LCD/STM32_NUCLEO_LL_Project_LCD_22_02_2025/Core/Src\nt_system_init.c **** }
  51              		.loc 1 77 1 is_stmt 0 view .LVU5
  52 000e 281E     		subs	r0, r5, #0
  53 0010 18BF     		it	ne
  54 0012 0120     		movne	r0, #1
  55 0014 07B0     		add	sp, sp, #28
  56              		.cfi_remember_state
  57              		.cfi_def_cfa_offset 12
  58              		@ sp needed
  59 0016 30BD     		pop	{r4, r5, pc}
  60              	.LVL3:
  61              	.L2:
  62              		.cfi_restore_state
  63              		.loc 1 77 1 view .LVU6
  64 0018 0D46     		mov	r5, r1
  65              	.LBB5:
  20:C:/Users/nace/OneDrive/Desktop/STM32/Projects_nace/NUCLEO_LL_Project_LCD/STM32_NUCLEO_LL_Project_LCD_22_02_2025/Core/Src\nt_system_init.c ****         nt_pll_def->nt_pll_prediv = LL_RCC_PLLSOURCE_HSE_DIV_2;
  66              		.loc 1 20 9 is_stmt 1 view .LVU7
  20:C:/Users/nace/OneDrive/Desktop/STM32/Projects_nace/NUCLEO_LL_Project_LCD/STM32_NUCLEO_LL_Project_LCD_22_02_2025/Core/Src\nt_system_init.c ****         nt_pll_def->nt_pll_prediv = LL_RCC_PLLSOURCE_HSE_DIV_2;
  67              		.loc 1 20 33 is_stmt 0 view .LVU8
  68 001a 2160     		str	r1, [r4]
  21:C:/Users/nace/OneDrive/Desktop/STM32/Projects_nace/NUCLEO_LL_Project_LCD/STM32_NUCLEO_LL_Project_LCD_22_02_2025/Core/Src\nt_system_init.c ****         nt_pll_def->nt_pll_mul = LL_RCC_PLL_MUL_16;
  69              		.loc 1 21 9 is_stmt 1 view .LVU9
  21:C:/Users/nace/OneDrive/Desktop/STM32/Projects_nace/NUCLEO_LL_Project_LCD/STM32_NUCLEO_LL_Project_LCD_22_02_2025/Core/Src\nt_system_init.c ****         nt_pll_def->nt_pll_mul = LL_RCC_PLL_MUL_16;
  70              		.loc 1 21 35 is_stmt 0 view .LVU10
  71 001c 4FF44031 		mov	r1, #196608
  72              	.LVL4:
  21:C:/Users/nace/OneDrive/Desktop/STM32/Projects_nace/NUCLEO_LL_Project_LCD/STM32_NUCLEO_LL_Project_LCD_22_02_2025/Core/Src\nt_system_init.c ****         nt_pll_def->nt_pll_mul = LL_RCC_PLL_MUL_16;
  73              		.loc 1 21 35 view .LVU11
  74 0020 9160     		str	r1, [r2, #8]
  22:C:/Users/nace/OneDrive/Desktop/STM32/Projects_nace/NUCLEO_LL_Project_LCD/STM32_NUCLEO_LL_Project_LCD_22_02_2025/Core/Src\nt_system_init.c ****         //nt_pll_def->nt_pll_prediv = LL_RCC_PLLSOURCE_HSE_DIV_1;
  75              		.loc 1 22 9 is_stmt 1 view .LVU12
  22:C:/Users/nace/OneDrive/Desktop/STM32/Projects_nace/NUCLEO_LL_Project_LCD/STM32_NUCLEO_LL_Project_LCD_22_02_2025/Core/Src\nt_system_init.c ****         //nt_pll_def->nt_pll_prediv = LL_RCC_PLLSOURCE_HSE_DIV_1;
  76              		.loc 1 22 32 is_stmt 0 view .LVU13
  77 0022 4FF46010 		mov	r0, #3670016
  78              	.LVL5:
  22:C:/Users/nace/OneDrive/Desktop/STM32/Projects_nace/NUCLEO_LL_Project_LCD/STM32_NUCLEO_LL_Project_LCD_22_02_2025/Core/Src\nt_system_init.c ****         //nt_pll_def->nt_pll_prediv = LL_RCC_PLLSOURCE_HSE_DIV_1;
  79              		.loc 1 22 32 view .LVU14
  80 0026 5060     		str	r0, [r2, #4]
  25:C:/Users/nace/OneDrive/Desktop/STM32/Projects_nace/NUCLEO_LL_Project_LCD/STM32_NUCLEO_LL_Project_LCD_22_02_2025/Core/Src\nt_system_init.c ****         nt_pll_def->nt_APB1_prescaler = LL_RCC_APB1_DIV_2;
  81              		.loc 1 25 9 is_stmt 1 view .LVU15
  25:C:/Users/nace/OneDrive/Desktop/STM32/Projects_nace/NUCLEO_LL_Project_LCD/STM32_NUCLEO_LL_Project_LCD_22_02_2025/Core/Src\nt_system_init.c ****         nt_pll_def->nt_APB1_prescaler = LL_RCC_APB1_DIV_2;
  82              		.loc 1 25 38 is_stmt 0 view .LVU16
  83 0028 0023     		movs	r3, #0
  84 002a D360     		str	r3, [r2, #12]
  26:C:/Users/nace/OneDrive/Desktop/STM32/Projects_nace/NUCLEO_LL_Project_LCD/STM32_NUCLEO_LL_Project_LCD_22_02_2025/Core/Src\nt_system_init.c ****         nt_pll_def->nt_APB2_prescaler = LL_RCC_APB2_DIV_1;
  85              		.loc 1 26 9 is_stmt 1 view .LVU17
  26:C:/Users/nace/OneDrive/Desktop/STM32/Projects_nace/NUCLEO_LL_Project_LCD/STM32_NUCLEO_LL_Project_LCD_22_02_2025/Core/Src\nt_system_init.c ****         nt_pll_def->nt_APB2_prescaler = LL_RCC_APB2_DIV_1;
  86              		.loc 1 26 39 is_stmt 0 view .LVU18
  87 002c 4FF48062 		mov	r2, #1024
  88              	.LVL6:
  26:C:/Users/nace/OneDrive/Desktop/STM32/Projects_nace/NUCLEO_LL_Project_LCD/STM32_NUCLEO_LL_Project_LCD_22_02_2025/Core/Src\nt_system_init.c ****         nt_pll_def->nt_APB2_prescaler = LL_RCC_APB2_DIV_1;
  89              		.loc 1 26 39 view .LVU19
  90 0030 2261     		str	r2, [r4, #16]
  27:C:/Users/nace/OneDrive/Desktop/STM32/Projects_nace/NUCLEO_LL_Project_LCD/STM32_NUCLEO_LL_Project_LCD_22_02_2025/Core/Src\nt_system_init.c **** 
  91              		.loc 1 27 9 is_stmt 1 view .LVU20
  27:C:/Users/nace/OneDrive/Desktop/STM32/Projects_nace/NUCLEO_LL_Project_LCD/STM32_NUCLEO_LL_Project_LCD_22_02_2025/Core/Src\nt_system_init.c **** 
  92              		.loc 1 27 39 is_stmt 0 view .LVU21
  93 0032 6361     		str	r3, [r4, #20]
  29:C:/Users/nace/OneDrive/Desktop/STM32/Projects_nace/NUCLEO_LL_Project_LCD/STM32_NUCLEO_LL_Project_LCD_22_02_2025/Core/Src\nt_system_init.c ****         LL_UTILS_ClkInitTypeDef HSE_CLK_struct;
  94              		.loc 1 29 9 is_stmt 1 view .LVU22
  30:C:/Users/nace/OneDrive/Desktop/STM32/Projects_nace/NUCLEO_LL_Project_LCD/STM32_NUCLEO_LL_Project_LCD_22_02_2025/Core/Src\nt_system_init.c **** 
  95              		.loc 1 30 9 view .LVU23
  32:C:/Users/nace/OneDrive/Desktop/STM32/Projects_nace/NUCLEO_LL_Project_LCD/STM32_NUCLEO_LL_Project_LCD_22_02_2025/Core/Src\nt_system_init.c ****         HSE_PLL_struct.Prediv = nt_pll_def->nt_pll_prediv;
  96              		.loc 1 32 9 view .LVU24
  32:C:/Users/nace/OneDrive/Desktop/STM32/Projects_nace/NUCLEO_LL_Project_LCD/STM32_NUCLEO_LL_Project_LCD_22_02_2025/Core/Src\nt_system_init.c ****         HSE_PLL_struct.Prediv = nt_pll_def->nt_pll_prediv;
  97              		.loc 1 32 31 is_stmt 0 view .LVU25
  98 0034 0190     		str	r0, [sp, #4]
  33:C:/Users/nace/OneDrive/Desktop/STM32/Projects_nace/NUCLEO_LL_Project_LCD/STM32_NUCLEO_LL_Project_LCD_22_02_2025/Core/Src\nt_system_init.c **** 
  99              		.loc 1 33 9 is_stmt 1 view .LVU26
  33:C:/Users/nace/OneDrive/Desktop/STM32/Projects_nace/NUCLEO_LL_Project_LCD/STM32_NUCLEO_LL_Project_LCD_22_02_2025/Core/Src\nt_system_init.c **** 
 100              		.loc 1 33 31 is_stmt 0 view .LVU27
 101 0036 0291     		str	r1, [sp, #8]
  35:C:/Users/nace/OneDrive/Desktop/STM32/Projects_nace/NUCLEO_LL_Project_LCD/STM32_NUCLEO_LL_Project_LCD_22_02_2025/Core/Src\nt_system_init.c ****         HSE_CLK_struct.APB1CLKDivider = nt_pll_def->nt_APB1_prescaler;
 102              		.loc 1 35 9 is_stmt 1 view .LVU28
  35:C:/Users/nace/OneDrive/Desktop/STM32/Projects_nace/NUCLEO_LL_Project_LCD/STM32_NUCLEO_LL_Project_LCD_22_02_2025/Core/Src\nt_system_init.c ****         HSE_CLK_struct.APB1CLKDivider = nt_pll_def->nt_APB1_prescaler;
 103              		.loc 1 35 38 is_stmt 0 view .LVU29
 104 0038 0393     		str	r3, [sp, #12]
  36:C:/Users/nace/OneDrive/Desktop/STM32/Projects_nace/NUCLEO_LL_Project_LCD/STM32_NUCLEO_LL_Project_LCD_22_02_2025/Core/Src\nt_system_init.c ****         HSE_CLK_struct.APB2CLKDivider = nt_pll_def->nt_APB2_prescaler;
 105              		.loc 1 36 9 is_stmt 1 view .LVU30
  36:C:/Users/nace/OneDrive/Desktop/STM32/Projects_nace/NUCLEO_LL_Project_LCD/STM32_NUCLEO_LL_Project_LCD_22_02_2025/Core/Src\nt_system_init.c ****         HSE_CLK_struct.APB2CLKDivider = nt_pll_def->nt_APB2_prescaler;
 106              		.loc 1 36 39 is_stmt 0 view .LVU31
 107 003a 0492     		str	r2, [sp, #16]
  37:C:/Users/nace/OneDrive/Desktop/STM32/Projects_nace/NUCLEO_LL_Project_LCD/STM32_NUCLEO_LL_Project_LCD_22_02_2025/Core/Src\nt_system_init.c **** 
 108              		.loc 1 37 9 is_stmt 1 view .LVU32
  37:C:/Users/nace/OneDrive/Desktop/STM32/Projects_nace/NUCLEO_LL_Project_LCD/STM32_NUCLEO_LL_Project_LCD_22_02_2025/Core/Src\nt_system_init.c **** 
 109              		.loc 1 37 39 is_stmt 0 view .LVU33
 110 003c 0593     		str	r3, [sp, #20]
  39:C:/Users/nace/OneDrive/Desktop/STM32/Projects_nace/NUCLEO_LL_Project_LCD/STM32_NUCLEO_LL_Project_LCD_22_02_2025/Core/Src\nt_system_init.c **** 
 111              		.loc 1 39 9 is_stmt 1 view .LVU34
  39:C:/Users/nace/OneDrive/Desktop/STM32/Projects_nace/NUCLEO_LL_Project_LCD/STM32_NUCLEO_LL_Project_LCD_22_02_2025/Core/Src\nt_system_init.c **** 
 112              		.loc 1 39 18 is_stmt 0 view .LVU35
 113 003e 03AB     		add	r3, sp, #12
 114 0040 01AA     		add	r2, sp, #4
 115 0042 0121     		movs	r1, #1
 116 0044 2846     		mov	r0, r5
 117 0046 FFF7FEFF 		bl	LL_PLL_ConfigSystemClock_HSE
 118              	.LVL7:
 119 004a 0546     		mov	r5, r0
 120              	.LVL8:
  41:C:/Users/nace/OneDrive/Desktop/STM32/Projects_nace/NUCLEO_LL_Project_LCD/STM32_NUCLEO_LL_Project_LCD_22_02_2025/Core/Src\nt_system_init.c ****         LL_RCC_HSE_EnableCSS();
 121              		.loc 1 41 9 is_stmt 1 view .LVU36
 122 004c 2068     		ldr	r0, [r4]
 123 004e FFF7FEFF 		bl	LL_Init1msTick
 124              	.LVL9:
  42:C:/Users/nace/OneDrive/Desktop/STM32/Projects_nace/NUCLEO_LL_Project_LCD/STM32_NUCLEO_LL_Project_LCD_22_02_2025/Core/Src\nt_system_init.c **** 
 125              		.loc 1 42 9 view .LVU37
 126              	.LBB6:
 127              	.LBI6:
 128              		.file 2 "C:/Users/nace/OneDrive/Desktop/STM32/Projects_nace/NUCLEO_LL_Project_LCD/STM32_NUCLEO_LL_
   1:C:/Users/nace/OneDrive/Desktop/STM32/Projects_nace/NUCLEO_LL_Project_LCD/STM32_NUCLEO_LL_Project_LCD_22_02_2025/Drivers/STM32F1xx_HAL_Driver/Inc\stm32f1xx_ll_rcc.h **** /**
   2:C:/Users/nace/OneDrive/Desktop/STM32/Projects_nace/NUCLEO_LL_Project_LCD/STM32_NUCLEO_LL_Project_LCD_22_02_2025/Drivers/STM32F1xx_HAL_Driver/Inc\stm32f1xx_ll_rcc.h ****   ******************************************************************************
   3:C:/Users/nace/OneDrive/Desktop/STM32/Projects_nace/NUCLEO_LL_Project_LCD/STM32_NUCLEO_LL_Project_LCD_22_02_2025/Drivers/STM32F1xx_HAL_Driver/Inc\stm32f1xx_ll_rcc.h ****   * @file    stm32f1xx_ll_rcc.h
   4:C:/Users/nace/OneDrive/Desktop/STM32/Projects_nace/NUCLEO_LL_Project_LCD/STM32_NUCLEO_LL_Project_LCD_22_02_2025/Drivers/STM32F1xx_HAL_Driver/Inc\stm32f1xx_ll_rcc.h ****   * @author  MCD Application Team
   5:C:/Users/nace/OneDrive/Desktop/STM32/Projects_nace/NUCLEO_LL_Project_LCD/STM32_NUCLEO_LL_Project_LCD_22_02_2025/Drivers/STM32F1xx_HAL_Driver/Inc\stm32f1xx_ll_rcc.h ****   * @brief   Header file of RCC LL module.
   6:C:/Users/nace/OneDrive/Desktop/STM32/Projects_nace/NUCLEO_LL_Project_LCD/STM32_NUCLEO_LL_Project_LCD_22_02_2025/Drivers/STM32F1xx_HAL_Driver/Inc\stm32f1xx_ll_rcc.h ****   ******************************************************************************
   7:C:/Users/nace/OneDrive/Desktop/STM32/Projects_nace/NUCLEO_LL_Project_LCD/STM32_NUCLEO_LL_Project_LCD_22_02_2025/Drivers/STM32F1xx_HAL_Driver/Inc\stm32f1xx_ll_rcc.h ****   * @attention
   8:C:/Users/nace/OneDrive/Desktop/STM32/Projects_nace/NUCLEO_LL_Project_LCD/STM32_NUCLEO_LL_Project_LCD_22_02_2025/Drivers/STM32F1xx_HAL_Driver/Inc\stm32f1xx_ll_rcc.h ****   *
   9:C:/Users/nace/OneDrive/Desktop/STM32/Projects_nace/NUCLEO_LL_Project_LCD/STM32_NUCLEO_LL_Project_LCD_22_02_2025/Drivers/STM32F1xx_HAL_Driver/Inc\stm32f1xx_ll_rcc.h ****   * Copyright (c) 2016 STMicroelectronics.
  10:C:/Users/nace/OneDrive/Desktop/STM32/Projects_nace/NUCLEO_LL_Project_LCD/STM32_NUCLEO_LL_Project_LCD_22_02_2025/Drivers/STM32F1xx_HAL_Driver/Inc\stm32f1xx_ll_rcc.h ****   * All rights reserved.
  11:C:/Users/nace/OneDrive/Desktop/STM32/Projects_nace/NUCLEO_LL_Project_LCD/STM32_NUCLEO_LL_Project_LCD_22_02_2025/Drivers/STM32F1xx_HAL_Driver/Inc\stm32f1xx_ll_rcc.h ****   *
  12:C:/Users/nace/OneDrive/Desktop/STM32/Projects_nace/NUCLEO_LL_Project_LCD/STM32_NUCLEO_LL_Project_LCD_22_02_2025/Drivers/STM32F1xx_HAL_Driver/Inc\stm32f1xx_ll_rcc.h ****   * This software is licensed under terms that can be found in the LICENSE file in
  13:C:/Users/nace/OneDrive/Desktop/STM32/Projects_nace/NUCLEO_LL_Project_LCD/STM32_NUCLEO_LL_Project_LCD_22_02_2025/Drivers/STM32F1xx_HAL_Driver/Inc\stm32f1xx_ll_rcc.h ****   * the root directory of this software component.
  14:C:/Users/nace/OneDrive/Desktop/STM32/Projects_nace/NUCLEO_LL_Project_LCD/STM32_NUCLEO_LL_Project_LCD_22_02_2025/Drivers/STM32F1xx_HAL_Driver/Inc\stm32f1xx_ll_rcc.h ****   * If no LICENSE file comes with this software, it is provided AS-IS.
  15:C:/Users/nace/OneDrive/Desktop/STM32/Projects_nace/NUCLEO_LL_Project_LCD/STM32_NUCLEO_LL_Project_LCD_22_02_2025/Drivers/STM32F1xx_HAL_Driver/Inc\stm32f1xx_ll_rcc.h ****   ******************************************************************************
  16:C:/Users/nace/OneDrive/Desktop/STM32/Projects_nace/NUCLEO_LL_Project_LCD/STM32_NUCLEO_LL_Project_LCD_22_02_2025/Drivers/STM32F1xx_HAL_Driver/Inc\stm32f1xx_ll_rcc.h ****   */
  17:C:/Users/nace/OneDrive/Desktop/STM32/Projects_nace/NUCLEO_LL_Project_LCD/STM32_NUCLEO_LL_Project_LCD_22_02_2025/Drivers/STM32F1xx_HAL_Driver/Inc\stm32f1xx_ll_rcc.h **** 
  18:C:/Users/nace/OneDrive/Desktop/STM32/Projects_nace/NUCLEO_LL_Project_LCD/STM32_NUCLEO_LL_Project_LCD_22_02_2025/Drivers/STM32F1xx_HAL_Driver/Inc\stm32f1xx_ll_rcc.h **** /* Define to prevent recursive inclusion -------------------------------------*/
  19:C:/Users/nace/OneDrive/Desktop/STM32/Projects_nace/NUCLEO_LL_Project_LCD/STM32_NUCLEO_LL_Project_LCD_22_02_2025/Drivers/STM32F1xx_HAL_Driver/Inc\stm32f1xx_ll_rcc.h **** #ifndef __STM32F1xx_LL_RCC_H
  20:C:/Users/nace/OneDrive/Desktop/STM32/Projects_nace/NUCLEO_LL_Project_LCD/STM32_NUCLEO_LL_Project_LCD_22_02_2025/Drivers/STM32F1xx_HAL_Driver/Inc\stm32f1xx_ll_rcc.h **** #define __STM32F1xx_LL_RCC_H
  21:C:/Users/nace/OneDrive/Desktop/STM32/Projects_nace/NUCLEO_LL_Project_LCD/STM32_NUCLEO_LL_Project_LCD_22_02_2025/Drivers/STM32F1xx_HAL_Driver/Inc\stm32f1xx_ll_rcc.h **** 
  22:C:/Users/nace/OneDrive/Desktop/STM32/Projects_nace/NUCLEO_LL_Project_LCD/STM32_NUCLEO_LL_Project_LCD_22_02_2025/Drivers/STM32F1xx_HAL_Driver/Inc\stm32f1xx_ll_rcc.h **** #ifdef __cplusplus
  23:C:/Users/nace/OneDrive/Desktop/STM32/Projects_nace/NUCLEO_LL_Project_LCD/STM32_NUCLEO_LL_Project_LCD_22_02_2025/Drivers/STM32F1xx_HAL_Driver/Inc\stm32f1xx_ll_rcc.h **** extern "C" {
  24:C:/Users/nace/OneDrive/Desktop/STM32/Projects_nace/NUCLEO_LL_Project_LCD/STM32_NUCLEO_LL_Project_LCD_22_02_2025/Drivers/STM32F1xx_HAL_Driver/Inc\stm32f1xx_ll_rcc.h **** #endif
  25:C:/Users/nace/OneDrive/Desktop/STM32/Projects_nace/NUCLEO_LL_Project_LCD/STM32_NUCLEO_LL_Project_LCD_22_02_2025/Drivers/STM32F1xx_HAL_Driver/Inc\stm32f1xx_ll_rcc.h **** 
  26:C:/Users/nace/OneDrive/Desktop/STM32/Projects_nace/NUCLEO_LL_Project_LCD/STM32_NUCLEO_LL_Project_LCD_22_02_2025/Drivers/STM32F1xx_HAL_Driver/Inc\stm32f1xx_ll_rcc.h **** /* Includes ------------------------------------------------------------------*/
  27:C:/Users/nace/OneDrive/Desktop/STM32/Projects_nace/NUCLEO_LL_Project_LCD/STM32_NUCLEO_LL_Project_LCD_22_02_2025/Drivers/STM32F1xx_HAL_Driver/Inc\stm32f1xx_ll_rcc.h **** #include "stm32f1xx.h"
  28:C:/Users/nace/OneDrive/Desktop/STM32/Projects_nace/NUCLEO_LL_Project_LCD/STM32_NUCLEO_LL_Project_LCD_22_02_2025/Drivers/STM32F1xx_HAL_Driver/Inc\stm32f1xx_ll_rcc.h **** 
  29:C:/Users/nace/OneDrive/Desktop/STM32/Projects_nace/NUCLEO_LL_Project_LCD/STM32_NUCLEO_LL_Project_LCD_22_02_2025/Drivers/STM32F1xx_HAL_Driver/Inc\stm32f1xx_ll_rcc.h **** /** @addtogroup STM32F1xx_LL_Driver
  30:C:/Users/nace/OneDrive/Desktop/STM32/Projects_nace/NUCLEO_LL_Project_LCD/STM32_NUCLEO_LL_Project_LCD_22_02_2025/Drivers/STM32F1xx_HAL_Driver/Inc\stm32f1xx_ll_rcc.h ****   * @{
  31:C:/Users/nace/OneDrive/Desktop/STM32/Projects_nace/NUCLEO_LL_Project_LCD/STM32_NUCLEO_LL_Project_LCD_22_02_2025/Drivers/STM32F1xx_HAL_Driver/Inc\stm32f1xx_ll_rcc.h ****   */
  32:C:/Users/nace/OneDrive/Desktop/STM32/Projects_nace/NUCLEO_LL_Project_LCD/STM32_NUCLEO_LL_Project_LCD_22_02_2025/Drivers/STM32F1xx_HAL_Driver/Inc\stm32f1xx_ll_rcc.h **** 
  33:C:/Users/nace/OneDrive/Desktop/STM32/Projects_nace/NUCLEO_LL_Project_LCD/STM32_NUCLEO_LL_Project_LCD_22_02_2025/Drivers/STM32F1xx_HAL_Driver/Inc\stm32f1xx_ll_rcc.h **** #if defined(RCC)
  34:C:/Users/nace/OneDrive/Desktop/STM32/Projects_nace/NUCLEO_LL_Project_LCD/STM32_NUCLEO_LL_Project_LCD_22_02_2025/Drivers/STM32F1xx_HAL_Driver/Inc\stm32f1xx_ll_rcc.h **** 
  35:C:/Users/nace/OneDrive/Desktop/STM32/Projects_nace/NUCLEO_LL_Project_LCD/STM32_NUCLEO_LL_Project_LCD_22_02_2025/Drivers/STM32F1xx_HAL_Driver/Inc\stm32f1xx_ll_rcc.h **** /** @defgroup RCC_LL RCC
  36:C:/Users/nace/OneDrive/Desktop/STM32/Projects_nace/NUCLEO_LL_Project_LCD/STM32_NUCLEO_LL_Project_LCD_22_02_2025/Drivers/STM32F1xx_HAL_Driver/Inc\stm32f1xx_ll_rcc.h ****   * @{
  37:C:/Users/nace/OneDrive/Desktop/STM32/Projects_nace/NUCLEO_LL_Project_LCD/STM32_NUCLEO_LL_Project_LCD_22_02_2025/Drivers/STM32F1xx_HAL_Driver/Inc\stm32f1xx_ll_rcc.h ****   */
  38:C:/Users/nace/OneDrive/Desktop/STM32/Projects_nace/NUCLEO_LL_Project_LCD/STM32_NUCLEO_LL_Project_LCD_22_02_2025/Drivers/STM32F1xx_HAL_Driver/Inc\stm32f1xx_ll_rcc.h **** 
  39:C:/Users/nace/OneDrive/Desktop/STM32/Projects_nace/NUCLEO_LL_Project_LCD/STM32_NUCLEO_LL_Project_LCD_22_02_2025/Drivers/STM32F1xx_HAL_Driver/Inc\stm32f1xx_ll_rcc.h **** /* Private types -------------------------------------------------------------*/
  40:C:/Users/nace/OneDrive/Desktop/STM32/Projects_nace/NUCLEO_LL_Project_LCD/STM32_NUCLEO_LL_Project_LCD_22_02_2025/Drivers/STM32F1xx_HAL_Driver/Inc\stm32f1xx_ll_rcc.h **** /* Private variables ---------------------------------------------------------*/
  41:C:/Users/nace/OneDrive/Desktop/STM32/Projects_nace/NUCLEO_LL_Project_LCD/STM32_NUCLEO_LL_Project_LCD_22_02_2025/Drivers/STM32F1xx_HAL_Driver/Inc\stm32f1xx_ll_rcc.h **** /* Private constants ---------------------------------------------------------*/
  42:C:/Users/nace/OneDrive/Desktop/STM32/Projects_nace/NUCLEO_LL_Project_LCD/STM32_NUCLEO_LL_Project_LCD_22_02_2025/Drivers/STM32F1xx_HAL_Driver/Inc\stm32f1xx_ll_rcc.h **** /* Private macros ------------------------------------------------------------*/
  43:C:/Users/nace/OneDrive/Desktop/STM32/Projects_nace/NUCLEO_LL_Project_LCD/STM32_NUCLEO_LL_Project_LCD_22_02_2025/Drivers/STM32F1xx_HAL_Driver/Inc\stm32f1xx_ll_rcc.h **** #if defined(USE_FULL_LL_DRIVER)
  44:C:/Users/nace/OneDrive/Desktop/STM32/Projects_nace/NUCLEO_LL_Project_LCD/STM32_NUCLEO_LL_Project_LCD_22_02_2025/Drivers/STM32F1xx_HAL_Driver/Inc\stm32f1xx_ll_rcc.h **** /** @defgroup RCC_LL_Private_Macros RCC Private Macros
  45:C:/Users/nace/OneDrive/Desktop/STM32/Projects_nace/NUCLEO_LL_Project_LCD/STM32_NUCLEO_LL_Project_LCD_22_02_2025/Drivers/STM32F1xx_HAL_Driver/Inc\stm32f1xx_ll_rcc.h ****   * @{
  46:C:/Users/nace/OneDrive/Desktop/STM32/Projects_nace/NUCLEO_LL_Project_LCD/STM32_NUCLEO_LL_Project_LCD_22_02_2025/Drivers/STM32F1xx_HAL_Driver/Inc\stm32f1xx_ll_rcc.h ****   */
  47:C:/Users/nace/OneDrive/Desktop/STM32/Projects_nace/NUCLEO_LL_Project_LCD/STM32_NUCLEO_LL_Project_LCD_22_02_2025/Drivers/STM32F1xx_HAL_Driver/Inc\stm32f1xx_ll_rcc.h **** /**
  48:C:/Users/nace/OneDrive/Desktop/STM32/Projects_nace/NUCLEO_LL_Project_LCD/STM32_NUCLEO_LL_Project_LCD_22_02_2025/Drivers/STM32F1xx_HAL_Driver/Inc\stm32f1xx_ll_rcc.h ****   * @}
  49:C:/Users/nace/OneDrive/Desktop/STM32/Projects_nace/NUCLEO_LL_Project_LCD/STM32_NUCLEO_LL_Project_LCD_22_02_2025/Drivers/STM32F1xx_HAL_Driver/Inc\stm32f1xx_ll_rcc.h ****   */
  50:C:/Users/nace/OneDrive/Desktop/STM32/Projects_nace/NUCLEO_LL_Project_LCD/STM32_NUCLEO_LL_Project_LCD_22_02_2025/Drivers/STM32F1xx_HAL_Driver/Inc\stm32f1xx_ll_rcc.h **** #endif /*USE_FULL_LL_DRIVER*/
  51:C:/Users/nace/OneDrive/Desktop/STM32/Projects_nace/NUCLEO_LL_Project_LCD/STM32_NUCLEO_LL_Project_LCD_22_02_2025/Drivers/STM32F1xx_HAL_Driver/Inc\stm32f1xx_ll_rcc.h **** /* Exported types ------------------------------------------------------------*/
  52:C:/Users/nace/OneDrive/Desktop/STM32/Projects_nace/NUCLEO_LL_Project_LCD/STM32_NUCLEO_LL_Project_LCD_22_02_2025/Drivers/STM32F1xx_HAL_Driver/Inc\stm32f1xx_ll_rcc.h **** #if defined(USE_FULL_LL_DRIVER)
  53:C:/Users/nace/OneDrive/Desktop/STM32/Projects_nace/NUCLEO_LL_Project_LCD/STM32_NUCLEO_LL_Project_LCD_22_02_2025/Drivers/STM32F1xx_HAL_Driver/Inc\stm32f1xx_ll_rcc.h **** /** @defgroup RCC_LL_Exported_Types RCC Exported Types
  54:C:/Users/nace/OneDrive/Desktop/STM32/Projects_nace/NUCLEO_LL_Project_LCD/STM32_NUCLEO_LL_Project_LCD_22_02_2025/Drivers/STM32F1xx_HAL_Driver/Inc\stm32f1xx_ll_rcc.h ****   * @{
  55:C:/Users/nace/OneDrive/Desktop/STM32/Projects_nace/NUCLEO_LL_Project_LCD/STM32_NUCLEO_LL_Project_LCD_22_02_2025/Drivers/STM32F1xx_HAL_Driver/Inc\stm32f1xx_ll_rcc.h ****   */
  56:C:/Users/nace/OneDrive/Desktop/STM32/Projects_nace/NUCLEO_LL_Project_LCD/STM32_NUCLEO_LL_Project_LCD_22_02_2025/Drivers/STM32F1xx_HAL_Driver/Inc\stm32f1xx_ll_rcc.h **** 
  57:C:/Users/nace/OneDrive/Desktop/STM32/Projects_nace/NUCLEO_LL_Project_LCD/STM32_NUCLEO_LL_Project_LCD_22_02_2025/Drivers/STM32F1xx_HAL_Driver/Inc\stm32f1xx_ll_rcc.h **** /** @defgroup LL_ES_CLOCK_FREQ Clocks Frequency Structure
  58:C:/Users/nace/OneDrive/Desktop/STM32/Projects_nace/NUCLEO_LL_Project_LCD/STM32_NUCLEO_LL_Project_LCD_22_02_2025/Drivers/STM32F1xx_HAL_Driver/Inc\stm32f1xx_ll_rcc.h ****   * @{
  59:C:/Users/nace/OneDrive/Desktop/STM32/Projects_nace/NUCLEO_LL_Project_LCD/STM32_NUCLEO_LL_Project_LCD_22_02_2025/Drivers/STM32F1xx_HAL_Driver/Inc\stm32f1xx_ll_rcc.h ****   */
  60:C:/Users/nace/OneDrive/Desktop/STM32/Projects_nace/NUCLEO_LL_Project_LCD/STM32_NUCLEO_LL_Project_LCD_22_02_2025/Drivers/STM32F1xx_HAL_Driver/Inc\stm32f1xx_ll_rcc.h **** 
  61:C:/Users/nace/OneDrive/Desktop/STM32/Projects_nace/NUCLEO_LL_Project_LCD/STM32_NUCLEO_LL_Project_LCD_22_02_2025/Drivers/STM32F1xx_HAL_Driver/Inc\stm32f1xx_ll_rcc.h **** /**
  62:C:/Users/nace/OneDrive/Desktop/STM32/Projects_nace/NUCLEO_LL_Project_LCD/STM32_NUCLEO_LL_Project_LCD_22_02_2025/Drivers/STM32F1xx_HAL_Driver/Inc\stm32f1xx_ll_rcc.h ****   * @brief  RCC Clocks Frequency Structure
  63:C:/Users/nace/OneDrive/Desktop/STM32/Projects_nace/NUCLEO_LL_Project_LCD/STM32_NUCLEO_LL_Project_LCD_22_02_2025/Drivers/STM32F1xx_HAL_Driver/Inc\stm32f1xx_ll_rcc.h ****   */
  64:C:/Users/nace/OneDrive/Desktop/STM32/Projects_nace/NUCLEO_LL_Project_LCD/STM32_NUCLEO_LL_Project_LCD_22_02_2025/Drivers/STM32F1xx_HAL_Driver/Inc\stm32f1xx_ll_rcc.h **** typedef struct
  65:C:/Users/nace/OneDrive/Desktop/STM32/Projects_nace/NUCLEO_LL_Project_LCD/STM32_NUCLEO_LL_Project_LCD_22_02_2025/Drivers/STM32F1xx_HAL_Driver/Inc\stm32f1xx_ll_rcc.h **** {
  66:C:/Users/nace/OneDrive/Desktop/STM32/Projects_nace/NUCLEO_LL_Project_LCD/STM32_NUCLEO_LL_Project_LCD_22_02_2025/Drivers/STM32F1xx_HAL_Driver/Inc\stm32f1xx_ll_rcc.h ****   uint32_t SYSCLK_Frequency;        /*!< SYSCLK clock frequency */
  67:C:/Users/nace/OneDrive/Desktop/STM32/Projects_nace/NUCLEO_LL_Project_LCD/STM32_NUCLEO_LL_Project_LCD_22_02_2025/Drivers/STM32F1xx_HAL_Driver/Inc\stm32f1xx_ll_rcc.h ****   uint32_t HCLK_Frequency;          /*!< HCLK clock frequency */
  68:C:/Users/nace/OneDrive/Desktop/STM32/Projects_nace/NUCLEO_LL_Project_LCD/STM32_NUCLEO_LL_Project_LCD_22_02_2025/Drivers/STM32F1xx_HAL_Driver/Inc\stm32f1xx_ll_rcc.h ****   uint32_t PCLK1_Frequency;         /*!< PCLK1 clock frequency */
  69:C:/Users/nace/OneDrive/Desktop/STM32/Projects_nace/NUCLEO_LL_Project_LCD/STM32_NUCLEO_LL_Project_LCD_22_02_2025/Drivers/STM32F1xx_HAL_Driver/Inc\stm32f1xx_ll_rcc.h ****   uint32_t PCLK2_Frequency;         /*!< PCLK2 clock frequency */
  70:C:/Users/nace/OneDrive/Desktop/STM32/Projects_nace/NUCLEO_LL_Project_LCD/STM32_NUCLEO_LL_Project_LCD_22_02_2025/Drivers/STM32F1xx_HAL_Driver/Inc\stm32f1xx_ll_rcc.h **** } LL_RCC_ClocksTypeDef;
  71:C:/Users/nace/OneDrive/Desktop/STM32/Projects_nace/NUCLEO_LL_Project_LCD/STM32_NUCLEO_LL_Project_LCD_22_02_2025/Drivers/STM32F1xx_HAL_Driver/Inc\stm32f1xx_ll_rcc.h **** 
  72:C:/Users/nace/OneDrive/Desktop/STM32/Projects_nace/NUCLEO_LL_Project_LCD/STM32_NUCLEO_LL_Project_LCD_22_02_2025/Drivers/STM32F1xx_HAL_Driver/Inc\stm32f1xx_ll_rcc.h **** /**
  73:C:/Users/nace/OneDrive/Desktop/STM32/Projects_nace/NUCLEO_LL_Project_LCD/STM32_NUCLEO_LL_Project_LCD_22_02_2025/Drivers/STM32F1xx_HAL_Driver/Inc\stm32f1xx_ll_rcc.h ****   * @}
  74:C:/Users/nace/OneDrive/Desktop/STM32/Projects_nace/NUCLEO_LL_Project_LCD/STM32_NUCLEO_LL_Project_LCD_22_02_2025/Drivers/STM32F1xx_HAL_Driver/Inc\stm32f1xx_ll_rcc.h ****   */
  75:C:/Users/nace/OneDrive/Desktop/STM32/Projects_nace/NUCLEO_LL_Project_LCD/STM32_NUCLEO_LL_Project_LCD_22_02_2025/Drivers/STM32F1xx_HAL_Driver/Inc\stm32f1xx_ll_rcc.h **** 
  76:C:/Users/nace/OneDrive/Desktop/STM32/Projects_nace/NUCLEO_LL_Project_LCD/STM32_NUCLEO_LL_Project_LCD_22_02_2025/Drivers/STM32F1xx_HAL_Driver/Inc\stm32f1xx_ll_rcc.h **** /**
  77:C:/Users/nace/OneDrive/Desktop/STM32/Projects_nace/NUCLEO_LL_Project_LCD/STM32_NUCLEO_LL_Project_LCD_22_02_2025/Drivers/STM32F1xx_HAL_Driver/Inc\stm32f1xx_ll_rcc.h ****   * @}
  78:C:/Users/nace/OneDrive/Desktop/STM32/Projects_nace/NUCLEO_LL_Project_LCD/STM32_NUCLEO_LL_Project_LCD_22_02_2025/Drivers/STM32F1xx_HAL_Driver/Inc\stm32f1xx_ll_rcc.h ****   */
  79:C:/Users/nace/OneDrive/Desktop/STM32/Projects_nace/NUCLEO_LL_Project_LCD/STM32_NUCLEO_LL_Project_LCD_22_02_2025/Drivers/STM32F1xx_HAL_Driver/Inc\stm32f1xx_ll_rcc.h **** #endif /* USE_FULL_LL_DRIVER */
  80:C:/Users/nace/OneDrive/Desktop/STM32/Projects_nace/NUCLEO_LL_Project_LCD/STM32_NUCLEO_LL_Project_LCD_22_02_2025/Drivers/STM32F1xx_HAL_Driver/Inc\stm32f1xx_ll_rcc.h **** 
  81:C:/Users/nace/OneDrive/Desktop/STM32/Projects_nace/NUCLEO_LL_Project_LCD/STM32_NUCLEO_LL_Project_LCD_22_02_2025/Drivers/STM32F1xx_HAL_Driver/Inc\stm32f1xx_ll_rcc.h **** /* Exported constants --------------------------------------------------------*/
  82:C:/Users/nace/OneDrive/Desktop/STM32/Projects_nace/NUCLEO_LL_Project_LCD/STM32_NUCLEO_LL_Project_LCD_22_02_2025/Drivers/STM32F1xx_HAL_Driver/Inc\stm32f1xx_ll_rcc.h **** /** @defgroup RCC_LL_Exported_Constants RCC Exported Constants
  83:C:/Users/nace/OneDrive/Desktop/STM32/Projects_nace/NUCLEO_LL_Project_LCD/STM32_NUCLEO_LL_Project_LCD_22_02_2025/Drivers/STM32F1xx_HAL_Driver/Inc\stm32f1xx_ll_rcc.h ****   * @{
  84:C:/Users/nace/OneDrive/Desktop/STM32/Projects_nace/NUCLEO_LL_Project_LCD/STM32_NUCLEO_LL_Project_LCD_22_02_2025/Drivers/STM32F1xx_HAL_Driver/Inc\stm32f1xx_ll_rcc.h ****   */
  85:C:/Users/nace/OneDrive/Desktop/STM32/Projects_nace/NUCLEO_LL_Project_LCD/STM32_NUCLEO_LL_Project_LCD_22_02_2025/Drivers/STM32F1xx_HAL_Driver/Inc\stm32f1xx_ll_rcc.h **** 
  86:C:/Users/nace/OneDrive/Desktop/STM32/Projects_nace/NUCLEO_LL_Project_LCD/STM32_NUCLEO_LL_Project_LCD_22_02_2025/Drivers/STM32F1xx_HAL_Driver/Inc\stm32f1xx_ll_rcc.h **** /** @defgroup RCC_LL_EC_OSC_VALUES Oscillator Values adaptation
  87:C:/Users/nace/OneDrive/Desktop/STM32/Projects_nace/NUCLEO_LL_Project_LCD/STM32_NUCLEO_LL_Project_LCD_22_02_2025/Drivers/STM32F1xx_HAL_Driver/Inc\stm32f1xx_ll_rcc.h ****   * @brief    Defines used to adapt values of different oscillators
  88:C:/Users/nace/OneDrive/Desktop/STM32/Projects_nace/NUCLEO_LL_Project_LCD/STM32_NUCLEO_LL_Project_LCD_22_02_2025/Drivers/STM32F1xx_HAL_Driver/Inc\stm32f1xx_ll_rcc.h ****   * @note     These values could be modified in the user environment according to
  89:C:/Users/nace/OneDrive/Desktop/STM32/Projects_nace/NUCLEO_LL_Project_LCD/STM32_NUCLEO_LL_Project_LCD_22_02_2025/Drivers/STM32F1xx_HAL_Driver/Inc\stm32f1xx_ll_rcc.h ****   *           HW set-up.
  90:C:/Users/nace/OneDrive/Desktop/STM32/Projects_nace/NUCLEO_LL_Project_LCD/STM32_NUCLEO_LL_Project_LCD_22_02_2025/Drivers/STM32F1xx_HAL_Driver/Inc\stm32f1xx_ll_rcc.h ****   * @{
  91:C:/Users/nace/OneDrive/Desktop/STM32/Projects_nace/NUCLEO_LL_Project_LCD/STM32_NUCLEO_LL_Project_LCD_22_02_2025/Drivers/STM32F1xx_HAL_Driver/Inc\stm32f1xx_ll_rcc.h ****   */
  92:C:/Users/nace/OneDrive/Desktop/STM32/Projects_nace/NUCLEO_LL_Project_LCD/STM32_NUCLEO_LL_Project_LCD_22_02_2025/Drivers/STM32F1xx_HAL_Driver/Inc\stm32f1xx_ll_rcc.h **** #if !defined  (HSE_VALUE)
  93:C:/Users/nace/OneDrive/Desktop/STM32/Projects_nace/NUCLEO_LL_Project_LCD/STM32_NUCLEO_LL_Project_LCD_22_02_2025/Drivers/STM32F1xx_HAL_Driver/Inc\stm32f1xx_ll_rcc.h **** #define HSE_VALUE    8000000U  /*!< Value of the HSE oscillator in Hz */
  94:C:/Users/nace/OneDrive/Desktop/STM32/Projects_nace/NUCLEO_LL_Project_LCD/STM32_NUCLEO_LL_Project_LCD_22_02_2025/Drivers/STM32F1xx_HAL_Driver/Inc\stm32f1xx_ll_rcc.h **** #endif /* HSE_VALUE */
  95:C:/Users/nace/OneDrive/Desktop/STM32/Projects_nace/NUCLEO_LL_Project_LCD/STM32_NUCLEO_LL_Project_LCD_22_02_2025/Drivers/STM32F1xx_HAL_Driver/Inc\stm32f1xx_ll_rcc.h **** 
  96:C:/Users/nace/OneDrive/Desktop/STM32/Projects_nace/NUCLEO_LL_Project_LCD/STM32_NUCLEO_LL_Project_LCD_22_02_2025/Drivers/STM32F1xx_HAL_Driver/Inc\stm32f1xx_ll_rcc.h **** #if !defined  (HSI_VALUE)
  97:C:/Users/nace/OneDrive/Desktop/STM32/Projects_nace/NUCLEO_LL_Project_LCD/STM32_NUCLEO_LL_Project_LCD_22_02_2025/Drivers/STM32F1xx_HAL_Driver/Inc\stm32f1xx_ll_rcc.h **** #define HSI_VALUE    8000000U  /*!< Value of the HSI oscillator in Hz */
  98:C:/Users/nace/OneDrive/Desktop/STM32/Projects_nace/NUCLEO_LL_Project_LCD/STM32_NUCLEO_LL_Project_LCD_22_02_2025/Drivers/STM32F1xx_HAL_Driver/Inc\stm32f1xx_ll_rcc.h **** #endif /* HSI_VALUE */
  99:C:/Users/nace/OneDrive/Desktop/STM32/Projects_nace/NUCLEO_LL_Project_LCD/STM32_NUCLEO_LL_Project_LCD_22_02_2025/Drivers/STM32F1xx_HAL_Driver/Inc\stm32f1xx_ll_rcc.h **** 
 100:C:/Users/nace/OneDrive/Desktop/STM32/Projects_nace/NUCLEO_LL_Project_LCD/STM32_NUCLEO_LL_Project_LCD_22_02_2025/Drivers/STM32F1xx_HAL_Driver/Inc\stm32f1xx_ll_rcc.h **** #if !defined  (LSE_VALUE)
 101:C:/Users/nace/OneDrive/Desktop/STM32/Projects_nace/NUCLEO_LL_Project_LCD/STM32_NUCLEO_LL_Project_LCD_22_02_2025/Drivers/STM32F1xx_HAL_Driver/Inc\stm32f1xx_ll_rcc.h **** #define LSE_VALUE    32768U    /*!< Value of the LSE oscillator in Hz */
 102:C:/Users/nace/OneDrive/Desktop/STM32/Projects_nace/NUCLEO_LL_Project_LCD/STM32_NUCLEO_LL_Project_LCD_22_02_2025/Drivers/STM32F1xx_HAL_Driver/Inc\stm32f1xx_ll_rcc.h **** #endif /* LSE_VALUE */
 103:C:/Users/nace/OneDrive/Desktop/STM32/Projects_nace/NUCLEO_LL_Project_LCD/STM32_NUCLEO_LL_Project_LCD_22_02_2025/Drivers/STM32F1xx_HAL_Driver/Inc\stm32f1xx_ll_rcc.h **** 
 104:C:/Users/nace/OneDrive/Desktop/STM32/Projects_nace/NUCLEO_LL_Project_LCD/STM32_NUCLEO_LL_Project_LCD_22_02_2025/Drivers/STM32F1xx_HAL_Driver/Inc\stm32f1xx_ll_rcc.h **** #if !defined  (LSI_VALUE)
 105:C:/Users/nace/OneDrive/Desktop/STM32/Projects_nace/NUCLEO_LL_Project_LCD/STM32_NUCLEO_LL_Project_LCD_22_02_2025/Drivers/STM32F1xx_HAL_Driver/Inc\stm32f1xx_ll_rcc.h **** #define LSI_VALUE    40000U    /*!< Value of the LSI oscillator in Hz */
 106:C:/Users/nace/OneDrive/Desktop/STM32/Projects_nace/NUCLEO_LL_Project_LCD/STM32_NUCLEO_LL_Project_LCD_22_02_2025/Drivers/STM32F1xx_HAL_Driver/Inc\stm32f1xx_ll_rcc.h **** #endif /* LSI_VALUE */
 107:C:/Users/nace/OneDrive/Desktop/STM32/Projects_nace/NUCLEO_LL_Project_LCD/STM32_NUCLEO_LL_Project_LCD_22_02_2025/Drivers/STM32F1xx_HAL_Driver/Inc\stm32f1xx_ll_rcc.h **** /**
 108:C:/Users/nace/OneDrive/Desktop/STM32/Projects_nace/NUCLEO_LL_Project_LCD/STM32_NUCLEO_LL_Project_LCD_22_02_2025/Drivers/STM32F1xx_HAL_Driver/Inc\stm32f1xx_ll_rcc.h ****   * @}
 109:C:/Users/nace/OneDrive/Desktop/STM32/Projects_nace/NUCLEO_LL_Project_LCD/STM32_NUCLEO_LL_Project_LCD_22_02_2025/Drivers/STM32F1xx_HAL_Driver/Inc\stm32f1xx_ll_rcc.h ****   */
 110:C:/Users/nace/OneDrive/Desktop/STM32/Projects_nace/NUCLEO_LL_Project_LCD/STM32_NUCLEO_LL_Project_LCD_22_02_2025/Drivers/STM32F1xx_HAL_Driver/Inc\stm32f1xx_ll_rcc.h **** 
 111:C:/Users/nace/OneDrive/Desktop/STM32/Projects_nace/NUCLEO_LL_Project_LCD/STM32_NUCLEO_LL_Project_LCD_22_02_2025/Drivers/STM32F1xx_HAL_Driver/Inc\stm32f1xx_ll_rcc.h **** /** @defgroup RCC_LL_EC_CLEAR_FLAG Clear Flags Defines
 112:C:/Users/nace/OneDrive/Desktop/STM32/Projects_nace/NUCLEO_LL_Project_LCD/STM32_NUCLEO_LL_Project_LCD_22_02_2025/Drivers/STM32F1xx_HAL_Driver/Inc\stm32f1xx_ll_rcc.h ****   * @brief    Flags defines which can be used with LL_RCC_WriteReg function
 113:C:/Users/nace/OneDrive/Desktop/STM32/Projects_nace/NUCLEO_LL_Project_LCD/STM32_NUCLEO_LL_Project_LCD_22_02_2025/Drivers/STM32F1xx_HAL_Driver/Inc\stm32f1xx_ll_rcc.h ****   * @{
 114:C:/Users/nace/OneDrive/Desktop/STM32/Projects_nace/NUCLEO_LL_Project_LCD/STM32_NUCLEO_LL_Project_LCD_22_02_2025/Drivers/STM32F1xx_HAL_Driver/Inc\stm32f1xx_ll_rcc.h ****   */
 115:C:/Users/nace/OneDrive/Desktop/STM32/Projects_nace/NUCLEO_LL_Project_LCD/STM32_NUCLEO_LL_Project_LCD_22_02_2025/Drivers/STM32F1xx_HAL_Driver/Inc\stm32f1xx_ll_rcc.h **** #define LL_RCC_CIR_LSIRDYC                RCC_CIR_LSIRDYC     /*!< LSI Ready Interrupt Clear */
 116:C:/Users/nace/OneDrive/Desktop/STM32/Projects_nace/NUCLEO_LL_Project_LCD/STM32_NUCLEO_LL_Project_LCD_22_02_2025/Drivers/STM32F1xx_HAL_Driver/Inc\stm32f1xx_ll_rcc.h **** #define LL_RCC_CIR_LSERDYC                RCC_CIR_LSERDYC     /*!< LSE Ready Interrupt Clear */
 117:C:/Users/nace/OneDrive/Desktop/STM32/Projects_nace/NUCLEO_LL_Project_LCD/STM32_NUCLEO_LL_Project_LCD_22_02_2025/Drivers/STM32F1xx_HAL_Driver/Inc\stm32f1xx_ll_rcc.h **** #define LL_RCC_CIR_HSIRDYC                RCC_CIR_HSIRDYC     /*!< HSI Ready Interrupt Clear */
 118:C:/Users/nace/OneDrive/Desktop/STM32/Projects_nace/NUCLEO_LL_Project_LCD/STM32_NUCLEO_LL_Project_LCD_22_02_2025/Drivers/STM32F1xx_HAL_Driver/Inc\stm32f1xx_ll_rcc.h **** #define LL_RCC_CIR_HSERDYC                RCC_CIR_HSERDYC     /*!< HSE Ready Interrupt Clear */
 119:C:/Users/nace/OneDrive/Desktop/STM32/Projects_nace/NUCLEO_LL_Project_LCD/STM32_NUCLEO_LL_Project_LCD_22_02_2025/Drivers/STM32F1xx_HAL_Driver/Inc\stm32f1xx_ll_rcc.h **** #define LL_RCC_CIR_PLLRDYC                RCC_CIR_PLLRDYC     /*!< PLL Ready Interrupt Clear */
 120:C:/Users/nace/OneDrive/Desktop/STM32/Projects_nace/NUCLEO_LL_Project_LCD/STM32_NUCLEO_LL_Project_LCD_22_02_2025/Drivers/STM32F1xx_HAL_Driver/Inc\stm32f1xx_ll_rcc.h **** #define LL_RCC_CIR_PLL3RDYC               RCC_CIR_PLL3RDYC    /*!< PLL3(PLLI2S) Ready Interrupt Cle
 121:C:/Users/nace/OneDrive/Desktop/STM32/Projects_nace/NUCLEO_LL_Project_LCD/STM32_NUCLEO_LL_Project_LCD_22_02_2025/Drivers/STM32F1xx_HAL_Driver/Inc\stm32f1xx_ll_rcc.h **** #define LL_RCC_CIR_PLL2RDYC               RCC_CIR_PLL2RDYC    /*!< PLL2 Ready Interrupt Clear */
 122:C:/Users/nace/OneDrive/Desktop/STM32/Projects_nace/NUCLEO_LL_Project_LCD/STM32_NUCLEO_LL_Project_LCD_22_02_2025/Drivers/STM32F1xx_HAL_Driver/Inc\stm32f1xx_ll_rcc.h **** #define LL_RCC_CIR_CSSC                   RCC_CIR_CSSC        /*!< Clock Security System Interrupt 
 123:C:/Users/nace/OneDrive/Desktop/STM32/Projects_nace/NUCLEO_LL_Project_LCD/STM32_NUCLEO_LL_Project_LCD_22_02_2025/Drivers/STM32F1xx_HAL_Driver/Inc\stm32f1xx_ll_rcc.h **** /**
 124:C:/Users/nace/OneDrive/Desktop/STM32/Projects_nace/NUCLEO_LL_Project_LCD/STM32_NUCLEO_LL_Project_LCD_22_02_2025/Drivers/STM32F1xx_HAL_Driver/Inc\stm32f1xx_ll_rcc.h ****   * @}
 125:C:/Users/nace/OneDrive/Desktop/STM32/Projects_nace/NUCLEO_LL_Project_LCD/STM32_NUCLEO_LL_Project_LCD_22_02_2025/Drivers/STM32F1xx_HAL_Driver/Inc\stm32f1xx_ll_rcc.h ****   */
 126:C:/Users/nace/OneDrive/Desktop/STM32/Projects_nace/NUCLEO_LL_Project_LCD/STM32_NUCLEO_LL_Project_LCD_22_02_2025/Drivers/STM32F1xx_HAL_Driver/Inc\stm32f1xx_ll_rcc.h **** 
 127:C:/Users/nace/OneDrive/Desktop/STM32/Projects_nace/NUCLEO_LL_Project_LCD/STM32_NUCLEO_LL_Project_LCD_22_02_2025/Drivers/STM32F1xx_HAL_Driver/Inc\stm32f1xx_ll_rcc.h **** /** @defgroup RCC_LL_EC_GET_FLAG Get Flags Defines
 128:C:/Users/nace/OneDrive/Desktop/STM32/Projects_nace/NUCLEO_LL_Project_LCD/STM32_NUCLEO_LL_Project_LCD_22_02_2025/Drivers/STM32F1xx_HAL_Driver/Inc\stm32f1xx_ll_rcc.h ****   * @brief    Flags defines which can be used with LL_RCC_ReadReg function
 129:C:/Users/nace/OneDrive/Desktop/STM32/Projects_nace/NUCLEO_LL_Project_LCD/STM32_NUCLEO_LL_Project_LCD_22_02_2025/Drivers/STM32F1xx_HAL_Driver/Inc\stm32f1xx_ll_rcc.h ****   * @{
 130:C:/Users/nace/OneDrive/Desktop/STM32/Projects_nace/NUCLEO_LL_Project_LCD/STM32_NUCLEO_LL_Project_LCD_22_02_2025/Drivers/STM32F1xx_HAL_Driver/Inc\stm32f1xx_ll_rcc.h ****   */
 131:C:/Users/nace/OneDrive/Desktop/STM32/Projects_nace/NUCLEO_LL_Project_LCD/STM32_NUCLEO_LL_Project_LCD_22_02_2025/Drivers/STM32F1xx_HAL_Driver/Inc\stm32f1xx_ll_rcc.h **** #define LL_RCC_CIR_LSIRDYF                RCC_CIR_LSIRDYF     /*!< LSI Ready Interrupt flag */
 132:C:/Users/nace/OneDrive/Desktop/STM32/Projects_nace/NUCLEO_LL_Project_LCD/STM32_NUCLEO_LL_Project_LCD_22_02_2025/Drivers/STM32F1xx_HAL_Driver/Inc\stm32f1xx_ll_rcc.h **** #define LL_RCC_CIR_LSERDYF                RCC_CIR_LSERDYF     /*!< LSE Ready Interrupt flag */
 133:C:/Users/nace/OneDrive/Desktop/STM32/Projects_nace/NUCLEO_LL_Project_LCD/STM32_NUCLEO_LL_Project_LCD_22_02_2025/Drivers/STM32F1xx_HAL_Driver/Inc\stm32f1xx_ll_rcc.h **** #define LL_RCC_CIR_HSIRDYF                RCC_CIR_HSIRDYF     /*!< HSI Ready Interrupt flag */
 134:C:/Users/nace/OneDrive/Desktop/STM32/Projects_nace/NUCLEO_LL_Project_LCD/STM32_NUCLEO_LL_Project_LCD_22_02_2025/Drivers/STM32F1xx_HAL_Driver/Inc\stm32f1xx_ll_rcc.h **** #define LL_RCC_CIR_HSERDYF                RCC_CIR_HSERDYF     /*!< HSE Ready Interrupt flag */
 135:C:/Users/nace/OneDrive/Desktop/STM32/Projects_nace/NUCLEO_LL_Project_LCD/STM32_NUCLEO_LL_Project_LCD_22_02_2025/Drivers/STM32F1xx_HAL_Driver/Inc\stm32f1xx_ll_rcc.h **** #define LL_RCC_CIR_PLLRDYF                RCC_CIR_PLLRDYF     /*!< PLL Ready Interrupt flag */
 136:C:/Users/nace/OneDrive/Desktop/STM32/Projects_nace/NUCLEO_LL_Project_LCD/STM32_NUCLEO_LL_Project_LCD_22_02_2025/Drivers/STM32F1xx_HAL_Driver/Inc\stm32f1xx_ll_rcc.h **** #define LL_RCC_CIR_PLL3RDYF               RCC_CIR_PLL3RDYF    /*!< PLL3(PLLI2S) Ready Interrupt fla
 137:C:/Users/nace/OneDrive/Desktop/STM32/Projects_nace/NUCLEO_LL_Project_LCD/STM32_NUCLEO_LL_Project_LCD_22_02_2025/Drivers/STM32F1xx_HAL_Driver/Inc\stm32f1xx_ll_rcc.h **** #define LL_RCC_CIR_PLL2RDYF               RCC_CIR_PLL2RDYF    /*!< PLL2 Ready Interrupt flag */
 138:C:/Users/nace/OneDrive/Desktop/STM32/Projects_nace/NUCLEO_LL_Project_LCD/STM32_NUCLEO_LL_Project_LCD_22_02_2025/Drivers/STM32F1xx_HAL_Driver/Inc\stm32f1xx_ll_rcc.h **** #define LL_RCC_CIR_CSSF                   RCC_CIR_CSSF        /*!< Clock Security System Interrupt 
 139:C:/Users/nace/OneDrive/Desktop/STM32/Projects_nace/NUCLEO_LL_Project_LCD/STM32_NUCLEO_LL_Project_LCD_22_02_2025/Drivers/STM32F1xx_HAL_Driver/Inc\stm32f1xx_ll_rcc.h **** #define LL_RCC_CSR_PINRSTF                RCC_CSR_PINRSTF     /*!< PIN reset flag */
 140:C:/Users/nace/OneDrive/Desktop/STM32/Projects_nace/NUCLEO_LL_Project_LCD/STM32_NUCLEO_LL_Project_LCD_22_02_2025/Drivers/STM32F1xx_HAL_Driver/Inc\stm32f1xx_ll_rcc.h **** #define LL_RCC_CSR_PORRSTF                RCC_CSR_PORRSTF     /*!< POR/PDR reset flag */
 141:C:/Users/nace/OneDrive/Desktop/STM32/Projects_nace/NUCLEO_LL_Project_LCD/STM32_NUCLEO_LL_Project_LCD_22_02_2025/Drivers/STM32F1xx_HAL_Driver/Inc\stm32f1xx_ll_rcc.h **** #define LL_RCC_CSR_SFTRSTF                RCC_CSR_SFTRSTF     /*!< Software Reset flag */
 142:C:/Users/nace/OneDrive/Desktop/STM32/Projects_nace/NUCLEO_LL_Project_LCD/STM32_NUCLEO_LL_Project_LCD_22_02_2025/Drivers/STM32F1xx_HAL_Driver/Inc\stm32f1xx_ll_rcc.h **** #define LL_RCC_CSR_IWDGRSTF               RCC_CSR_IWDGRSTF    /*!< Independent Watchdog reset flag 
 143:C:/Users/nace/OneDrive/Desktop/STM32/Projects_nace/NUCLEO_LL_Project_LCD/STM32_NUCLEO_LL_Project_LCD_22_02_2025/Drivers/STM32F1xx_HAL_Driver/Inc\stm32f1xx_ll_rcc.h **** #define LL_RCC_CSR_WWDGRSTF               RCC_CSR_WWDGRSTF    /*!< Window watchdog reset flag */
 144:C:/Users/nace/OneDrive/Desktop/STM32/Projects_nace/NUCLEO_LL_Project_LCD/STM32_NUCLEO_LL_Project_LCD_22_02_2025/Drivers/STM32F1xx_HAL_Driver/Inc\stm32f1xx_ll_rcc.h **** #define LL_RCC_CSR_LPWRRSTF               RCC_CSR_LPWRRSTF    /*!< Low-Power reset flag */
 145:C:/Users/nace/OneDrive/Desktop/STM32/Projects_nace/NUCLEO_LL_Project_LCD/STM32_NUCLEO_LL_Project_LCD_22_02_2025/Drivers/STM32F1xx_HAL_Driver/Inc\stm32f1xx_ll_rcc.h **** /**
 146:C:/Users/nace/OneDrive/Desktop/STM32/Projects_nace/NUCLEO_LL_Project_LCD/STM32_NUCLEO_LL_Project_LCD_22_02_2025/Drivers/STM32F1xx_HAL_Driver/Inc\stm32f1xx_ll_rcc.h ****   * @}
 147:C:/Users/nace/OneDrive/Desktop/STM32/Projects_nace/NUCLEO_LL_Project_LCD/STM32_NUCLEO_LL_Project_LCD_22_02_2025/Drivers/STM32F1xx_HAL_Driver/Inc\stm32f1xx_ll_rcc.h ****   */
 148:C:/Users/nace/OneDrive/Desktop/STM32/Projects_nace/NUCLEO_LL_Project_LCD/STM32_NUCLEO_LL_Project_LCD_22_02_2025/Drivers/STM32F1xx_HAL_Driver/Inc\stm32f1xx_ll_rcc.h **** 
 149:C:/Users/nace/OneDrive/Desktop/STM32/Projects_nace/NUCLEO_LL_Project_LCD/STM32_NUCLEO_LL_Project_LCD_22_02_2025/Drivers/STM32F1xx_HAL_Driver/Inc\stm32f1xx_ll_rcc.h **** /** @defgroup RCC_LL_EC_IT IT Defines
 150:C:/Users/nace/OneDrive/Desktop/STM32/Projects_nace/NUCLEO_LL_Project_LCD/STM32_NUCLEO_LL_Project_LCD_22_02_2025/Drivers/STM32F1xx_HAL_Driver/Inc\stm32f1xx_ll_rcc.h ****   * @brief    IT defines which can be used with LL_RCC_ReadReg and  LL_RCC_WriteReg functions
 151:C:/Users/nace/OneDrive/Desktop/STM32/Projects_nace/NUCLEO_LL_Project_LCD/STM32_NUCLEO_LL_Project_LCD_22_02_2025/Drivers/STM32F1xx_HAL_Driver/Inc\stm32f1xx_ll_rcc.h ****   * @{
 152:C:/Users/nace/OneDrive/Desktop/STM32/Projects_nace/NUCLEO_LL_Project_LCD/STM32_NUCLEO_LL_Project_LCD_22_02_2025/Drivers/STM32F1xx_HAL_Driver/Inc\stm32f1xx_ll_rcc.h ****   */
 153:C:/Users/nace/OneDrive/Desktop/STM32/Projects_nace/NUCLEO_LL_Project_LCD/STM32_NUCLEO_LL_Project_LCD_22_02_2025/Drivers/STM32F1xx_HAL_Driver/Inc\stm32f1xx_ll_rcc.h **** #define LL_RCC_CIR_LSIRDYIE               RCC_CIR_LSIRDYIE      /*!< LSI Ready Interrupt Enable */
 154:C:/Users/nace/OneDrive/Desktop/STM32/Projects_nace/NUCLEO_LL_Project_LCD/STM32_NUCLEO_LL_Project_LCD_22_02_2025/Drivers/STM32F1xx_HAL_Driver/Inc\stm32f1xx_ll_rcc.h **** #define LL_RCC_CIR_LSERDYIE               RCC_CIR_LSERDYIE      /*!< LSE Ready Interrupt Enable */
 155:C:/Users/nace/OneDrive/Desktop/STM32/Projects_nace/NUCLEO_LL_Project_LCD/STM32_NUCLEO_LL_Project_LCD_22_02_2025/Drivers/STM32F1xx_HAL_Driver/Inc\stm32f1xx_ll_rcc.h **** #define LL_RCC_CIR_HSIRDYIE               RCC_CIR_HSIRDYIE      /*!< HSI Ready Interrupt Enable */
 156:C:/Users/nace/OneDrive/Desktop/STM32/Projects_nace/NUCLEO_LL_Project_LCD/STM32_NUCLEO_LL_Project_LCD_22_02_2025/Drivers/STM32F1xx_HAL_Driver/Inc\stm32f1xx_ll_rcc.h **** #define LL_RCC_CIR_HSERDYIE               RCC_CIR_HSERDYIE      /*!< HSE Ready Interrupt Enable */
 157:C:/Users/nace/OneDrive/Desktop/STM32/Projects_nace/NUCLEO_LL_Project_LCD/STM32_NUCLEO_LL_Project_LCD_22_02_2025/Drivers/STM32F1xx_HAL_Driver/Inc\stm32f1xx_ll_rcc.h **** #define LL_RCC_CIR_PLLRDYIE               RCC_CIR_PLLRDYIE      /*!< PLL Ready Interrupt Enable */
 158:C:/Users/nace/OneDrive/Desktop/STM32/Projects_nace/NUCLEO_LL_Project_LCD/STM32_NUCLEO_LL_Project_LCD_22_02_2025/Drivers/STM32F1xx_HAL_Driver/Inc\stm32f1xx_ll_rcc.h **** #define LL_RCC_CIR_PLL3RDYIE              RCC_CIR_PLL3RDYIE     /*!< PLL3(PLLI2S) Ready Interrupt E
 159:C:/Users/nace/OneDrive/Desktop/STM32/Projects_nace/NUCLEO_LL_Project_LCD/STM32_NUCLEO_LL_Project_LCD_22_02_2025/Drivers/STM32F1xx_HAL_Driver/Inc\stm32f1xx_ll_rcc.h **** #define LL_RCC_CIR_PLL2RDYIE              RCC_CIR_PLL2RDYIE     /*!< PLL2 Ready Interrupt Enable */
 160:C:/Users/nace/OneDrive/Desktop/STM32/Projects_nace/NUCLEO_LL_Project_LCD/STM32_NUCLEO_LL_Project_LCD_22_02_2025/Drivers/STM32F1xx_HAL_Driver/Inc\stm32f1xx_ll_rcc.h **** /**
 161:C:/Users/nace/OneDrive/Desktop/STM32/Projects_nace/NUCLEO_LL_Project_LCD/STM32_NUCLEO_LL_Project_LCD_22_02_2025/Drivers/STM32F1xx_HAL_Driver/Inc\stm32f1xx_ll_rcc.h ****   * @}
 162:C:/Users/nace/OneDrive/Desktop/STM32/Projects_nace/NUCLEO_LL_Project_LCD/STM32_NUCLEO_LL_Project_LCD_22_02_2025/Drivers/STM32F1xx_HAL_Driver/Inc\stm32f1xx_ll_rcc.h ****   */
 163:C:/Users/nace/OneDrive/Desktop/STM32/Projects_nace/NUCLEO_LL_Project_LCD/STM32_NUCLEO_LL_Project_LCD_22_02_2025/Drivers/STM32F1xx_HAL_Driver/Inc\stm32f1xx_ll_rcc.h **** 
 164:C:/Users/nace/OneDrive/Desktop/STM32/Projects_nace/NUCLEO_LL_Project_LCD/STM32_NUCLEO_LL_Project_LCD_22_02_2025/Drivers/STM32F1xx_HAL_Driver/Inc\stm32f1xx_ll_rcc.h **** #if defined(RCC_CFGR2_PREDIV2)
 165:C:/Users/nace/OneDrive/Desktop/STM32/Projects_nace/NUCLEO_LL_Project_LCD/STM32_NUCLEO_LL_Project_LCD_22_02_2025/Drivers/STM32F1xx_HAL_Driver/Inc\stm32f1xx_ll_rcc.h **** /** @defgroup RCC_LL_EC_HSE_PREDIV2_DIV HSE PREDIV2 Division factor
 166:C:/Users/nace/OneDrive/Desktop/STM32/Projects_nace/NUCLEO_LL_Project_LCD/STM32_NUCLEO_LL_Project_LCD_22_02_2025/Drivers/STM32F1xx_HAL_Driver/Inc\stm32f1xx_ll_rcc.h ****   * @{
 167:C:/Users/nace/OneDrive/Desktop/STM32/Projects_nace/NUCLEO_LL_Project_LCD/STM32_NUCLEO_LL_Project_LCD_22_02_2025/Drivers/STM32F1xx_HAL_Driver/Inc\stm32f1xx_ll_rcc.h ****   */
 168:C:/Users/nace/OneDrive/Desktop/STM32/Projects_nace/NUCLEO_LL_Project_LCD/STM32_NUCLEO_LL_Project_LCD_22_02_2025/Drivers/STM32F1xx_HAL_Driver/Inc\stm32f1xx_ll_rcc.h **** #define LL_RCC_HSE_PREDIV2_DIV_1           RCC_CFGR2_PREDIV2_DIV1   /*!< PREDIV2 input clock not di
 169:C:/Users/nace/OneDrive/Desktop/STM32/Projects_nace/NUCLEO_LL_Project_LCD/STM32_NUCLEO_LL_Project_LCD_22_02_2025/Drivers/STM32F1xx_HAL_Driver/Inc\stm32f1xx_ll_rcc.h **** #define LL_RCC_HSE_PREDIV2_DIV_2           RCC_CFGR2_PREDIV2_DIV2   /*!< PREDIV2 input clock divide
 170:C:/Users/nace/OneDrive/Desktop/STM32/Projects_nace/NUCLEO_LL_Project_LCD/STM32_NUCLEO_LL_Project_LCD_22_02_2025/Drivers/STM32F1xx_HAL_Driver/Inc\stm32f1xx_ll_rcc.h **** #define LL_RCC_HSE_PREDIV2_DIV_3           RCC_CFGR2_PREDIV2_DIV3   /*!< PREDIV2 input clock divide
 171:C:/Users/nace/OneDrive/Desktop/STM32/Projects_nace/NUCLEO_LL_Project_LCD/STM32_NUCLEO_LL_Project_LCD_22_02_2025/Drivers/STM32F1xx_HAL_Driver/Inc\stm32f1xx_ll_rcc.h **** #define LL_RCC_HSE_PREDIV2_DIV_4           RCC_CFGR2_PREDIV2_DIV4   /*!< PREDIV2 input clock divide
 172:C:/Users/nace/OneDrive/Desktop/STM32/Projects_nace/NUCLEO_LL_Project_LCD/STM32_NUCLEO_LL_Project_LCD_22_02_2025/Drivers/STM32F1xx_HAL_Driver/Inc\stm32f1xx_ll_rcc.h **** #define LL_RCC_HSE_PREDIV2_DIV_5           RCC_CFGR2_PREDIV2_DIV5   /*!< PREDIV2 input clock divide
 173:C:/Users/nace/OneDrive/Desktop/STM32/Projects_nace/NUCLEO_LL_Project_LCD/STM32_NUCLEO_LL_Project_LCD_22_02_2025/Drivers/STM32F1xx_HAL_Driver/Inc\stm32f1xx_ll_rcc.h **** #define LL_RCC_HSE_PREDIV2_DIV_6           RCC_CFGR2_PREDIV2_DIV6   /*!< PREDIV2 input clock divide
 174:C:/Users/nace/OneDrive/Desktop/STM32/Projects_nace/NUCLEO_LL_Project_LCD/STM32_NUCLEO_LL_Project_LCD_22_02_2025/Drivers/STM32F1xx_HAL_Driver/Inc\stm32f1xx_ll_rcc.h **** #define LL_RCC_HSE_PREDIV2_DIV_7           RCC_CFGR2_PREDIV2_DIV7   /*!< PREDIV2 input clock divide
 175:C:/Users/nace/OneDrive/Desktop/STM32/Projects_nace/NUCLEO_LL_Project_LCD/STM32_NUCLEO_LL_Project_LCD_22_02_2025/Drivers/STM32F1xx_HAL_Driver/Inc\stm32f1xx_ll_rcc.h **** #define LL_RCC_HSE_PREDIV2_DIV_8           RCC_CFGR2_PREDIV2_DIV8   /*!< PREDIV2 input clock divide
 176:C:/Users/nace/OneDrive/Desktop/STM32/Projects_nace/NUCLEO_LL_Project_LCD/STM32_NUCLEO_LL_Project_LCD_22_02_2025/Drivers/STM32F1xx_HAL_Driver/Inc\stm32f1xx_ll_rcc.h **** #define LL_RCC_HSE_PREDIV2_DIV_9           RCC_CFGR2_PREDIV2_DIV9   /*!< PREDIV2 input clock divide
 177:C:/Users/nace/OneDrive/Desktop/STM32/Projects_nace/NUCLEO_LL_Project_LCD/STM32_NUCLEO_LL_Project_LCD_22_02_2025/Drivers/STM32F1xx_HAL_Driver/Inc\stm32f1xx_ll_rcc.h **** #define LL_RCC_HSE_PREDIV2_DIV_10          RCC_CFGR2_PREDIV2_DIV10  /*!< PREDIV2 input clock divide
 178:C:/Users/nace/OneDrive/Desktop/STM32/Projects_nace/NUCLEO_LL_Project_LCD/STM32_NUCLEO_LL_Project_LCD_22_02_2025/Drivers/STM32F1xx_HAL_Driver/Inc\stm32f1xx_ll_rcc.h **** #define LL_RCC_HSE_PREDIV2_DIV_11          RCC_CFGR2_PREDIV2_DIV11  /*!< PREDIV2 input clock divide
 179:C:/Users/nace/OneDrive/Desktop/STM32/Projects_nace/NUCLEO_LL_Project_LCD/STM32_NUCLEO_LL_Project_LCD_22_02_2025/Drivers/STM32F1xx_HAL_Driver/Inc\stm32f1xx_ll_rcc.h **** #define LL_RCC_HSE_PREDIV2_DIV_12          RCC_CFGR2_PREDIV2_DIV12  /*!< PREDIV2 input clock divide
 180:C:/Users/nace/OneDrive/Desktop/STM32/Projects_nace/NUCLEO_LL_Project_LCD/STM32_NUCLEO_LL_Project_LCD_22_02_2025/Drivers/STM32F1xx_HAL_Driver/Inc\stm32f1xx_ll_rcc.h **** #define LL_RCC_HSE_PREDIV2_DIV_13          RCC_CFGR2_PREDIV2_DIV13  /*!< PREDIV2 input clock divide
 181:C:/Users/nace/OneDrive/Desktop/STM32/Projects_nace/NUCLEO_LL_Project_LCD/STM32_NUCLEO_LL_Project_LCD_22_02_2025/Drivers/STM32F1xx_HAL_Driver/Inc\stm32f1xx_ll_rcc.h **** #define LL_RCC_HSE_PREDIV2_DIV_14          RCC_CFGR2_PREDIV2_DIV14  /*!< PREDIV2 input clock divide
 182:C:/Users/nace/OneDrive/Desktop/STM32/Projects_nace/NUCLEO_LL_Project_LCD/STM32_NUCLEO_LL_Project_LCD_22_02_2025/Drivers/STM32F1xx_HAL_Driver/Inc\stm32f1xx_ll_rcc.h **** #define LL_RCC_HSE_PREDIV2_DIV_15          RCC_CFGR2_PREDIV2_DIV15  /*!< PREDIV2 input clock divide
 183:C:/Users/nace/OneDrive/Desktop/STM32/Projects_nace/NUCLEO_LL_Project_LCD/STM32_NUCLEO_LL_Project_LCD_22_02_2025/Drivers/STM32F1xx_HAL_Driver/Inc\stm32f1xx_ll_rcc.h **** #define LL_RCC_HSE_PREDIV2_DIV_16          RCC_CFGR2_PREDIV2_DIV16  /*!< PREDIV2 input clock divide
 184:C:/Users/nace/OneDrive/Desktop/STM32/Projects_nace/NUCLEO_LL_Project_LCD/STM32_NUCLEO_LL_Project_LCD_22_02_2025/Drivers/STM32F1xx_HAL_Driver/Inc\stm32f1xx_ll_rcc.h **** /**
 185:C:/Users/nace/OneDrive/Desktop/STM32/Projects_nace/NUCLEO_LL_Project_LCD/STM32_NUCLEO_LL_Project_LCD_22_02_2025/Drivers/STM32F1xx_HAL_Driver/Inc\stm32f1xx_ll_rcc.h ****   * @}
 186:C:/Users/nace/OneDrive/Desktop/STM32/Projects_nace/NUCLEO_LL_Project_LCD/STM32_NUCLEO_LL_Project_LCD_22_02_2025/Drivers/STM32F1xx_HAL_Driver/Inc\stm32f1xx_ll_rcc.h ****   */
 187:C:/Users/nace/OneDrive/Desktop/STM32/Projects_nace/NUCLEO_LL_Project_LCD/STM32_NUCLEO_LL_Project_LCD_22_02_2025/Drivers/STM32F1xx_HAL_Driver/Inc\stm32f1xx_ll_rcc.h **** 
 188:C:/Users/nace/OneDrive/Desktop/STM32/Projects_nace/NUCLEO_LL_Project_LCD/STM32_NUCLEO_LL_Project_LCD_22_02_2025/Drivers/STM32F1xx_HAL_Driver/Inc\stm32f1xx_ll_rcc.h **** #endif /* RCC_CFGR2_PREDIV2 */
 189:C:/Users/nace/OneDrive/Desktop/STM32/Projects_nace/NUCLEO_LL_Project_LCD/STM32_NUCLEO_LL_Project_LCD_22_02_2025/Drivers/STM32F1xx_HAL_Driver/Inc\stm32f1xx_ll_rcc.h **** 
 190:C:/Users/nace/OneDrive/Desktop/STM32/Projects_nace/NUCLEO_LL_Project_LCD/STM32_NUCLEO_LL_Project_LCD_22_02_2025/Drivers/STM32F1xx_HAL_Driver/Inc\stm32f1xx_ll_rcc.h **** /** @defgroup RCC_LL_EC_SYS_CLKSOURCE  System clock switch
 191:C:/Users/nace/OneDrive/Desktop/STM32/Projects_nace/NUCLEO_LL_Project_LCD/STM32_NUCLEO_LL_Project_LCD_22_02_2025/Drivers/STM32F1xx_HAL_Driver/Inc\stm32f1xx_ll_rcc.h ****   * @{
 192:C:/Users/nace/OneDrive/Desktop/STM32/Projects_nace/NUCLEO_LL_Project_LCD/STM32_NUCLEO_LL_Project_LCD_22_02_2025/Drivers/STM32F1xx_HAL_Driver/Inc\stm32f1xx_ll_rcc.h ****   */
 193:C:/Users/nace/OneDrive/Desktop/STM32/Projects_nace/NUCLEO_LL_Project_LCD/STM32_NUCLEO_LL_Project_LCD_22_02_2025/Drivers/STM32F1xx_HAL_Driver/Inc\stm32f1xx_ll_rcc.h **** #define LL_RCC_SYS_CLKSOURCE_HSI           RCC_CFGR_SW_HSI    /*!< HSI selection as system clock */
 194:C:/Users/nace/OneDrive/Desktop/STM32/Projects_nace/NUCLEO_LL_Project_LCD/STM32_NUCLEO_LL_Project_LCD_22_02_2025/Drivers/STM32F1xx_HAL_Driver/Inc\stm32f1xx_ll_rcc.h **** #define LL_RCC_SYS_CLKSOURCE_HSE           RCC_CFGR_SW_HSE    /*!< HSE selection as system clock */
 195:C:/Users/nace/OneDrive/Desktop/STM32/Projects_nace/NUCLEO_LL_Project_LCD/STM32_NUCLEO_LL_Project_LCD_22_02_2025/Drivers/STM32F1xx_HAL_Driver/Inc\stm32f1xx_ll_rcc.h **** #define LL_RCC_SYS_CLKSOURCE_PLL           RCC_CFGR_SW_PLL    /*!< PLL selection as system clock */
 196:C:/Users/nace/OneDrive/Desktop/STM32/Projects_nace/NUCLEO_LL_Project_LCD/STM32_NUCLEO_LL_Project_LCD_22_02_2025/Drivers/STM32F1xx_HAL_Driver/Inc\stm32f1xx_ll_rcc.h **** /**
 197:C:/Users/nace/OneDrive/Desktop/STM32/Projects_nace/NUCLEO_LL_Project_LCD/STM32_NUCLEO_LL_Project_LCD_22_02_2025/Drivers/STM32F1xx_HAL_Driver/Inc\stm32f1xx_ll_rcc.h ****   * @}
 198:C:/Users/nace/OneDrive/Desktop/STM32/Projects_nace/NUCLEO_LL_Project_LCD/STM32_NUCLEO_LL_Project_LCD_22_02_2025/Drivers/STM32F1xx_HAL_Driver/Inc\stm32f1xx_ll_rcc.h ****   */
 199:C:/Users/nace/OneDrive/Desktop/STM32/Projects_nace/NUCLEO_LL_Project_LCD/STM32_NUCLEO_LL_Project_LCD_22_02_2025/Drivers/STM32F1xx_HAL_Driver/Inc\stm32f1xx_ll_rcc.h **** 
 200:C:/Users/nace/OneDrive/Desktop/STM32/Projects_nace/NUCLEO_LL_Project_LCD/STM32_NUCLEO_LL_Project_LCD_22_02_2025/Drivers/STM32F1xx_HAL_Driver/Inc\stm32f1xx_ll_rcc.h **** /** @defgroup RCC_LL_EC_SYS_CLKSOURCE_STATUS  System clock switch status
 201:C:/Users/nace/OneDrive/Desktop/STM32/Projects_nace/NUCLEO_LL_Project_LCD/STM32_NUCLEO_LL_Project_LCD_22_02_2025/Drivers/STM32F1xx_HAL_Driver/Inc\stm32f1xx_ll_rcc.h ****   * @{
 202:C:/Users/nace/OneDrive/Desktop/STM32/Projects_nace/NUCLEO_LL_Project_LCD/STM32_NUCLEO_LL_Project_LCD_22_02_2025/Drivers/STM32F1xx_HAL_Driver/Inc\stm32f1xx_ll_rcc.h ****   */
 203:C:/Users/nace/OneDrive/Desktop/STM32/Projects_nace/NUCLEO_LL_Project_LCD/STM32_NUCLEO_LL_Project_LCD_22_02_2025/Drivers/STM32F1xx_HAL_Driver/Inc\stm32f1xx_ll_rcc.h **** #define LL_RCC_SYS_CLKSOURCE_STATUS_HSI    RCC_CFGR_SWS_HSI   /*!< HSI used as system clock */
 204:C:/Users/nace/OneDrive/Desktop/STM32/Projects_nace/NUCLEO_LL_Project_LCD/STM32_NUCLEO_LL_Project_LCD_22_02_2025/Drivers/STM32F1xx_HAL_Driver/Inc\stm32f1xx_ll_rcc.h **** #define LL_RCC_SYS_CLKSOURCE_STATUS_HSE    RCC_CFGR_SWS_HSE   /*!< HSE used as system clock */
 205:C:/Users/nace/OneDrive/Desktop/STM32/Projects_nace/NUCLEO_LL_Project_LCD/STM32_NUCLEO_LL_Project_LCD_22_02_2025/Drivers/STM32F1xx_HAL_Driver/Inc\stm32f1xx_ll_rcc.h **** #define LL_RCC_SYS_CLKSOURCE_STATUS_PLL    RCC_CFGR_SWS_PLL   /*!< PLL used as system clock */
 206:C:/Users/nace/OneDrive/Desktop/STM32/Projects_nace/NUCLEO_LL_Project_LCD/STM32_NUCLEO_LL_Project_LCD_22_02_2025/Drivers/STM32F1xx_HAL_Driver/Inc\stm32f1xx_ll_rcc.h **** /**
 207:C:/Users/nace/OneDrive/Desktop/STM32/Projects_nace/NUCLEO_LL_Project_LCD/STM32_NUCLEO_LL_Project_LCD_22_02_2025/Drivers/STM32F1xx_HAL_Driver/Inc\stm32f1xx_ll_rcc.h ****   * @}
 208:C:/Users/nace/OneDrive/Desktop/STM32/Projects_nace/NUCLEO_LL_Project_LCD/STM32_NUCLEO_LL_Project_LCD_22_02_2025/Drivers/STM32F1xx_HAL_Driver/Inc\stm32f1xx_ll_rcc.h ****   */
 209:C:/Users/nace/OneDrive/Desktop/STM32/Projects_nace/NUCLEO_LL_Project_LCD/STM32_NUCLEO_LL_Project_LCD_22_02_2025/Drivers/STM32F1xx_HAL_Driver/Inc\stm32f1xx_ll_rcc.h **** 
 210:C:/Users/nace/OneDrive/Desktop/STM32/Projects_nace/NUCLEO_LL_Project_LCD/STM32_NUCLEO_LL_Project_LCD_22_02_2025/Drivers/STM32F1xx_HAL_Driver/Inc\stm32f1xx_ll_rcc.h **** /** @defgroup RCC_LL_EC_SYSCLK_DIV  AHB prescaler
 211:C:/Users/nace/OneDrive/Desktop/STM32/Projects_nace/NUCLEO_LL_Project_LCD/STM32_NUCLEO_LL_Project_LCD_22_02_2025/Drivers/STM32F1xx_HAL_Driver/Inc\stm32f1xx_ll_rcc.h ****   * @{
 212:C:/Users/nace/OneDrive/Desktop/STM32/Projects_nace/NUCLEO_LL_Project_LCD/STM32_NUCLEO_LL_Project_LCD_22_02_2025/Drivers/STM32F1xx_HAL_Driver/Inc\stm32f1xx_ll_rcc.h ****   */
 213:C:/Users/nace/OneDrive/Desktop/STM32/Projects_nace/NUCLEO_LL_Project_LCD/STM32_NUCLEO_LL_Project_LCD_22_02_2025/Drivers/STM32F1xx_HAL_Driver/Inc\stm32f1xx_ll_rcc.h **** #define LL_RCC_SYSCLK_DIV_1                RCC_CFGR_HPRE_DIV1   /*!< SYSCLK not divided */
 214:C:/Users/nace/OneDrive/Desktop/STM32/Projects_nace/NUCLEO_LL_Project_LCD/STM32_NUCLEO_LL_Project_LCD_22_02_2025/Drivers/STM32F1xx_HAL_Driver/Inc\stm32f1xx_ll_rcc.h **** #define LL_RCC_SYSCLK_DIV_2                RCC_CFGR_HPRE_DIV2   /*!< SYSCLK divided by 2 */
 215:C:/Users/nace/OneDrive/Desktop/STM32/Projects_nace/NUCLEO_LL_Project_LCD/STM32_NUCLEO_LL_Project_LCD_22_02_2025/Drivers/STM32F1xx_HAL_Driver/Inc\stm32f1xx_ll_rcc.h **** #define LL_RCC_SYSCLK_DIV_4                RCC_CFGR_HPRE_DIV4   /*!< SYSCLK divided by 4 */
 216:C:/Users/nace/OneDrive/Desktop/STM32/Projects_nace/NUCLEO_LL_Project_LCD/STM32_NUCLEO_LL_Project_LCD_22_02_2025/Drivers/STM32F1xx_HAL_Driver/Inc\stm32f1xx_ll_rcc.h **** #define LL_RCC_SYSCLK_DIV_8                RCC_CFGR_HPRE_DIV8   /*!< SYSCLK divided by 8 */
 217:C:/Users/nace/OneDrive/Desktop/STM32/Projects_nace/NUCLEO_LL_Project_LCD/STM32_NUCLEO_LL_Project_LCD_22_02_2025/Drivers/STM32F1xx_HAL_Driver/Inc\stm32f1xx_ll_rcc.h **** #define LL_RCC_SYSCLK_DIV_16               RCC_CFGR_HPRE_DIV16  /*!< SYSCLK divided by 16 */
 218:C:/Users/nace/OneDrive/Desktop/STM32/Projects_nace/NUCLEO_LL_Project_LCD/STM32_NUCLEO_LL_Project_LCD_22_02_2025/Drivers/STM32F1xx_HAL_Driver/Inc\stm32f1xx_ll_rcc.h **** #define LL_RCC_SYSCLK_DIV_64               RCC_CFGR_HPRE_DIV64  /*!< SYSCLK divided by 64 */
 219:C:/Users/nace/OneDrive/Desktop/STM32/Projects_nace/NUCLEO_LL_Project_LCD/STM32_NUCLEO_LL_Project_LCD_22_02_2025/Drivers/STM32F1xx_HAL_Driver/Inc\stm32f1xx_ll_rcc.h **** #define LL_RCC_SYSCLK_DIV_128              RCC_CFGR_HPRE_DIV128 /*!< SYSCLK divided by 128 */
 220:C:/Users/nace/OneDrive/Desktop/STM32/Projects_nace/NUCLEO_LL_Project_LCD/STM32_NUCLEO_LL_Project_LCD_22_02_2025/Drivers/STM32F1xx_HAL_Driver/Inc\stm32f1xx_ll_rcc.h **** #define LL_RCC_SYSCLK_DIV_256              RCC_CFGR_HPRE_DIV256 /*!< SYSCLK divided by 256 */
 221:C:/Users/nace/OneDrive/Desktop/STM32/Projects_nace/NUCLEO_LL_Project_LCD/STM32_NUCLEO_LL_Project_LCD_22_02_2025/Drivers/STM32F1xx_HAL_Driver/Inc\stm32f1xx_ll_rcc.h **** #define LL_RCC_SYSCLK_DIV_512              RCC_CFGR_HPRE_DIV512 /*!< SYSCLK divided by 512 */
 222:C:/Users/nace/OneDrive/Desktop/STM32/Projects_nace/NUCLEO_LL_Project_LCD/STM32_NUCLEO_LL_Project_LCD_22_02_2025/Drivers/STM32F1xx_HAL_Driver/Inc\stm32f1xx_ll_rcc.h **** /**
 223:C:/Users/nace/OneDrive/Desktop/STM32/Projects_nace/NUCLEO_LL_Project_LCD/STM32_NUCLEO_LL_Project_LCD_22_02_2025/Drivers/STM32F1xx_HAL_Driver/Inc\stm32f1xx_ll_rcc.h ****   * @}
 224:C:/Users/nace/OneDrive/Desktop/STM32/Projects_nace/NUCLEO_LL_Project_LCD/STM32_NUCLEO_LL_Project_LCD_22_02_2025/Drivers/STM32F1xx_HAL_Driver/Inc\stm32f1xx_ll_rcc.h ****   */
 225:C:/Users/nace/OneDrive/Desktop/STM32/Projects_nace/NUCLEO_LL_Project_LCD/STM32_NUCLEO_LL_Project_LCD_22_02_2025/Drivers/STM32F1xx_HAL_Driver/Inc\stm32f1xx_ll_rcc.h **** 
 226:C:/Users/nace/OneDrive/Desktop/STM32/Projects_nace/NUCLEO_LL_Project_LCD/STM32_NUCLEO_LL_Project_LCD_22_02_2025/Drivers/STM32F1xx_HAL_Driver/Inc\stm32f1xx_ll_rcc.h **** /** @defgroup RCC_LL_EC_APB1_DIV  APB low-speed prescaler (APB1)
 227:C:/Users/nace/OneDrive/Desktop/STM32/Projects_nace/NUCLEO_LL_Project_LCD/STM32_NUCLEO_LL_Project_LCD_22_02_2025/Drivers/STM32F1xx_HAL_Driver/Inc\stm32f1xx_ll_rcc.h ****   * @{
 228:C:/Users/nace/OneDrive/Desktop/STM32/Projects_nace/NUCLEO_LL_Project_LCD/STM32_NUCLEO_LL_Project_LCD_22_02_2025/Drivers/STM32F1xx_HAL_Driver/Inc\stm32f1xx_ll_rcc.h ****   */
 229:C:/Users/nace/OneDrive/Desktop/STM32/Projects_nace/NUCLEO_LL_Project_LCD/STM32_NUCLEO_LL_Project_LCD_22_02_2025/Drivers/STM32F1xx_HAL_Driver/Inc\stm32f1xx_ll_rcc.h **** #define LL_RCC_APB1_DIV_1                  RCC_CFGR_PPRE1_DIV1  /*!< HCLK not divided */
 230:C:/Users/nace/OneDrive/Desktop/STM32/Projects_nace/NUCLEO_LL_Project_LCD/STM32_NUCLEO_LL_Project_LCD_22_02_2025/Drivers/STM32F1xx_HAL_Driver/Inc\stm32f1xx_ll_rcc.h **** #define LL_RCC_APB1_DIV_2                  RCC_CFGR_PPRE1_DIV2  /*!< HCLK divided by 2 */
 231:C:/Users/nace/OneDrive/Desktop/STM32/Projects_nace/NUCLEO_LL_Project_LCD/STM32_NUCLEO_LL_Project_LCD_22_02_2025/Drivers/STM32F1xx_HAL_Driver/Inc\stm32f1xx_ll_rcc.h **** #define LL_RCC_APB1_DIV_4                  RCC_CFGR_PPRE1_DIV4  /*!< HCLK divided by 4 */
 232:C:/Users/nace/OneDrive/Desktop/STM32/Projects_nace/NUCLEO_LL_Project_LCD/STM32_NUCLEO_LL_Project_LCD_22_02_2025/Drivers/STM32F1xx_HAL_Driver/Inc\stm32f1xx_ll_rcc.h **** #define LL_RCC_APB1_DIV_8                  RCC_CFGR_PPRE1_DIV8  /*!< HCLK divided by 8 */
 233:C:/Users/nace/OneDrive/Desktop/STM32/Projects_nace/NUCLEO_LL_Project_LCD/STM32_NUCLEO_LL_Project_LCD_22_02_2025/Drivers/STM32F1xx_HAL_Driver/Inc\stm32f1xx_ll_rcc.h **** #define LL_RCC_APB1_DIV_16                 RCC_CFGR_PPRE1_DIV16 /*!< HCLK divided by 16 */
 234:C:/Users/nace/OneDrive/Desktop/STM32/Projects_nace/NUCLEO_LL_Project_LCD/STM32_NUCLEO_LL_Project_LCD_22_02_2025/Drivers/STM32F1xx_HAL_Driver/Inc\stm32f1xx_ll_rcc.h **** /**
 235:C:/Users/nace/OneDrive/Desktop/STM32/Projects_nace/NUCLEO_LL_Project_LCD/STM32_NUCLEO_LL_Project_LCD_22_02_2025/Drivers/STM32F1xx_HAL_Driver/Inc\stm32f1xx_ll_rcc.h ****   * @}
 236:C:/Users/nace/OneDrive/Desktop/STM32/Projects_nace/NUCLEO_LL_Project_LCD/STM32_NUCLEO_LL_Project_LCD_22_02_2025/Drivers/STM32F1xx_HAL_Driver/Inc\stm32f1xx_ll_rcc.h ****   */
 237:C:/Users/nace/OneDrive/Desktop/STM32/Projects_nace/NUCLEO_LL_Project_LCD/STM32_NUCLEO_LL_Project_LCD_22_02_2025/Drivers/STM32F1xx_HAL_Driver/Inc\stm32f1xx_ll_rcc.h **** 
 238:C:/Users/nace/OneDrive/Desktop/STM32/Projects_nace/NUCLEO_LL_Project_LCD/STM32_NUCLEO_LL_Project_LCD_22_02_2025/Drivers/STM32F1xx_HAL_Driver/Inc\stm32f1xx_ll_rcc.h **** /** @defgroup RCC_LL_EC_APB2_DIV  APB high-speed prescaler (APB2)
 239:C:/Users/nace/OneDrive/Desktop/STM32/Projects_nace/NUCLEO_LL_Project_LCD/STM32_NUCLEO_LL_Project_LCD_22_02_2025/Drivers/STM32F1xx_HAL_Driver/Inc\stm32f1xx_ll_rcc.h ****   * @{
 240:C:/Users/nace/OneDrive/Desktop/STM32/Projects_nace/NUCLEO_LL_Project_LCD/STM32_NUCLEO_LL_Project_LCD_22_02_2025/Drivers/STM32F1xx_HAL_Driver/Inc\stm32f1xx_ll_rcc.h ****   */
 241:C:/Users/nace/OneDrive/Desktop/STM32/Projects_nace/NUCLEO_LL_Project_LCD/STM32_NUCLEO_LL_Project_LCD_22_02_2025/Drivers/STM32F1xx_HAL_Driver/Inc\stm32f1xx_ll_rcc.h **** #define LL_RCC_APB2_DIV_1                  RCC_CFGR_PPRE2_DIV1  /*!< HCLK not divided */
 242:C:/Users/nace/OneDrive/Desktop/STM32/Projects_nace/NUCLEO_LL_Project_LCD/STM32_NUCLEO_LL_Project_LCD_22_02_2025/Drivers/STM32F1xx_HAL_Driver/Inc\stm32f1xx_ll_rcc.h **** #define LL_RCC_APB2_DIV_2                  RCC_CFGR_PPRE2_DIV2  /*!< HCLK divided by 2 */
 243:C:/Users/nace/OneDrive/Desktop/STM32/Projects_nace/NUCLEO_LL_Project_LCD/STM32_NUCLEO_LL_Project_LCD_22_02_2025/Drivers/STM32F1xx_HAL_Driver/Inc\stm32f1xx_ll_rcc.h **** #define LL_RCC_APB2_DIV_4                  RCC_CFGR_PPRE2_DIV4  /*!< HCLK divided by 4 */
 244:C:/Users/nace/OneDrive/Desktop/STM32/Projects_nace/NUCLEO_LL_Project_LCD/STM32_NUCLEO_LL_Project_LCD_22_02_2025/Drivers/STM32F1xx_HAL_Driver/Inc\stm32f1xx_ll_rcc.h **** #define LL_RCC_APB2_DIV_8                  RCC_CFGR_PPRE2_DIV8  /*!< HCLK divided by 8 */
 245:C:/Users/nace/OneDrive/Desktop/STM32/Projects_nace/NUCLEO_LL_Project_LCD/STM32_NUCLEO_LL_Project_LCD_22_02_2025/Drivers/STM32F1xx_HAL_Driver/Inc\stm32f1xx_ll_rcc.h **** #define LL_RCC_APB2_DIV_16                 RCC_CFGR_PPRE2_DIV16 /*!< HCLK divided by 16 */
 246:C:/Users/nace/OneDrive/Desktop/STM32/Projects_nace/NUCLEO_LL_Project_LCD/STM32_NUCLEO_LL_Project_LCD_22_02_2025/Drivers/STM32F1xx_HAL_Driver/Inc\stm32f1xx_ll_rcc.h **** /**
 247:C:/Users/nace/OneDrive/Desktop/STM32/Projects_nace/NUCLEO_LL_Project_LCD/STM32_NUCLEO_LL_Project_LCD_22_02_2025/Drivers/STM32F1xx_HAL_Driver/Inc\stm32f1xx_ll_rcc.h ****   * @}
 248:C:/Users/nace/OneDrive/Desktop/STM32/Projects_nace/NUCLEO_LL_Project_LCD/STM32_NUCLEO_LL_Project_LCD_22_02_2025/Drivers/STM32F1xx_HAL_Driver/Inc\stm32f1xx_ll_rcc.h ****   */
 249:C:/Users/nace/OneDrive/Desktop/STM32/Projects_nace/NUCLEO_LL_Project_LCD/STM32_NUCLEO_LL_Project_LCD_22_02_2025/Drivers/STM32F1xx_HAL_Driver/Inc\stm32f1xx_ll_rcc.h **** 
 250:C:/Users/nace/OneDrive/Desktop/STM32/Projects_nace/NUCLEO_LL_Project_LCD/STM32_NUCLEO_LL_Project_LCD_22_02_2025/Drivers/STM32F1xx_HAL_Driver/Inc\stm32f1xx_ll_rcc.h **** /** @defgroup RCC_LL_EC_MCO1SOURCE  MCO1 SOURCE selection
 251:C:/Users/nace/OneDrive/Desktop/STM32/Projects_nace/NUCLEO_LL_Project_LCD/STM32_NUCLEO_LL_Project_LCD_22_02_2025/Drivers/STM32F1xx_HAL_Driver/Inc\stm32f1xx_ll_rcc.h ****   * @{
 252:C:/Users/nace/OneDrive/Desktop/STM32/Projects_nace/NUCLEO_LL_Project_LCD/STM32_NUCLEO_LL_Project_LCD_22_02_2025/Drivers/STM32F1xx_HAL_Driver/Inc\stm32f1xx_ll_rcc.h ****   */
 253:C:/Users/nace/OneDrive/Desktop/STM32/Projects_nace/NUCLEO_LL_Project_LCD/STM32_NUCLEO_LL_Project_LCD_22_02_2025/Drivers/STM32F1xx_HAL_Driver/Inc\stm32f1xx_ll_rcc.h **** #define LL_RCC_MCO1SOURCE_NOCLOCK          RCC_CFGR_MCO_NOCLOCK      /*!< MCO output disabled, no c
 254:C:/Users/nace/OneDrive/Desktop/STM32/Projects_nace/NUCLEO_LL_Project_LCD/STM32_NUCLEO_LL_Project_LCD_22_02_2025/Drivers/STM32F1xx_HAL_Driver/Inc\stm32f1xx_ll_rcc.h **** #define LL_RCC_MCO1SOURCE_SYSCLK           RCC_CFGR_MCO_SYSCLK       /*!< SYSCLK selection as MCO s
 255:C:/Users/nace/OneDrive/Desktop/STM32/Projects_nace/NUCLEO_LL_Project_LCD/STM32_NUCLEO_LL_Project_LCD_22_02_2025/Drivers/STM32F1xx_HAL_Driver/Inc\stm32f1xx_ll_rcc.h **** #define LL_RCC_MCO1SOURCE_HSI              RCC_CFGR_MCO_HSI          /*!< HSI selection as MCO sour
 256:C:/Users/nace/OneDrive/Desktop/STM32/Projects_nace/NUCLEO_LL_Project_LCD/STM32_NUCLEO_LL_Project_LCD_22_02_2025/Drivers/STM32F1xx_HAL_Driver/Inc\stm32f1xx_ll_rcc.h **** #define LL_RCC_MCO1SOURCE_HSE              RCC_CFGR_MCO_HSE          /*!< HSE selection as MCO sour
 257:C:/Users/nace/OneDrive/Desktop/STM32/Projects_nace/NUCLEO_LL_Project_LCD/STM32_NUCLEO_LL_Project_LCD_22_02_2025/Drivers/STM32F1xx_HAL_Driver/Inc\stm32f1xx_ll_rcc.h **** #define LL_RCC_MCO1SOURCE_PLLCLK_DIV_2     RCC_CFGR_MCO_PLLCLK_DIV2  /*!< PLL clock divided by 2*/
 258:C:/Users/nace/OneDrive/Desktop/STM32/Projects_nace/NUCLEO_LL_Project_LCD/STM32_NUCLEO_LL_Project_LCD_22_02_2025/Drivers/STM32F1xx_HAL_Driver/Inc\stm32f1xx_ll_rcc.h **** #if defined(RCC_CFGR_MCO_PLL2CLK)
 259:C:/Users/nace/OneDrive/Desktop/STM32/Projects_nace/NUCLEO_LL_Project_LCD/STM32_NUCLEO_LL_Project_LCD_22_02_2025/Drivers/STM32F1xx_HAL_Driver/Inc\stm32f1xx_ll_rcc.h **** #define LL_RCC_MCO1SOURCE_PLL2CLK          RCC_CFGR_MCO_PLL2CLK      /*!< PLL2 clock selected as MC
 260:C:/Users/nace/OneDrive/Desktop/STM32/Projects_nace/NUCLEO_LL_Project_LCD/STM32_NUCLEO_LL_Project_LCD_22_02_2025/Drivers/STM32F1xx_HAL_Driver/Inc\stm32f1xx_ll_rcc.h **** #endif /* RCC_CFGR_MCO_PLL2CLK */
 261:C:/Users/nace/OneDrive/Desktop/STM32/Projects_nace/NUCLEO_LL_Project_LCD/STM32_NUCLEO_LL_Project_LCD_22_02_2025/Drivers/STM32F1xx_HAL_Driver/Inc\stm32f1xx_ll_rcc.h **** #if defined(RCC_CFGR_MCO_PLL3CLK_DIV2)
 262:C:/Users/nace/OneDrive/Desktop/STM32/Projects_nace/NUCLEO_LL_Project_LCD/STM32_NUCLEO_LL_Project_LCD_22_02_2025/Drivers/STM32F1xx_HAL_Driver/Inc\stm32f1xx_ll_rcc.h **** #define LL_RCC_MCO1SOURCE_PLLI2SCLK_DIV2   RCC_CFGR_MCO_PLL3CLK_DIV2 /*!< PLLI2S clock divided by 2
 263:C:/Users/nace/OneDrive/Desktop/STM32/Projects_nace/NUCLEO_LL_Project_LCD/STM32_NUCLEO_LL_Project_LCD_22_02_2025/Drivers/STM32F1xx_HAL_Driver/Inc\stm32f1xx_ll_rcc.h **** #endif /* RCC_CFGR_MCO_PLL3CLK_DIV2 */
 264:C:/Users/nace/OneDrive/Desktop/STM32/Projects_nace/NUCLEO_LL_Project_LCD/STM32_NUCLEO_LL_Project_LCD_22_02_2025/Drivers/STM32F1xx_HAL_Driver/Inc\stm32f1xx_ll_rcc.h **** #if defined(RCC_CFGR_MCO_EXT_HSE)
 265:C:/Users/nace/OneDrive/Desktop/STM32/Projects_nace/NUCLEO_LL_Project_LCD/STM32_NUCLEO_LL_Project_LCD_22_02_2025/Drivers/STM32F1xx_HAL_Driver/Inc\stm32f1xx_ll_rcc.h **** #define LL_RCC_MCO1SOURCE_EXT_HSE          RCC_CFGR_MCO_EXT_HSE      /*!< XT1 external 3-25 MHz osc
 266:C:/Users/nace/OneDrive/Desktop/STM32/Projects_nace/NUCLEO_LL_Project_LCD/STM32_NUCLEO_LL_Project_LCD_22_02_2025/Drivers/STM32F1xx_HAL_Driver/Inc\stm32f1xx_ll_rcc.h **** #endif /* RCC_CFGR_MCO_EXT_HSE */
 267:C:/Users/nace/OneDrive/Desktop/STM32/Projects_nace/NUCLEO_LL_Project_LCD/STM32_NUCLEO_LL_Project_LCD_22_02_2025/Drivers/STM32F1xx_HAL_Driver/Inc\stm32f1xx_ll_rcc.h **** #if defined(RCC_CFGR_MCO_PLL3CLK)
 268:C:/Users/nace/OneDrive/Desktop/STM32/Projects_nace/NUCLEO_LL_Project_LCD/STM32_NUCLEO_LL_Project_LCD_22_02_2025/Drivers/STM32F1xx_HAL_Driver/Inc\stm32f1xx_ll_rcc.h **** #define LL_RCC_MCO1SOURCE_PLLI2SCLK        RCC_CFGR_MCO_PLL3CLK      /*!< PLLI2S clock selected as 
 269:C:/Users/nace/OneDrive/Desktop/STM32/Projects_nace/NUCLEO_LL_Project_LCD/STM32_NUCLEO_LL_Project_LCD_22_02_2025/Drivers/STM32F1xx_HAL_Driver/Inc\stm32f1xx_ll_rcc.h **** #endif /* RCC_CFGR_MCO_PLL3CLK */
 270:C:/Users/nace/OneDrive/Desktop/STM32/Projects_nace/NUCLEO_LL_Project_LCD/STM32_NUCLEO_LL_Project_LCD_22_02_2025/Drivers/STM32F1xx_HAL_Driver/Inc\stm32f1xx_ll_rcc.h **** /**
 271:C:/Users/nace/OneDrive/Desktop/STM32/Projects_nace/NUCLEO_LL_Project_LCD/STM32_NUCLEO_LL_Project_LCD_22_02_2025/Drivers/STM32F1xx_HAL_Driver/Inc\stm32f1xx_ll_rcc.h ****   * @}
 272:C:/Users/nace/OneDrive/Desktop/STM32/Projects_nace/NUCLEO_LL_Project_LCD/STM32_NUCLEO_LL_Project_LCD_22_02_2025/Drivers/STM32F1xx_HAL_Driver/Inc\stm32f1xx_ll_rcc.h ****   */
 273:C:/Users/nace/OneDrive/Desktop/STM32/Projects_nace/NUCLEO_LL_Project_LCD/STM32_NUCLEO_LL_Project_LCD_22_02_2025/Drivers/STM32F1xx_HAL_Driver/Inc\stm32f1xx_ll_rcc.h **** 
 274:C:/Users/nace/OneDrive/Desktop/STM32/Projects_nace/NUCLEO_LL_Project_LCD/STM32_NUCLEO_LL_Project_LCD_22_02_2025/Drivers/STM32F1xx_HAL_Driver/Inc\stm32f1xx_ll_rcc.h **** #if defined(USE_FULL_LL_DRIVER)
 275:C:/Users/nace/OneDrive/Desktop/STM32/Projects_nace/NUCLEO_LL_Project_LCD/STM32_NUCLEO_LL_Project_LCD_22_02_2025/Drivers/STM32F1xx_HAL_Driver/Inc\stm32f1xx_ll_rcc.h **** /** @defgroup RCC_LL_EC_PERIPH_FREQUENCY Peripheral clock frequency
 276:C:/Users/nace/OneDrive/Desktop/STM32/Projects_nace/NUCLEO_LL_Project_LCD/STM32_NUCLEO_LL_Project_LCD_22_02_2025/Drivers/STM32F1xx_HAL_Driver/Inc\stm32f1xx_ll_rcc.h ****   * @{
 277:C:/Users/nace/OneDrive/Desktop/STM32/Projects_nace/NUCLEO_LL_Project_LCD/STM32_NUCLEO_LL_Project_LCD_22_02_2025/Drivers/STM32F1xx_HAL_Driver/Inc\stm32f1xx_ll_rcc.h ****   */
 278:C:/Users/nace/OneDrive/Desktop/STM32/Projects_nace/NUCLEO_LL_Project_LCD/STM32_NUCLEO_LL_Project_LCD_22_02_2025/Drivers/STM32F1xx_HAL_Driver/Inc\stm32f1xx_ll_rcc.h **** #define LL_RCC_PERIPH_FREQUENCY_NO         0x00000000U      /*!< No clock enabled for the periphera
 279:C:/Users/nace/OneDrive/Desktop/STM32/Projects_nace/NUCLEO_LL_Project_LCD/STM32_NUCLEO_LL_Project_LCD_22_02_2025/Drivers/STM32F1xx_HAL_Driver/Inc\stm32f1xx_ll_rcc.h **** #define LL_RCC_PERIPH_FREQUENCY_NA         0xFFFFFFFFU      /*!< Frequency cannot be provided as ex
 280:C:/Users/nace/OneDrive/Desktop/STM32/Projects_nace/NUCLEO_LL_Project_LCD/STM32_NUCLEO_LL_Project_LCD_22_02_2025/Drivers/STM32F1xx_HAL_Driver/Inc\stm32f1xx_ll_rcc.h **** /**
 281:C:/Users/nace/OneDrive/Desktop/STM32/Projects_nace/NUCLEO_LL_Project_LCD/STM32_NUCLEO_LL_Project_LCD_22_02_2025/Drivers/STM32F1xx_HAL_Driver/Inc\stm32f1xx_ll_rcc.h ****   * @}
 282:C:/Users/nace/OneDrive/Desktop/STM32/Projects_nace/NUCLEO_LL_Project_LCD/STM32_NUCLEO_LL_Project_LCD_22_02_2025/Drivers/STM32F1xx_HAL_Driver/Inc\stm32f1xx_ll_rcc.h ****   */
 283:C:/Users/nace/OneDrive/Desktop/STM32/Projects_nace/NUCLEO_LL_Project_LCD/STM32_NUCLEO_LL_Project_LCD_22_02_2025/Drivers/STM32F1xx_HAL_Driver/Inc\stm32f1xx_ll_rcc.h **** #endif /* USE_FULL_LL_DRIVER */
 284:C:/Users/nace/OneDrive/Desktop/STM32/Projects_nace/NUCLEO_LL_Project_LCD/STM32_NUCLEO_LL_Project_LCD_22_02_2025/Drivers/STM32F1xx_HAL_Driver/Inc\stm32f1xx_ll_rcc.h **** 
 285:C:/Users/nace/OneDrive/Desktop/STM32/Projects_nace/NUCLEO_LL_Project_LCD/STM32_NUCLEO_LL_Project_LCD_22_02_2025/Drivers/STM32F1xx_HAL_Driver/Inc\stm32f1xx_ll_rcc.h **** #if defined(RCC_CFGR2_I2S2SRC)
 286:C:/Users/nace/OneDrive/Desktop/STM32/Projects_nace/NUCLEO_LL_Project_LCD/STM32_NUCLEO_LL_Project_LCD_22_02_2025/Drivers/STM32F1xx_HAL_Driver/Inc\stm32f1xx_ll_rcc.h **** /** @defgroup RCC_LL_EC_I2S2CLKSOURCE Peripheral I2S clock source selection
 287:C:/Users/nace/OneDrive/Desktop/STM32/Projects_nace/NUCLEO_LL_Project_LCD/STM32_NUCLEO_LL_Project_LCD_22_02_2025/Drivers/STM32F1xx_HAL_Driver/Inc\stm32f1xx_ll_rcc.h ****   * @{
 288:C:/Users/nace/OneDrive/Desktop/STM32/Projects_nace/NUCLEO_LL_Project_LCD/STM32_NUCLEO_LL_Project_LCD_22_02_2025/Drivers/STM32F1xx_HAL_Driver/Inc\stm32f1xx_ll_rcc.h ****   */
 289:C:/Users/nace/OneDrive/Desktop/STM32/Projects_nace/NUCLEO_LL_Project_LCD/STM32_NUCLEO_LL_Project_LCD_22_02_2025/Drivers/STM32F1xx_HAL_Driver/Inc\stm32f1xx_ll_rcc.h **** #define LL_RCC_I2S2_CLKSOURCE_SYSCLK        RCC_CFGR2_I2S2SRC                                      
 290:C:/Users/nace/OneDrive/Desktop/STM32/Projects_nace/NUCLEO_LL_Project_LCD/STM32_NUCLEO_LL_Project_LCD_22_02_2025/Drivers/STM32F1xx_HAL_Driver/Inc\stm32f1xx_ll_rcc.h **** #define LL_RCC_I2S2_CLKSOURCE_PLLI2S_VCO    (uint32_t)(RCC_CFGR2_I2S2SRC | (RCC_CFGR2_I2S2SRC >> 16
 291:C:/Users/nace/OneDrive/Desktop/STM32/Projects_nace/NUCLEO_LL_Project_LCD/STM32_NUCLEO_LL_Project_LCD_22_02_2025/Drivers/STM32F1xx_HAL_Driver/Inc\stm32f1xx_ll_rcc.h **** #define LL_RCC_I2S3_CLKSOURCE_SYSCLK        RCC_CFGR2_I2S3SRC                                      
 292:C:/Users/nace/OneDrive/Desktop/STM32/Projects_nace/NUCLEO_LL_Project_LCD/STM32_NUCLEO_LL_Project_LCD_22_02_2025/Drivers/STM32F1xx_HAL_Driver/Inc\stm32f1xx_ll_rcc.h **** #define LL_RCC_I2S3_CLKSOURCE_PLLI2S_VCO    (uint32_t)(RCC_CFGR2_I2S3SRC | (RCC_CFGR2_I2S3SRC >> 16
 293:C:/Users/nace/OneDrive/Desktop/STM32/Projects_nace/NUCLEO_LL_Project_LCD/STM32_NUCLEO_LL_Project_LCD_22_02_2025/Drivers/STM32F1xx_HAL_Driver/Inc\stm32f1xx_ll_rcc.h **** /**
 294:C:/Users/nace/OneDrive/Desktop/STM32/Projects_nace/NUCLEO_LL_Project_LCD/STM32_NUCLEO_LL_Project_LCD_22_02_2025/Drivers/STM32F1xx_HAL_Driver/Inc\stm32f1xx_ll_rcc.h ****   * @}
 295:C:/Users/nace/OneDrive/Desktop/STM32/Projects_nace/NUCLEO_LL_Project_LCD/STM32_NUCLEO_LL_Project_LCD_22_02_2025/Drivers/STM32F1xx_HAL_Driver/Inc\stm32f1xx_ll_rcc.h ****   */
 296:C:/Users/nace/OneDrive/Desktop/STM32/Projects_nace/NUCLEO_LL_Project_LCD/STM32_NUCLEO_LL_Project_LCD_22_02_2025/Drivers/STM32F1xx_HAL_Driver/Inc\stm32f1xx_ll_rcc.h **** #endif /* RCC_CFGR2_I2S2SRC */
 297:C:/Users/nace/OneDrive/Desktop/STM32/Projects_nace/NUCLEO_LL_Project_LCD/STM32_NUCLEO_LL_Project_LCD_22_02_2025/Drivers/STM32F1xx_HAL_Driver/Inc\stm32f1xx_ll_rcc.h **** 
 298:C:/Users/nace/OneDrive/Desktop/STM32/Projects_nace/NUCLEO_LL_Project_LCD/STM32_NUCLEO_LL_Project_LCD_22_02_2025/Drivers/STM32F1xx_HAL_Driver/Inc\stm32f1xx_ll_rcc.h **** #if defined(USB_OTG_FS) || defined(USB)
 299:C:/Users/nace/OneDrive/Desktop/STM32/Projects_nace/NUCLEO_LL_Project_LCD/STM32_NUCLEO_LL_Project_LCD_22_02_2025/Drivers/STM32F1xx_HAL_Driver/Inc\stm32f1xx_ll_rcc.h **** /** @defgroup RCC_LL_EC_USB_CLKSOURCE Peripheral USB clock source selection
 300:C:/Users/nace/OneDrive/Desktop/STM32/Projects_nace/NUCLEO_LL_Project_LCD/STM32_NUCLEO_LL_Project_LCD_22_02_2025/Drivers/STM32F1xx_HAL_Driver/Inc\stm32f1xx_ll_rcc.h ****   * @{
 301:C:/Users/nace/OneDrive/Desktop/STM32/Projects_nace/NUCLEO_LL_Project_LCD/STM32_NUCLEO_LL_Project_LCD_22_02_2025/Drivers/STM32F1xx_HAL_Driver/Inc\stm32f1xx_ll_rcc.h ****   */
 302:C:/Users/nace/OneDrive/Desktop/STM32/Projects_nace/NUCLEO_LL_Project_LCD/STM32_NUCLEO_LL_Project_LCD_22_02_2025/Drivers/STM32F1xx_HAL_Driver/Inc\stm32f1xx_ll_rcc.h **** #if defined(RCC_CFGR_USBPRE)
 303:C:/Users/nace/OneDrive/Desktop/STM32/Projects_nace/NUCLEO_LL_Project_LCD/STM32_NUCLEO_LL_Project_LCD_22_02_2025/Drivers/STM32F1xx_HAL_Driver/Inc\stm32f1xx_ll_rcc.h **** #define LL_RCC_USB_CLKSOURCE_PLL             RCC_CFGR_USBPRE        /*!< PLL clock is not divided *
 304:C:/Users/nace/OneDrive/Desktop/STM32/Projects_nace/NUCLEO_LL_Project_LCD/STM32_NUCLEO_LL_Project_LCD_22_02_2025/Drivers/STM32F1xx_HAL_Driver/Inc\stm32f1xx_ll_rcc.h **** #define LL_RCC_USB_CLKSOURCE_PLL_DIV_1_5     0x00000000U            /*!< PLL clock is divided by 1.
 305:C:/Users/nace/OneDrive/Desktop/STM32/Projects_nace/NUCLEO_LL_Project_LCD/STM32_NUCLEO_LL_Project_LCD_22_02_2025/Drivers/STM32F1xx_HAL_Driver/Inc\stm32f1xx_ll_rcc.h **** #endif /*RCC_CFGR_USBPRE*/
 306:C:/Users/nace/OneDrive/Desktop/STM32/Projects_nace/NUCLEO_LL_Project_LCD/STM32_NUCLEO_LL_Project_LCD_22_02_2025/Drivers/STM32F1xx_HAL_Driver/Inc\stm32f1xx_ll_rcc.h **** #if defined(RCC_CFGR_OTGFSPRE)
 307:C:/Users/nace/OneDrive/Desktop/STM32/Projects_nace/NUCLEO_LL_Project_LCD/STM32_NUCLEO_LL_Project_LCD_22_02_2025/Drivers/STM32F1xx_HAL_Driver/Inc\stm32f1xx_ll_rcc.h **** #define LL_RCC_USB_CLKSOURCE_PLL_DIV_2       RCC_CFGR_OTGFSPRE      /*!< PLL clock is divided by 2 
 308:C:/Users/nace/OneDrive/Desktop/STM32/Projects_nace/NUCLEO_LL_Project_LCD/STM32_NUCLEO_LL_Project_LCD_22_02_2025/Drivers/STM32F1xx_HAL_Driver/Inc\stm32f1xx_ll_rcc.h **** #define LL_RCC_USB_CLKSOURCE_PLL_DIV_3       0x00000000U            /*!< PLL clock is divided by 3 
 309:C:/Users/nace/OneDrive/Desktop/STM32/Projects_nace/NUCLEO_LL_Project_LCD/STM32_NUCLEO_LL_Project_LCD_22_02_2025/Drivers/STM32F1xx_HAL_Driver/Inc\stm32f1xx_ll_rcc.h **** #endif /*RCC_CFGR_OTGFSPRE*/
 310:C:/Users/nace/OneDrive/Desktop/STM32/Projects_nace/NUCLEO_LL_Project_LCD/STM32_NUCLEO_LL_Project_LCD_22_02_2025/Drivers/STM32F1xx_HAL_Driver/Inc\stm32f1xx_ll_rcc.h **** /**
 311:C:/Users/nace/OneDrive/Desktop/STM32/Projects_nace/NUCLEO_LL_Project_LCD/STM32_NUCLEO_LL_Project_LCD_22_02_2025/Drivers/STM32F1xx_HAL_Driver/Inc\stm32f1xx_ll_rcc.h ****   * @}
 312:C:/Users/nace/OneDrive/Desktop/STM32/Projects_nace/NUCLEO_LL_Project_LCD/STM32_NUCLEO_LL_Project_LCD_22_02_2025/Drivers/STM32F1xx_HAL_Driver/Inc\stm32f1xx_ll_rcc.h ****   */
 313:C:/Users/nace/OneDrive/Desktop/STM32/Projects_nace/NUCLEO_LL_Project_LCD/STM32_NUCLEO_LL_Project_LCD_22_02_2025/Drivers/STM32F1xx_HAL_Driver/Inc\stm32f1xx_ll_rcc.h **** #endif /* USB_OTG_FS || USB */
 314:C:/Users/nace/OneDrive/Desktop/STM32/Projects_nace/NUCLEO_LL_Project_LCD/STM32_NUCLEO_LL_Project_LCD_22_02_2025/Drivers/STM32F1xx_HAL_Driver/Inc\stm32f1xx_ll_rcc.h **** 
 315:C:/Users/nace/OneDrive/Desktop/STM32/Projects_nace/NUCLEO_LL_Project_LCD/STM32_NUCLEO_LL_Project_LCD_22_02_2025/Drivers/STM32F1xx_HAL_Driver/Inc\stm32f1xx_ll_rcc.h **** /** @defgroup RCC_LL_EC_ADC_CLKSOURCE_PCLK2 Peripheral ADC clock source selection
 316:C:/Users/nace/OneDrive/Desktop/STM32/Projects_nace/NUCLEO_LL_Project_LCD/STM32_NUCLEO_LL_Project_LCD_22_02_2025/Drivers/STM32F1xx_HAL_Driver/Inc\stm32f1xx_ll_rcc.h ****   * @{
 317:C:/Users/nace/OneDrive/Desktop/STM32/Projects_nace/NUCLEO_LL_Project_LCD/STM32_NUCLEO_LL_Project_LCD_22_02_2025/Drivers/STM32F1xx_HAL_Driver/Inc\stm32f1xx_ll_rcc.h ****   */
 318:C:/Users/nace/OneDrive/Desktop/STM32/Projects_nace/NUCLEO_LL_Project_LCD/STM32_NUCLEO_LL_Project_LCD_22_02_2025/Drivers/STM32F1xx_HAL_Driver/Inc\stm32f1xx_ll_rcc.h **** #define LL_RCC_ADC_CLKSRC_PCLK2_DIV_2    RCC_CFGR_ADCPRE_DIV2 /*ADC prescaler PCLK2 divided by 2*/
 319:C:/Users/nace/OneDrive/Desktop/STM32/Projects_nace/NUCLEO_LL_Project_LCD/STM32_NUCLEO_LL_Project_LCD_22_02_2025/Drivers/STM32F1xx_HAL_Driver/Inc\stm32f1xx_ll_rcc.h **** #define LL_RCC_ADC_CLKSRC_PCLK2_DIV_4    RCC_CFGR_ADCPRE_DIV4 /*ADC prescaler PCLK2 divided by 4*/
 320:C:/Users/nace/OneDrive/Desktop/STM32/Projects_nace/NUCLEO_LL_Project_LCD/STM32_NUCLEO_LL_Project_LCD_22_02_2025/Drivers/STM32F1xx_HAL_Driver/Inc\stm32f1xx_ll_rcc.h **** #define LL_RCC_ADC_CLKSRC_PCLK2_DIV_6    RCC_CFGR_ADCPRE_DIV6 /*ADC prescaler PCLK2 divided by 6*/
 321:C:/Users/nace/OneDrive/Desktop/STM32/Projects_nace/NUCLEO_LL_Project_LCD/STM32_NUCLEO_LL_Project_LCD_22_02_2025/Drivers/STM32F1xx_HAL_Driver/Inc\stm32f1xx_ll_rcc.h **** #define LL_RCC_ADC_CLKSRC_PCLK2_DIV_8    RCC_CFGR_ADCPRE_DIV8 /*ADC prescaler PCLK2 divided by 8*/
 322:C:/Users/nace/OneDrive/Desktop/STM32/Projects_nace/NUCLEO_LL_Project_LCD/STM32_NUCLEO_LL_Project_LCD_22_02_2025/Drivers/STM32F1xx_HAL_Driver/Inc\stm32f1xx_ll_rcc.h **** /**
 323:C:/Users/nace/OneDrive/Desktop/STM32/Projects_nace/NUCLEO_LL_Project_LCD/STM32_NUCLEO_LL_Project_LCD_22_02_2025/Drivers/STM32F1xx_HAL_Driver/Inc\stm32f1xx_ll_rcc.h ****   * @}
 324:C:/Users/nace/OneDrive/Desktop/STM32/Projects_nace/NUCLEO_LL_Project_LCD/STM32_NUCLEO_LL_Project_LCD_22_02_2025/Drivers/STM32F1xx_HAL_Driver/Inc\stm32f1xx_ll_rcc.h ****   */
 325:C:/Users/nace/OneDrive/Desktop/STM32/Projects_nace/NUCLEO_LL_Project_LCD/STM32_NUCLEO_LL_Project_LCD_22_02_2025/Drivers/STM32F1xx_HAL_Driver/Inc\stm32f1xx_ll_rcc.h **** 
 326:C:/Users/nace/OneDrive/Desktop/STM32/Projects_nace/NUCLEO_LL_Project_LCD/STM32_NUCLEO_LL_Project_LCD_22_02_2025/Drivers/STM32F1xx_HAL_Driver/Inc\stm32f1xx_ll_rcc.h **** #if defined(RCC_CFGR2_I2S2SRC)
 327:C:/Users/nace/OneDrive/Desktop/STM32/Projects_nace/NUCLEO_LL_Project_LCD/STM32_NUCLEO_LL_Project_LCD_22_02_2025/Drivers/STM32F1xx_HAL_Driver/Inc\stm32f1xx_ll_rcc.h **** /** @defgroup RCC_LL_EC_I2S2 Peripheral I2S get clock source
 328:C:/Users/nace/OneDrive/Desktop/STM32/Projects_nace/NUCLEO_LL_Project_LCD/STM32_NUCLEO_LL_Project_LCD_22_02_2025/Drivers/STM32F1xx_HAL_Driver/Inc\stm32f1xx_ll_rcc.h ****   * @{
 329:C:/Users/nace/OneDrive/Desktop/STM32/Projects_nace/NUCLEO_LL_Project_LCD/STM32_NUCLEO_LL_Project_LCD_22_02_2025/Drivers/STM32F1xx_HAL_Driver/Inc\stm32f1xx_ll_rcc.h ****   */
 330:C:/Users/nace/OneDrive/Desktop/STM32/Projects_nace/NUCLEO_LL_Project_LCD/STM32_NUCLEO_LL_Project_LCD_22_02_2025/Drivers/STM32F1xx_HAL_Driver/Inc\stm32f1xx_ll_rcc.h **** #define LL_RCC_I2S2_CLKSOURCE              RCC_CFGR2_I2S2SRC       /*!< I2S2 Clock source selection
 331:C:/Users/nace/OneDrive/Desktop/STM32/Projects_nace/NUCLEO_LL_Project_LCD/STM32_NUCLEO_LL_Project_LCD_22_02_2025/Drivers/STM32F1xx_HAL_Driver/Inc\stm32f1xx_ll_rcc.h **** #define LL_RCC_I2S3_CLKSOURCE              RCC_CFGR2_I2S3SRC       /*!< I2S3 Clock source selection
 332:C:/Users/nace/OneDrive/Desktop/STM32/Projects_nace/NUCLEO_LL_Project_LCD/STM32_NUCLEO_LL_Project_LCD_22_02_2025/Drivers/STM32F1xx_HAL_Driver/Inc\stm32f1xx_ll_rcc.h **** /**
 333:C:/Users/nace/OneDrive/Desktop/STM32/Projects_nace/NUCLEO_LL_Project_LCD/STM32_NUCLEO_LL_Project_LCD_22_02_2025/Drivers/STM32F1xx_HAL_Driver/Inc\stm32f1xx_ll_rcc.h ****   * @}
 334:C:/Users/nace/OneDrive/Desktop/STM32/Projects_nace/NUCLEO_LL_Project_LCD/STM32_NUCLEO_LL_Project_LCD_22_02_2025/Drivers/STM32F1xx_HAL_Driver/Inc\stm32f1xx_ll_rcc.h ****   */
 335:C:/Users/nace/OneDrive/Desktop/STM32/Projects_nace/NUCLEO_LL_Project_LCD/STM32_NUCLEO_LL_Project_LCD_22_02_2025/Drivers/STM32F1xx_HAL_Driver/Inc\stm32f1xx_ll_rcc.h **** 
 336:C:/Users/nace/OneDrive/Desktop/STM32/Projects_nace/NUCLEO_LL_Project_LCD/STM32_NUCLEO_LL_Project_LCD_22_02_2025/Drivers/STM32F1xx_HAL_Driver/Inc\stm32f1xx_ll_rcc.h **** #endif /* RCC_CFGR2_I2S2SRC */
 337:C:/Users/nace/OneDrive/Desktop/STM32/Projects_nace/NUCLEO_LL_Project_LCD/STM32_NUCLEO_LL_Project_LCD_22_02_2025/Drivers/STM32F1xx_HAL_Driver/Inc\stm32f1xx_ll_rcc.h **** 
 338:C:/Users/nace/OneDrive/Desktop/STM32/Projects_nace/NUCLEO_LL_Project_LCD/STM32_NUCLEO_LL_Project_LCD_22_02_2025/Drivers/STM32F1xx_HAL_Driver/Inc\stm32f1xx_ll_rcc.h **** #if defined(USB_OTG_FS) || defined(USB)
 339:C:/Users/nace/OneDrive/Desktop/STM32/Projects_nace/NUCLEO_LL_Project_LCD/STM32_NUCLEO_LL_Project_LCD_22_02_2025/Drivers/STM32F1xx_HAL_Driver/Inc\stm32f1xx_ll_rcc.h **** /** @defgroup RCC_LL_EC_USB Peripheral USB get clock source
 340:C:/Users/nace/OneDrive/Desktop/STM32/Projects_nace/NUCLEO_LL_Project_LCD/STM32_NUCLEO_LL_Project_LCD_22_02_2025/Drivers/STM32F1xx_HAL_Driver/Inc\stm32f1xx_ll_rcc.h ****   * @{
 341:C:/Users/nace/OneDrive/Desktop/STM32/Projects_nace/NUCLEO_LL_Project_LCD/STM32_NUCLEO_LL_Project_LCD_22_02_2025/Drivers/STM32F1xx_HAL_Driver/Inc\stm32f1xx_ll_rcc.h ****   */
 342:C:/Users/nace/OneDrive/Desktop/STM32/Projects_nace/NUCLEO_LL_Project_LCD/STM32_NUCLEO_LL_Project_LCD_22_02_2025/Drivers/STM32F1xx_HAL_Driver/Inc\stm32f1xx_ll_rcc.h **** #define LL_RCC_USB_CLKSOURCE               0x00400000U     /*!< USB Clock source selection */
 343:C:/Users/nace/OneDrive/Desktop/STM32/Projects_nace/NUCLEO_LL_Project_LCD/STM32_NUCLEO_LL_Project_LCD_22_02_2025/Drivers/STM32F1xx_HAL_Driver/Inc\stm32f1xx_ll_rcc.h **** /**
 344:C:/Users/nace/OneDrive/Desktop/STM32/Projects_nace/NUCLEO_LL_Project_LCD/STM32_NUCLEO_LL_Project_LCD_22_02_2025/Drivers/STM32F1xx_HAL_Driver/Inc\stm32f1xx_ll_rcc.h ****   * @}
 345:C:/Users/nace/OneDrive/Desktop/STM32/Projects_nace/NUCLEO_LL_Project_LCD/STM32_NUCLEO_LL_Project_LCD_22_02_2025/Drivers/STM32F1xx_HAL_Driver/Inc\stm32f1xx_ll_rcc.h ****   */
 346:C:/Users/nace/OneDrive/Desktop/STM32/Projects_nace/NUCLEO_LL_Project_LCD/STM32_NUCLEO_LL_Project_LCD_22_02_2025/Drivers/STM32F1xx_HAL_Driver/Inc\stm32f1xx_ll_rcc.h **** 
 347:C:/Users/nace/OneDrive/Desktop/STM32/Projects_nace/NUCLEO_LL_Project_LCD/STM32_NUCLEO_LL_Project_LCD_22_02_2025/Drivers/STM32F1xx_HAL_Driver/Inc\stm32f1xx_ll_rcc.h **** #endif /* USB_OTG_FS || USB */
 348:C:/Users/nace/OneDrive/Desktop/STM32/Projects_nace/NUCLEO_LL_Project_LCD/STM32_NUCLEO_LL_Project_LCD_22_02_2025/Drivers/STM32F1xx_HAL_Driver/Inc\stm32f1xx_ll_rcc.h **** 
 349:C:/Users/nace/OneDrive/Desktop/STM32/Projects_nace/NUCLEO_LL_Project_LCD/STM32_NUCLEO_LL_Project_LCD_22_02_2025/Drivers/STM32F1xx_HAL_Driver/Inc\stm32f1xx_ll_rcc.h **** /** @defgroup RCC_LL_EC_ADC Peripheral ADC get clock source
 350:C:/Users/nace/OneDrive/Desktop/STM32/Projects_nace/NUCLEO_LL_Project_LCD/STM32_NUCLEO_LL_Project_LCD_22_02_2025/Drivers/STM32F1xx_HAL_Driver/Inc\stm32f1xx_ll_rcc.h ****   * @{
 351:C:/Users/nace/OneDrive/Desktop/STM32/Projects_nace/NUCLEO_LL_Project_LCD/STM32_NUCLEO_LL_Project_LCD_22_02_2025/Drivers/STM32F1xx_HAL_Driver/Inc\stm32f1xx_ll_rcc.h ****   */
 352:C:/Users/nace/OneDrive/Desktop/STM32/Projects_nace/NUCLEO_LL_Project_LCD/STM32_NUCLEO_LL_Project_LCD_22_02_2025/Drivers/STM32F1xx_HAL_Driver/Inc\stm32f1xx_ll_rcc.h **** #define LL_RCC_ADC_CLKSOURCE               RCC_CFGR_ADCPRE /*!< ADC Clock source selection */
 353:C:/Users/nace/OneDrive/Desktop/STM32/Projects_nace/NUCLEO_LL_Project_LCD/STM32_NUCLEO_LL_Project_LCD_22_02_2025/Drivers/STM32F1xx_HAL_Driver/Inc\stm32f1xx_ll_rcc.h **** /**
 354:C:/Users/nace/OneDrive/Desktop/STM32/Projects_nace/NUCLEO_LL_Project_LCD/STM32_NUCLEO_LL_Project_LCD_22_02_2025/Drivers/STM32F1xx_HAL_Driver/Inc\stm32f1xx_ll_rcc.h ****   * @}
 355:C:/Users/nace/OneDrive/Desktop/STM32/Projects_nace/NUCLEO_LL_Project_LCD/STM32_NUCLEO_LL_Project_LCD_22_02_2025/Drivers/STM32F1xx_HAL_Driver/Inc\stm32f1xx_ll_rcc.h ****   */
 356:C:/Users/nace/OneDrive/Desktop/STM32/Projects_nace/NUCLEO_LL_Project_LCD/STM32_NUCLEO_LL_Project_LCD_22_02_2025/Drivers/STM32F1xx_HAL_Driver/Inc\stm32f1xx_ll_rcc.h **** 
 357:C:/Users/nace/OneDrive/Desktop/STM32/Projects_nace/NUCLEO_LL_Project_LCD/STM32_NUCLEO_LL_Project_LCD_22_02_2025/Drivers/STM32F1xx_HAL_Driver/Inc\stm32f1xx_ll_rcc.h **** /** @defgroup RCC_LL_EC_RTC_CLKSOURCE  RTC clock source selection
 358:C:/Users/nace/OneDrive/Desktop/STM32/Projects_nace/NUCLEO_LL_Project_LCD/STM32_NUCLEO_LL_Project_LCD_22_02_2025/Drivers/STM32F1xx_HAL_Driver/Inc\stm32f1xx_ll_rcc.h ****   * @{
 359:C:/Users/nace/OneDrive/Desktop/STM32/Projects_nace/NUCLEO_LL_Project_LCD/STM32_NUCLEO_LL_Project_LCD_22_02_2025/Drivers/STM32F1xx_HAL_Driver/Inc\stm32f1xx_ll_rcc.h ****   */
 360:C:/Users/nace/OneDrive/Desktop/STM32/Projects_nace/NUCLEO_LL_Project_LCD/STM32_NUCLEO_LL_Project_LCD_22_02_2025/Drivers/STM32F1xx_HAL_Driver/Inc\stm32f1xx_ll_rcc.h **** #define LL_RCC_RTC_CLKSOURCE_NONE          0x00000000U             /*!< No clock used as RTC clock 
 361:C:/Users/nace/OneDrive/Desktop/STM32/Projects_nace/NUCLEO_LL_Project_LCD/STM32_NUCLEO_LL_Project_LCD_22_02_2025/Drivers/STM32F1xx_HAL_Driver/Inc\stm32f1xx_ll_rcc.h **** #define LL_RCC_RTC_CLKSOURCE_LSE           RCC_BDCR_RTCSEL_0       /*!< LSE oscillator clock used a
 362:C:/Users/nace/OneDrive/Desktop/STM32/Projects_nace/NUCLEO_LL_Project_LCD/STM32_NUCLEO_LL_Project_LCD_22_02_2025/Drivers/STM32F1xx_HAL_Driver/Inc\stm32f1xx_ll_rcc.h **** #define LL_RCC_RTC_CLKSOURCE_LSI           RCC_BDCR_RTCSEL_1       /*!< LSI oscillator clock used a
 363:C:/Users/nace/OneDrive/Desktop/STM32/Projects_nace/NUCLEO_LL_Project_LCD/STM32_NUCLEO_LL_Project_LCD_22_02_2025/Drivers/STM32F1xx_HAL_Driver/Inc\stm32f1xx_ll_rcc.h **** #define LL_RCC_RTC_CLKSOURCE_HSE_DIV128    RCC_BDCR_RTCSEL         /*!< HSE oscillator clock divide
 364:C:/Users/nace/OneDrive/Desktop/STM32/Projects_nace/NUCLEO_LL_Project_LCD/STM32_NUCLEO_LL_Project_LCD_22_02_2025/Drivers/STM32F1xx_HAL_Driver/Inc\stm32f1xx_ll_rcc.h **** /**
 365:C:/Users/nace/OneDrive/Desktop/STM32/Projects_nace/NUCLEO_LL_Project_LCD/STM32_NUCLEO_LL_Project_LCD_22_02_2025/Drivers/STM32F1xx_HAL_Driver/Inc\stm32f1xx_ll_rcc.h ****   * @}
 366:C:/Users/nace/OneDrive/Desktop/STM32/Projects_nace/NUCLEO_LL_Project_LCD/STM32_NUCLEO_LL_Project_LCD_22_02_2025/Drivers/STM32F1xx_HAL_Driver/Inc\stm32f1xx_ll_rcc.h ****   */
 367:C:/Users/nace/OneDrive/Desktop/STM32/Projects_nace/NUCLEO_LL_Project_LCD/STM32_NUCLEO_LL_Project_LCD_22_02_2025/Drivers/STM32F1xx_HAL_Driver/Inc\stm32f1xx_ll_rcc.h **** 
 368:C:/Users/nace/OneDrive/Desktop/STM32/Projects_nace/NUCLEO_LL_Project_LCD/STM32_NUCLEO_LL_Project_LCD_22_02_2025/Drivers/STM32F1xx_HAL_Driver/Inc\stm32f1xx_ll_rcc.h **** /** @defgroup RCC_LL_EC_PLL_MUL PLL Multiplicator factor
 369:C:/Users/nace/OneDrive/Desktop/STM32/Projects_nace/NUCLEO_LL_Project_LCD/STM32_NUCLEO_LL_Project_LCD_22_02_2025/Drivers/STM32F1xx_HAL_Driver/Inc\stm32f1xx_ll_rcc.h ****   * @{
 370:C:/Users/nace/OneDrive/Desktop/STM32/Projects_nace/NUCLEO_LL_Project_LCD/STM32_NUCLEO_LL_Project_LCD_22_02_2025/Drivers/STM32F1xx_HAL_Driver/Inc\stm32f1xx_ll_rcc.h ****   */
 371:C:/Users/nace/OneDrive/Desktop/STM32/Projects_nace/NUCLEO_LL_Project_LCD/STM32_NUCLEO_LL_Project_LCD_22_02_2025/Drivers/STM32F1xx_HAL_Driver/Inc\stm32f1xx_ll_rcc.h **** #if defined(RCC_CFGR_PLLMULL2)
 372:C:/Users/nace/OneDrive/Desktop/STM32/Projects_nace/NUCLEO_LL_Project_LCD/STM32_NUCLEO_LL_Project_LCD_22_02_2025/Drivers/STM32F1xx_HAL_Driver/Inc\stm32f1xx_ll_rcc.h **** #define LL_RCC_PLL_MUL_2                   RCC_CFGR_PLLMULL2  /*!< PLL input clock*2 */
 373:C:/Users/nace/OneDrive/Desktop/STM32/Projects_nace/NUCLEO_LL_Project_LCD/STM32_NUCLEO_LL_Project_LCD_22_02_2025/Drivers/STM32F1xx_HAL_Driver/Inc\stm32f1xx_ll_rcc.h **** #endif /*RCC_CFGR_PLLMULL2*/
 374:C:/Users/nace/OneDrive/Desktop/STM32/Projects_nace/NUCLEO_LL_Project_LCD/STM32_NUCLEO_LL_Project_LCD_22_02_2025/Drivers/STM32F1xx_HAL_Driver/Inc\stm32f1xx_ll_rcc.h **** #if defined(RCC_CFGR_PLLMULL3)
 375:C:/Users/nace/OneDrive/Desktop/STM32/Projects_nace/NUCLEO_LL_Project_LCD/STM32_NUCLEO_LL_Project_LCD_22_02_2025/Drivers/STM32F1xx_HAL_Driver/Inc\stm32f1xx_ll_rcc.h **** #define LL_RCC_PLL_MUL_3                   RCC_CFGR_PLLMULL3  /*!< PLL input clock*3 */
 376:C:/Users/nace/OneDrive/Desktop/STM32/Projects_nace/NUCLEO_LL_Project_LCD/STM32_NUCLEO_LL_Project_LCD_22_02_2025/Drivers/STM32F1xx_HAL_Driver/Inc\stm32f1xx_ll_rcc.h **** #endif /*RCC_CFGR_PLLMULL3*/
 377:C:/Users/nace/OneDrive/Desktop/STM32/Projects_nace/NUCLEO_LL_Project_LCD/STM32_NUCLEO_LL_Project_LCD_22_02_2025/Drivers/STM32F1xx_HAL_Driver/Inc\stm32f1xx_ll_rcc.h **** #define LL_RCC_PLL_MUL_4                   RCC_CFGR_PLLMULL4  /*!< PLL input clock*4 */
 378:C:/Users/nace/OneDrive/Desktop/STM32/Projects_nace/NUCLEO_LL_Project_LCD/STM32_NUCLEO_LL_Project_LCD_22_02_2025/Drivers/STM32F1xx_HAL_Driver/Inc\stm32f1xx_ll_rcc.h **** #define LL_RCC_PLL_MUL_5                   RCC_CFGR_PLLMULL5  /*!< PLL input clock*5 */
 379:C:/Users/nace/OneDrive/Desktop/STM32/Projects_nace/NUCLEO_LL_Project_LCD/STM32_NUCLEO_LL_Project_LCD_22_02_2025/Drivers/STM32F1xx_HAL_Driver/Inc\stm32f1xx_ll_rcc.h **** #define LL_RCC_PLL_MUL_6                   RCC_CFGR_PLLMULL6  /*!< PLL input clock*6 */
 380:C:/Users/nace/OneDrive/Desktop/STM32/Projects_nace/NUCLEO_LL_Project_LCD/STM32_NUCLEO_LL_Project_LCD_22_02_2025/Drivers/STM32F1xx_HAL_Driver/Inc\stm32f1xx_ll_rcc.h **** #define LL_RCC_PLL_MUL_7                   RCC_CFGR_PLLMULL7  /*!< PLL input clock*7 */
 381:C:/Users/nace/OneDrive/Desktop/STM32/Projects_nace/NUCLEO_LL_Project_LCD/STM32_NUCLEO_LL_Project_LCD_22_02_2025/Drivers/STM32F1xx_HAL_Driver/Inc\stm32f1xx_ll_rcc.h **** #define LL_RCC_PLL_MUL_8                   RCC_CFGR_PLLMULL8  /*!< PLL input clock*8 */
 382:C:/Users/nace/OneDrive/Desktop/STM32/Projects_nace/NUCLEO_LL_Project_LCD/STM32_NUCLEO_LL_Project_LCD_22_02_2025/Drivers/STM32F1xx_HAL_Driver/Inc\stm32f1xx_ll_rcc.h **** #define LL_RCC_PLL_MUL_9                   RCC_CFGR_PLLMULL9  /*!< PLL input clock*9 */
 383:C:/Users/nace/OneDrive/Desktop/STM32/Projects_nace/NUCLEO_LL_Project_LCD/STM32_NUCLEO_LL_Project_LCD_22_02_2025/Drivers/STM32F1xx_HAL_Driver/Inc\stm32f1xx_ll_rcc.h **** #if defined(RCC_CFGR_PLLMULL6_5)
 384:C:/Users/nace/OneDrive/Desktop/STM32/Projects_nace/NUCLEO_LL_Project_LCD/STM32_NUCLEO_LL_Project_LCD_22_02_2025/Drivers/STM32F1xx_HAL_Driver/Inc\stm32f1xx_ll_rcc.h **** #define LL_RCC_PLL_MUL_6_5                 RCC_CFGR_PLLMULL6_5 /*!< PLL input clock*6 */
 385:C:/Users/nace/OneDrive/Desktop/STM32/Projects_nace/NUCLEO_LL_Project_LCD/STM32_NUCLEO_LL_Project_LCD_22_02_2025/Drivers/STM32F1xx_HAL_Driver/Inc\stm32f1xx_ll_rcc.h **** #else
 386:C:/Users/nace/OneDrive/Desktop/STM32/Projects_nace/NUCLEO_LL_Project_LCD/STM32_NUCLEO_LL_Project_LCD_22_02_2025/Drivers/STM32F1xx_HAL_Driver/Inc\stm32f1xx_ll_rcc.h **** #define LL_RCC_PLL_MUL_10                  RCC_CFGR_PLLMULL10  /*!< PLL input clock*10 */
 387:C:/Users/nace/OneDrive/Desktop/STM32/Projects_nace/NUCLEO_LL_Project_LCD/STM32_NUCLEO_LL_Project_LCD_22_02_2025/Drivers/STM32F1xx_HAL_Driver/Inc\stm32f1xx_ll_rcc.h **** #define LL_RCC_PLL_MUL_11                  RCC_CFGR_PLLMULL11  /*!< PLL input clock*11 */
 388:C:/Users/nace/OneDrive/Desktop/STM32/Projects_nace/NUCLEO_LL_Project_LCD/STM32_NUCLEO_LL_Project_LCD_22_02_2025/Drivers/STM32F1xx_HAL_Driver/Inc\stm32f1xx_ll_rcc.h **** #define LL_RCC_PLL_MUL_12                  RCC_CFGR_PLLMULL12  /*!< PLL input clock*12 */
 389:C:/Users/nace/OneDrive/Desktop/STM32/Projects_nace/NUCLEO_LL_Project_LCD/STM32_NUCLEO_LL_Project_LCD_22_02_2025/Drivers/STM32F1xx_HAL_Driver/Inc\stm32f1xx_ll_rcc.h **** #define LL_RCC_PLL_MUL_13                  RCC_CFGR_PLLMULL13  /*!< PLL input clock*13 */
 390:C:/Users/nace/OneDrive/Desktop/STM32/Projects_nace/NUCLEO_LL_Project_LCD/STM32_NUCLEO_LL_Project_LCD_22_02_2025/Drivers/STM32F1xx_HAL_Driver/Inc\stm32f1xx_ll_rcc.h **** #define LL_RCC_PLL_MUL_14                  RCC_CFGR_PLLMULL14  /*!< PLL input clock*14 */
 391:C:/Users/nace/OneDrive/Desktop/STM32/Projects_nace/NUCLEO_LL_Project_LCD/STM32_NUCLEO_LL_Project_LCD_22_02_2025/Drivers/STM32F1xx_HAL_Driver/Inc\stm32f1xx_ll_rcc.h **** #define LL_RCC_PLL_MUL_15                  RCC_CFGR_PLLMULL15  /*!< PLL input clock*15 */
 392:C:/Users/nace/OneDrive/Desktop/STM32/Projects_nace/NUCLEO_LL_Project_LCD/STM32_NUCLEO_LL_Project_LCD_22_02_2025/Drivers/STM32F1xx_HAL_Driver/Inc\stm32f1xx_ll_rcc.h **** #define LL_RCC_PLL_MUL_16                  RCC_CFGR_PLLMULL16  /*!< PLL input clock*16 */
 393:C:/Users/nace/OneDrive/Desktop/STM32/Projects_nace/NUCLEO_LL_Project_LCD/STM32_NUCLEO_LL_Project_LCD_22_02_2025/Drivers/STM32F1xx_HAL_Driver/Inc\stm32f1xx_ll_rcc.h **** #endif /*RCC_CFGR_PLLMULL6_5*/
 394:C:/Users/nace/OneDrive/Desktop/STM32/Projects_nace/NUCLEO_LL_Project_LCD/STM32_NUCLEO_LL_Project_LCD_22_02_2025/Drivers/STM32F1xx_HAL_Driver/Inc\stm32f1xx_ll_rcc.h **** /**
 395:C:/Users/nace/OneDrive/Desktop/STM32/Projects_nace/NUCLEO_LL_Project_LCD/STM32_NUCLEO_LL_Project_LCD_22_02_2025/Drivers/STM32F1xx_HAL_Driver/Inc\stm32f1xx_ll_rcc.h ****   * @}
 396:C:/Users/nace/OneDrive/Desktop/STM32/Projects_nace/NUCLEO_LL_Project_LCD/STM32_NUCLEO_LL_Project_LCD_22_02_2025/Drivers/STM32F1xx_HAL_Driver/Inc\stm32f1xx_ll_rcc.h ****   */
 397:C:/Users/nace/OneDrive/Desktop/STM32/Projects_nace/NUCLEO_LL_Project_LCD/STM32_NUCLEO_LL_Project_LCD_22_02_2025/Drivers/STM32F1xx_HAL_Driver/Inc\stm32f1xx_ll_rcc.h **** 
 398:C:/Users/nace/OneDrive/Desktop/STM32/Projects_nace/NUCLEO_LL_Project_LCD/STM32_NUCLEO_LL_Project_LCD_22_02_2025/Drivers/STM32F1xx_HAL_Driver/Inc\stm32f1xx_ll_rcc.h **** /** @defgroup RCC_LL_EC_PLLSOURCE PLL SOURCE
 399:C:/Users/nace/OneDrive/Desktop/STM32/Projects_nace/NUCLEO_LL_Project_LCD/STM32_NUCLEO_LL_Project_LCD_22_02_2025/Drivers/STM32F1xx_HAL_Driver/Inc\stm32f1xx_ll_rcc.h ****   * @{
 400:C:/Users/nace/OneDrive/Desktop/STM32/Projects_nace/NUCLEO_LL_Project_LCD/STM32_NUCLEO_LL_Project_LCD_22_02_2025/Drivers/STM32F1xx_HAL_Driver/Inc\stm32f1xx_ll_rcc.h ****   */
 401:C:/Users/nace/OneDrive/Desktop/STM32/Projects_nace/NUCLEO_LL_Project_LCD/STM32_NUCLEO_LL_Project_LCD_22_02_2025/Drivers/STM32F1xx_HAL_Driver/Inc\stm32f1xx_ll_rcc.h **** #define LL_RCC_PLLSOURCE_HSI_DIV_2         0x00000000U                                    /*!< HSI 
 402:C:/Users/nace/OneDrive/Desktop/STM32/Projects_nace/NUCLEO_LL_Project_LCD/STM32_NUCLEO_LL_Project_LCD_22_02_2025/Drivers/STM32F1xx_HAL_Driver/Inc\stm32f1xx_ll_rcc.h **** #define LL_RCC_PLLSOURCE_HSE               RCC_CFGR_PLLSRC                                /*!< HSE/
 403:C:/Users/nace/OneDrive/Desktop/STM32/Projects_nace/NUCLEO_LL_Project_LCD/STM32_NUCLEO_LL_Project_LCD_22_02_2025/Drivers/STM32F1xx_HAL_Driver/Inc\stm32f1xx_ll_rcc.h **** #if defined(RCC_CFGR2_PREDIV1SRC)
 404:C:/Users/nace/OneDrive/Desktop/STM32/Projects_nace/NUCLEO_LL_Project_LCD/STM32_NUCLEO_LL_Project_LCD_22_02_2025/Drivers/STM32F1xx_HAL_Driver/Inc\stm32f1xx_ll_rcc.h **** #define LL_RCC_PLLSOURCE_PLL2              (RCC_CFGR_PLLSRC | RCC_CFGR2_PREDIV1SRC << 4U) /*!< PLL2
 405:C:/Users/nace/OneDrive/Desktop/STM32/Projects_nace/NUCLEO_LL_Project_LCD/STM32_NUCLEO_LL_Project_LCD_22_02_2025/Drivers/STM32F1xx_HAL_Driver/Inc\stm32f1xx_ll_rcc.h **** #endif /*RCC_CFGR2_PREDIV1SRC*/
 406:C:/Users/nace/OneDrive/Desktop/STM32/Projects_nace/NUCLEO_LL_Project_LCD/STM32_NUCLEO_LL_Project_LCD_22_02_2025/Drivers/STM32F1xx_HAL_Driver/Inc\stm32f1xx_ll_rcc.h **** 
 407:C:/Users/nace/OneDrive/Desktop/STM32/Projects_nace/NUCLEO_LL_Project_LCD/STM32_NUCLEO_LL_Project_LCD_22_02_2025/Drivers/STM32F1xx_HAL_Driver/Inc\stm32f1xx_ll_rcc.h **** #if defined(RCC_CFGR2_PREDIV1)
 408:C:/Users/nace/OneDrive/Desktop/STM32/Projects_nace/NUCLEO_LL_Project_LCD/STM32_NUCLEO_LL_Project_LCD_22_02_2025/Drivers/STM32F1xx_HAL_Driver/Inc\stm32f1xx_ll_rcc.h **** #define LL_RCC_PLLSOURCE_HSE_DIV_1         (RCC_CFGR_PLLSRC | RCC_CFGR2_PREDIV1_DIV1)    /*!< HSE/1
 409:C:/Users/nace/OneDrive/Desktop/STM32/Projects_nace/NUCLEO_LL_Project_LCD/STM32_NUCLEO_LL_Project_LCD_22_02_2025/Drivers/STM32F1xx_HAL_Driver/Inc\stm32f1xx_ll_rcc.h **** #define LL_RCC_PLLSOURCE_HSE_DIV_2         (RCC_CFGR_PLLSRC | RCC_CFGR2_PREDIV1_DIV2)    /*!< HSE/2
 410:C:/Users/nace/OneDrive/Desktop/STM32/Projects_nace/NUCLEO_LL_Project_LCD/STM32_NUCLEO_LL_Project_LCD_22_02_2025/Drivers/STM32F1xx_HAL_Driver/Inc\stm32f1xx_ll_rcc.h **** #define LL_RCC_PLLSOURCE_HSE_DIV_3         (RCC_CFGR_PLLSRC | RCC_CFGR2_PREDIV1_DIV3)    /*!< HSE/3
 411:C:/Users/nace/OneDrive/Desktop/STM32/Projects_nace/NUCLEO_LL_Project_LCD/STM32_NUCLEO_LL_Project_LCD_22_02_2025/Drivers/STM32F1xx_HAL_Driver/Inc\stm32f1xx_ll_rcc.h **** #define LL_RCC_PLLSOURCE_HSE_DIV_4         (RCC_CFGR_PLLSRC | RCC_CFGR2_PREDIV1_DIV4)    /*!< HSE/4
 412:C:/Users/nace/OneDrive/Desktop/STM32/Projects_nace/NUCLEO_LL_Project_LCD/STM32_NUCLEO_LL_Project_LCD_22_02_2025/Drivers/STM32F1xx_HAL_Driver/Inc\stm32f1xx_ll_rcc.h **** #define LL_RCC_PLLSOURCE_HSE_DIV_5         (RCC_CFGR_PLLSRC | RCC_CFGR2_PREDIV1_DIV5)    /*!< HSE/5
 413:C:/Users/nace/OneDrive/Desktop/STM32/Projects_nace/NUCLEO_LL_Project_LCD/STM32_NUCLEO_LL_Project_LCD_22_02_2025/Drivers/STM32F1xx_HAL_Driver/Inc\stm32f1xx_ll_rcc.h **** #define LL_RCC_PLLSOURCE_HSE_DIV_6         (RCC_CFGR_PLLSRC | RCC_CFGR2_PREDIV1_DIV6)    /*!< HSE/6
 414:C:/Users/nace/OneDrive/Desktop/STM32/Projects_nace/NUCLEO_LL_Project_LCD/STM32_NUCLEO_LL_Project_LCD_22_02_2025/Drivers/STM32F1xx_HAL_Driver/Inc\stm32f1xx_ll_rcc.h **** #define LL_RCC_PLLSOURCE_HSE_DIV_7         (RCC_CFGR_PLLSRC | RCC_CFGR2_PREDIV1_DIV7)    /*!< HSE/7
 415:C:/Users/nace/OneDrive/Desktop/STM32/Projects_nace/NUCLEO_LL_Project_LCD/STM32_NUCLEO_LL_Project_LCD_22_02_2025/Drivers/STM32F1xx_HAL_Driver/Inc\stm32f1xx_ll_rcc.h **** #define LL_RCC_PLLSOURCE_HSE_DIV_8         (RCC_CFGR_PLLSRC | RCC_CFGR2_PREDIV1_DIV8)    /*!< HSE/8
 416:C:/Users/nace/OneDrive/Desktop/STM32/Projects_nace/NUCLEO_LL_Project_LCD/STM32_NUCLEO_LL_Project_LCD_22_02_2025/Drivers/STM32F1xx_HAL_Driver/Inc\stm32f1xx_ll_rcc.h **** #define LL_RCC_PLLSOURCE_HSE_DIV_9         (RCC_CFGR_PLLSRC | RCC_CFGR2_PREDIV1_DIV9)    /*!< HSE/9
 417:C:/Users/nace/OneDrive/Desktop/STM32/Projects_nace/NUCLEO_LL_Project_LCD/STM32_NUCLEO_LL_Project_LCD_22_02_2025/Drivers/STM32F1xx_HAL_Driver/Inc\stm32f1xx_ll_rcc.h **** #define LL_RCC_PLLSOURCE_HSE_DIV_10        (RCC_CFGR_PLLSRC | RCC_CFGR2_PREDIV1_DIV10)   /*!< HSE/1
 418:C:/Users/nace/OneDrive/Desktop/STM32/Projects_nace/NUCLEO_LL_Project_LCD/STM32_NUCLEO_LL_Project_LCD_22_02_2025/Drivers/STM32F1xx_HAL_Driver/Inc\stm32f1xx_ll_rcc.h **** #define LL_RCC_PLLSOURCE_HSE_DIV_11        (RCC_CFGR_PLLSRC | RCC_CFGR2_PREDIV1_DIV11)   /*!< HSE/1
 419:C:/Users/nace/OneDrive/Desktop/STM32/Projects_nace/NUCLEO_LL_Project_LCD/STM32_NUCLEO_LL_Project_LCD_22_02_2025/Drivers/STM32F1xx_HAL_Driver/Inc\stm32f1xx_ll_rcc.h **** #define LL_RCC_PLLSOURCE_HSE_DIV_12        (RCC_CFGR_PLLSRC | RCC_CFGR2_PREDIV1_DIV12)   /*!< HSE/1
 420:C:/Users/nace/OneDrive/Desktop/STM32/Projects_nace/NUCLEO_LL_Project_LCD/STM32_NUCLEO_LL_Project_LCD_22_02_2025/Drivers/STM32F1xx_HAL_Driver/Inc\stm32f1xx_ll_rcc.h **** #define LL_RCC_PLLSOURCE_HSE_DIV_13        (RCC_CFGR_PLLSRC | RCC_CFGR2_PREDIV1_DIV13)   /*!< HSE/1
 421:C:/Users/nace/OneDrive/Desktop/STM32/Projects_nace/NUCLEO_LL_Project_LCD/STM32_NUCLEO_LL_Project_LCD_22_02_2025/Drivers/STM32F1xx_HAL_Driver/Inc\stm32f1xx_ll_rcc.h **** #define LL_RCC_PLLSOURCE_HSE_DIV_14        (RCC_CFGR_PLLSRC | RCC_CFGR2_PREDIV1_DIV14)   /*!< HSE/1
 422:C:/Users/nace/OneDrive/Desktop/STM32/Projects_nace/NUCLEO_LL_Project_LCD/STM32_NUCLEO_LL_Project_LCD_22_02_2025/Drivers/STM32F1xx_HAL_Driver/Inc\stm32f1xx_ll_rcc.h **** #define LL_RCC_PLLSOURCE_HSE_DIV_15        (RCC_CFGR_PLLSRC | RCC_CFGR2_PREDIV1_DIV15)   /*!< HSE/1
 423:C:/Users/nace/OneDrive/Desktop/STM32/Projects_nace/NUCLEO_LL_Project_LCD/STM32_NUCLEO_LL_Project_LCD_22_02_2025/Drivers/STM32F1xx_HAL_Driver/Inc\stm32f1xx_ll_rcc.h **** #define LL_RCC_PLLSOURCE_HSE_DIV_16        (RCC_CFGR_PLLSRC | RCC_CFGR2_PREDIV1_DIV16)   /*!< HSE/1
 424:C:/Users/nace/OneDrive/Desktop/STM32/Projects_nace/NUCLEO_LL_Project_LCD/STM32_NUCLEO_LL_Project_LCD_22_02_2025/Drivers/STM32F1xx_HAL_Driver/Inc\stm32f1xx_ll_rcc.h **** #if defined(RCC_CFGR2_PREDIV1SRC)
 425:C:/Users/nace/OneDrive/Desktop/STM32/Projects_nace/NUCLEO_LL_Project_LCD/STM32_NUCLEO_LL_Project_LCD_22_02_2025/Drivers/STM32F1xx_HAL_Driver/Inc\stm32f1xx_ll_rcc.h **** #define LL_RCC_PLLSOURCE_PLL2_DIV_1        (RCC_CFGR_PLLSRC | RCC_CFGR2_PREDIV1_DIV1 | RCC_CFGR2_PR
 426:C:/Users/nace/OneDrive/Desktop/STM32/Projects_nace/NUCLEO_LL_Project_LCD/STM32_NUCLEO_LL_Project_LCD_22_02_2025/Drivers/STM32F1xx_HAL_Driver/Inc\stm32f1xx_ll_rcc.h **** #define LL_RCC_PLLSOURCE_PLL2_DIV_2        (RCC_CFGR_PLLSRC | RCC_CFGR2_PREDIV1_DIV2 | RCC_CFGR2_PR
 427:C:/Users/nace/OneDrive/Desktop/STM32/Projects_nace/NUCLEO_LL_Project_LCD/STM32_NUCLEO_LL_Project_LCD_22_02_2025/Drivers/STM32F1xx_HAL_Driver/Inc\stm32f1xx_ll_rcc.h **** #define LL_RCC_PLLSOURCE_PLL2_DIV_3        (RCC_CFGR_PLLSRC | RCC_CFGR2_PREDIV1_DIV3 | RCC_CFGR2_PR
 428:C:/Users/nace/OneDrive/Desktop/STM32/Projects_nace/NUCLEO_LL_Project_LCD/STM32_NUCLEO_LL_Project_LCD_22_02_2025/Drivers/STM32F1xx_HAL_Driver/Inc\stm32f1xx_ll_rcc.h **** #define LL_RCC_PLLSOURCE_PLL2_DIV_4        (RCC_CFGR_PLLSRC | RCC_CFGR2_PREDIV1_DIV4 | RCC_CFGR2_PR
 429:C:/Users/nace/OneDrive/Desktop/STM32/Projects_nace/NUCLEO_LL_Project_LCD/STM32_NUCLEO_LL_Project_LCD_22_02_2025/Drivers/STM32F1xx_HAL_Driver/Inc\stm32f1xx_ll_rcc.h **** #define LL_RCC_PLLSOURCE_PLL2_DIV_5        (RCC_CFGR_PLLSRC | RCC_CFGR2_PREDIV1_DIV5 | RCC_CFGR2_PR
 430:C:/Users/nace/OneDrive/Desktop/STM32/Projects_nace/NUCLEO_LL_Project_LCD/STM32_NUCLEO_LL_Project_LCD_22_02_2025/Drivers/STM32F1xx_HAL_Driver/Inc\stm32f1xx_ll_rcc.h **** #define LL_RCC_PLLSOURCE_PLL2_DIV_6        (RCC_CFGR_PLLSRC | RCC_CFGR2_PREDIV1_DIV6 | RCC_CFGR2_PR
 431:C:/Users/nace/OneDrive/Desktop/STM32/Projects_nace/NUCLEO_LL_Project_LCD/STM32_NUCLEO_LL_Project_LCD_22_02_2025/Drivers/STM32F1xx_HAL_Driver/Inc\stm32f1xx_ll_rcc.h **** #define LL_RCC_PLLSOURCE_PLL2_DIV_7        (RCC_CFGR_PLLSRC | RCC_CFGR2_PREDIV1_DIV7 | RCC_CFGR2_PR
 432:C:/Users/nace/OneDrive/Desktop/STM32/Projects_nace/NUCLEO_LL_Project_LCD/STM32_NUCLEO_LL_Project_LCD_22_02_2025/Drivers/STM32F1xx_HAL_Driver/Inc\stm32f1xx_ll_rcc.h **** #define LL_RCC_PLLSOURCE_PLL2_DIV_8        (RCC_CFGR_PLLSRC | RCC_CFGR2_PREDIV1_DIV8 | RCC_CFGR2_PR
 433:C:/Users/nace/OneDrive/Desktop/STM32/Projects_nace/NUCLEO_LL_Project_LCD/STM32_NUCLEO_LL_Project_LCD_22_02_2025/Drivers/STM32F1xx_HAL_Driver/Inc\stm32f1xx_ll_rcc.h **** #define LL_RCC_PLLSOURCE_PLL2_DIV_9        (RCC_CFGR_PLLSRC | RCC_CFGR2_PREDIV1_DIV9 | RCC_CFGR2_PR
 434:C:/Users/nace/OneDrive/Desktop/STM32/Projects_nace/NUCLEO_LL_Project_LCD/STM32_NUCLEO_LL_Project_LCD_22_02_2025/Drivers/STM32F1xx_HAL_Driver/Inc\stm32f1xx_ll_rcc.h **** #define LL_RCC_PLLSOURCE_PLL2_DIV_10       (RCC_CFGR_PLLSRC | RCC_CFGR2_PREDIV1_DIV10 | RCC_CFGR2_P
 435:C:/Users/nace/OneDrive/Desktop/STM32/Projects_nace/NUCLEO_LL_Project_LCD/STM32_NUCLEO_LL_Project_LCD_22_02_2025/Drivers/STM32F1xx_HAL_Driver/Inc\stm32f1xx_ll_rcc.h **** #define LL_RCC_PLLSOURCE_PLL2_DIV_11       (RCC_CFGR_PLLSRC | RCC_CFGR2_PREDIV1_DIV11 | RCC_CFGR2_P
 436:C:/Users/nace/OneDrive/Desktop/STM32/Projects_nace/NUCLEO_LL_Project_LCD/STM32_NUCLEO_LL_Project_LCD_22_02_2025/Drivers/STM32F1xx_HAL_Driver/Inc\stm32f1xx_ll_rcc.h **** #define LL_RCC_PLLSOURCE_PLL2_DIV_12       (RCC_CFGR_PLLSRC | RCC_CFGR2_PREDIV1_DIV12 | RCC_CFGR2_P
 437:C:/Users/nace/OneDrive/Desktop/STM32/Projects_nace/NUCLEO_LL_Project_LCD/STM32_NUCLEO_LL_Project_LCD_22_02_2025/Drivers/STM32F1xx_HAL_Driver/Inc\stm32f1xx_ll_rcc.h **** #define LL_RCC_PLLSOURCE_PLL2_DIV_13       (RCC_CFGR_PLLSRC | RCC_CFGR2_PREDIV1_DIV13 | RCC_CFGR2_P
 438:C:/Users/nace/OneDrive/Desktop/STM32/Projects_nace/NUCLEO_LL_Project_LCD/STM32_NUCLEO_LL_Project_LCD_22_02_2025/Drivers/STM32F1xx_HAL_Driver/Inc\stm32f1xx_ll_rcc.h **** #define LL_RCC_PLLSOURCE_PLL2_DIV_14       (RCC_CFGR_PLLSRC | RCC_CFGR2_PREDIV1_DIV14 | RCC_CFGR2_P
 439:C:/Users/nace/OneDrive/Desktop/STM32/Projects_nace/NUCLEO_LL_Project_LCD/STM32_NUCLEO_LL_Project_LCD_22_02_2025/Drivers/STM32F1xx_HAL_Driver/Inc\stm32f1xx_ll_rcc.h **** #define LL_RCC_PLLSOURCE_PLL2_DIV_15       (RCC_CFGR_PLLSRC | RCC_CFGR2_PREDIV1_DIV15 | RCC_CFGR2_P
 440:C:/Users/nace/OneDrive/Desktop/STM32/Projects_nace/NUCLEO_LL_Project_LCD/STM32_NUCLEO_LL_Project_LCD_22_02_2025/Drivers/STM32F1xx_HAL_Driver/Inc\stm32f1xx_ll_rcc.h **** #define LL_RCC_PLLSOURCE_PLL2_DIV_16       (RCC_CFGR_PLLSRC | RCC_CFGR2_PREDIV1_DIV16 | RCC_CFGR2_P
 441:C:/Users/nace/OneDrive/Desktop/STM32/Projects_nace/NUCLEO_LL_Project_LCD/STM32_NUCLEO_LL_Project_LCD_22_02_2025/Drivers/STM32F1xx_HAL_Driver/Inc\stm32f1xx_ll_rcc.h **** #endif /*RCC_CFGR2_PREDIV1SRC*/
 442:C:/Users/nace/OneDrive/Desktop/STM32/Projects_nace/NUCLEO_LL_Project_LCD/STM32_NUCLEO_LL_Project_LCD_22_02_2025/Drivers/STM32F1xx_HAL_Driver/Inc\stm32f1xx_ll_rcc.h **** #else
 443:C:/Users/nace/OneDrive/Desktop/STM32/Projects_nace/NUCLEO_LL_Project_LCD/STM32_NUCLEO_LL_Project_LCD_22_02_2025/Drivers/STM32F1xx_HAL_Driver/Inc\stm32f1xx_ll_rcc.h **** #define LL_RCC_PLLSOURCE_HSE_DIV_1         (RCC_CFGR_PLLSRC | 0x00000000U)               /*!< HSE/1
 444:C:/Users/nace/OneDrive/Desktop/STM32/Projects_nace/NUCLEO_LL_Project_LCD/STM32_NUCLEO_LL_Project_LCD_22_02_2025/Drivers/STM32F1xx_HAL_Driver/Inc\stm32f1xx_ll_rcc.h **** #define LL_RCC_PLLSOURCE_HSE_DIV_2         (RCC_CFGR_PLLSRC | RCC_CFGR_PLLXTPRE)         /*!< HSE/2
 445:C:/Users/nace/OneDrive/Desktop/STM32/Projects_nace/NUCLEO_LL_Project_LCD/STM32_NUCLEO_LL_Project_LCD_22_02_2025/Drivers/STM32F1xx_HAL_Driver/Inc\stm32f1xx_ll_rcc.h **** #endif /*RCC_CFGR2_PREDIV1*/
 446:C:/Users/nace/OneDrive/Desktop/STM32/Projects_nace/NUCLEO_LL_Project_LCD/STM32_NUCLEO_LL_Project_LCD_22_02_2025/Drivers/STM32F1xx_HAL_Driver/Inc\stm32f1xx_ll_rcc.h **** /**
 447:C:/Users/nace/OneDrive/Desktop/STM32/Projects_nace/NUCLEO_LL_Project_LCD/STM32_NUCLEO_LL_Project_LCD_22_02_2025/Drivers/STM32F1xx_HAL_Driver/Inc\stm32f1xx_ll_rcc.h ****   * @}
 448:C:/Users/nace/OneDrive/Desktop/STM32/Projects_nace/NUCLEO_LL_Project_LCD/STM32_NUCLEO_LL_Project_LCD_22_02_2025/Drivers/STM32F1xx_HAL_Driver/Inc\stm32f1xx_ll_rcc.h ****   */
 449:C:/Users/nace/OneDrive/Desktop/STM32/Projects_nace/NUCLEO_LL_Project_LCD/STM32_NUCLEO_LL_Project_LCD_22_02_2025/Drivers/STM32F1xx_HAL_Driver/Inc\stm32f1xx_ll_rcc.h **** 
 450:C:/Users/nace/OneDrive/Desktop/STM32/Projects_nace/NUCLEO_LL_Project_LCD/STM32_NUCLEO_LL_Project_LCD_22_02_2025/Drivers/STM32F1xx_HAL_Driver/Inc\stm32f1xx_ll_rcc.h **** /** @defgroup RCC_LL_EC_PREDIV_DIV PREDIV Division factor
 451:C:/Users/nace/OneDrive/Desktop/STM32/Projects_nace/NUCLEO_LL_Project_LCD/STM32_NUCLEO_LL_Project_LCD_22_02_2025/Drivers/STM32F1xx_HAL_Driver/Inc\stm32f1xx_ll_rcc.h ****   * @{
 452:C:/Users/nace/OneDrive/Desktop/STM32/Projects_nace/NUCLEO_LL_Project_LCD/STM32_NUCLEO_LL_Project_LCD_22_02_2025/Drivers/STM32F1xx_HAL_Driver/Inc\stm32f1xx_ll_rcc.h ****   */
 453:C:/Users/nace/OneDrive/Desktop/STM32/Projects_nace/NUCLEO_LL_Project_LCD/STM32_NUCLEO_LL_Project_LCD_22_02_2025/Drivers/STM32F1xx_HAL_Driver/Inc\stm32f1xx_ll_rcc.h **** #if defined(RCC_CFGR2_PREDIV1)
 454:C:/Users/nace/OneDrive/Desktop/STM32/Projects_nace/NUCLEO_LL_Project_LCD/STM32_NUCLEO_LL_Project_LCD_22_02_2025/Drivers/STM32F1xx_HAL_Driver/Inc\stm32f1xx_ll_rcc.h **** #define LL_RCC_PREDIV_DIV_1                RCC_CFGR2_PREDIV1_DIV1   /*!< PREDIV1 input clock not di
 455:C:/Users/nace/OneDrive/Desktop/STM32/Projects_nace/NUCLEO_LL_Project_LCD/STM32_NUCLEO_LL_Project_LCD_22_02_2025/Drivers/STM32F1xx_HAL_Driver/Inc\stm32f1xx_ll_rcc.h **** #define LL_RCC_PREDIV_DIV_2                RCC_CFGR2_PREDIV1_DIV2   /*!< PREDIV1 input clock divide
 456:C:/Users/nace/OneDrive/Desktop/STM32/Projects_nace/NUCLEO_LL_Project_LCD/STM32_NUCLEO_LL_Project_LCD_22_02_2025/Drivers/STM32F1xx_HAL_Driver/Inc\stm32f1xx_ll_rcc.h **** #define LL_RCC_PREDIV_DIV_3                RCC_CFGR2_PREDIV1_DIV3   /*!< PREDIV1 input clock divide
 457:C:/Users/nace/OneDrive/Desktop/STM32/Projects_nace/NUCLEO_LL_Project_LCD/STM32_NUCLEO_LL_Project_LCD_22_02_2025/Drivers/STM32F1xx_HAL_Driver/Inc\stm32f1xx_ll_rcc.h **** #define LL_RCC_PREDIV_DIV_4                RCC_CFGR2_PREDIV1_DIV4   /*!< PREDIV1 input clock divide
 458:C:/Users/nace/OneDrive/Desktop/STM32/Projects_nace/NUCLEO_LL_Project_LCD/STM32_NUCLEO_LL_Project_LCD_22_02_2025/Drivers/STM32F1xx_HAL_Driver/Inc\stm32f1xx_ll_rcc.h **** #define LL_RCC_PREDIV_DIV_5                RCC_CFGR2_PREDIV1_DIV5   /*!< PREDIV1 input clock divide
 459:C:/Users/nace/OneDrive/Desktop/STM32/Projects_nace/NUCLEO_LL_Project_LCD/STM32_NUCLEO_LL_Project_LCD_22_02_2025/Drivers/STM32F1xx_HAL_Driver/Inc\stm32f1xx_ll_rcc.h **** #define LL_RCC_PREDIV_DIV_6                RCC_CFGR2_PREDIV1_DIV6   /*!< PREDIV1 input clock divide
 460:C:/Users/nace/OneDrive/Desktop/STM32/Projects_nace/NUCLEO_LL_Project_LCD/STM32_NUCLEO_LL_Project_LCD_22_02_2025/Drivers/STM32F1xx_HAL_Driver/Inc\stm32f1xx_ll_rcc.h **** #define LL_RCC_PREDIV_DIV_7                RCC_CFGR2_PREDIV1_DIV7   /*!< PREDIV1 input clock divide
 461:C:/Users/nace/OneDrive/Desktop/STM32/Projects_nace/NUCLEO_LL_Project_LCD/STM32_NUCLEO_LL_Project_LCD_22_02_2025/Drivers/STM32F1xx_HAL_Driver/Inc\stm32f1xx_ll_rcc.h **** #define LL_RCC_PREDIV_DIV_8                RCC_CFGR2_PREDIV1_DIV8   /*!< PREDIV1 input clock divide
 462:C:/Users/nace/OneDrive/Desktop/STM32/Projects_nace/NUCLEO_LL_Project_LCD/STM32_NUCLEO_LL_Project_LCD_22_02_2025/Drivers/STM32F1xx_HAL_Driver/Inc\stm32f1xx_ll_rcc.h **** #define LL_RCC_PREDIV_DIV_9                RCC_CFGR2_PREDIV1_DIV9   /*!< PREDIV1 input clock divide
 463:C:/Users/nace/OneDrive/Desktop/STM32/Projects_nace/NUCLEO_LL_Project_LCD/STM32_NUCLEO_LL_Project_LCD_22_02_2025/Drivers/STM32F1xx_HAL_Driver/Inc\stm32f1xx_ll_rcc.h **** #define LL_RCC_PREDIV_DIV_10               RCC_CFGR2_PREDIV1_DIV10  /*!< PREDIV1 input clock divide
 464:C:/Users/nace/OneDrive/Desktop/STM32/Projects_nace/NUCLEO_LL_Project_LCD/STM32_NUCLEO_LL_Project_LCD_22_02_2025/Drivers/STM32F1xx_HAL_Driver/Inc\stm32f1xx_ll_rcc.h **** #define LL_RCC_PREDIV_DIV_11               RCC_CFGR2_PREDIV1_DIV11  /*!< PREDIV1 input clock divide
 465:C:/Users/nace/OneDrive/Desktop/STM32/Projects_nace/NUCLEO_LL_Project_LCD/STM32_NUCLEO_LL_Project_LCD_22_02_2025/Drivers/STM32F1xx_HAL_Driver/Inc\stm32f1xx_ll_rcc.h **** #define LL_RCC_PREDIV_DIV_12               RCC_CFGR2_PREDIV1_DIV12  /*!< PREDIV1 input clock divide
 466:C:/Users/nace/OneDrive/Desktop/STM32/Projects_nace/NUCLEO_LL_Project_LCD/STM32_NUCLEO_LL_Project_LCD_22_02_2025/Drivers/STM32F1xx_HAL_Driver/Inc\stm32f1xx_ll_rcc.h **** #define LL_RCC_PREDIV_DIV_13               RCC_CFGR2_PREDIV1_DIV13  /*!< PREDIV1 input clock divide
 467:C:/Users/nace/OneDrive/Desktop/STM32/Projects_nace/NUCLEO_LL_Project_LCD/STM32_NUCLEO_LL_Project_LCD_22_02_2025/Drivers/STM32F1xx_HAL_Driver/Inc\stm32f1xx_ll_rcc.h **** #define LL_RCC_PREDIV_DIV_14               RCC_CFGR2_PREDIV1_DIV14  /*!< PREDIV1 input clock divide
 468:C:/Users/nace/OneDrive/Desktop/STM32/Projects_nace/NUCLEO_LL_Project_LCD/STM32_NUCLEO_LL_Project_LCD_22_02_2025/Drivers/STM32F1xx_HAL_Driver/Inc\stm32f1xx_ll_rcc.h **** #define LL_RCC_PREDIV_DIV_15               RCC_CFGR2_PREDIV1_DIV15  /*!< PREDIV1 input clock divide
 469:C:/Users/nace/OneDrive/Desktop/STM32/Projects_nace/NUCLEO_LL_Project_LCD/STM32_NUCLEO_LL_Project_LCD_22_02_2025/Drivers/STM32F1xx_HAL_Driver/Inc\stm32f1xx_ll_rcc.h **** #define LL_RCC_PREDIV_DIV_16               RCC_CFGR2_PREDIV1_DIV16  /*!< PREDIV1 input clock divide
 470:C:/Users/nace/OneDrive/Desktop/STM32/Projects_nace/NUCLEO_LL_Project_LCD/STM32_NUCLEO_LL_Project_LCD_22_02_2025/Drivers/STM32F1xx_HAL_Driver/Inc\stm32f1xx_ll_rcc.h **** #else
 471:C:/Users/nace/OneDrive/Desktop/STM32/Projects_nace/NUCLEO_LL_Project_LCD/STM32_NUCLEO_LL_Project_LCD_22_02_2025/Drivers/STM32F1xx_HAL_Driver/Inc\stm32f1xx_ll_rcc.h **** #define LL_RCC_PREDIV_DIV_1                0x00000000U              /*!< HSE divider clock clock no
 472:C:/Users/nace/OneDrive/Desktop/STM32/Projects_nace/NUCLEO_LL_Project_LCD/STM32_NUCLEO_LL_Project_LCD_22_02_2025/Drivers/STM32F1xx_HAL_Driver/Inc\stm32f1xx_ll_rcc.h **** #define LL_RCC_PREDIV_DIV_2                RCC_CFGR_PLLXTPRE        /*!< HSE divider clock divided 
 473:C:/Users/nace/OneDrive/Desktop/STM32/Projects_nace/NUCLEO_LL_Project_LCD/STM32_NUCLEO_LL_Project_LCD_22_02_2025/Drivers/STM32F1xx_HAL_Driver/Inc\stm32f1xx_ll_rcc.h **** #endif /*RCC_CFGR2_PREDIV1*/
 474:C:/Users/nace/OneDrive/Desktop/STM32/Projects_nace/NUCLEO_LL_Project_LCD/STM32_NUCLEO_LL_Project_LCD_22_02_2025/Drivers/STM32F1xx_HAL_Driver/Inc\stm32f1xx_ll_rcc.h **** /**
 475:C:/Users/nace/OneDrive/Desktop/STM32/Projects_nace/NUCLEO_LL_Project_LCD/STM32_NUCLEO_LL_Project_LCD_22_02_2025/Drivers/STM32F1xx_HAL_Driver/Inc\stm32f1xx_ll_rcc.h ****   * @}
 476:C:/Users/nace/OneDrive/Desktop/STM32/Projects_nace/NUCLEO_LL_Project_LCD/STM32_NUCLEO_LL_Project_LCD_22_02_2025/Drivers/STM32F1xx_HAL_Driver/Inc\stm32f1xx_ll_rcc.h ****   */
 477:C:/Users/nace/OneDrive/Desktop/STM32/Projects_nace/NUCLEO_LL_Project_LCD/STM32_NUCLEO_LL_Project_LCD_22_02_2025/Drivers/STM32F1xx_HAL_Driver/Inc\stm32f1xx_ll_rcc.h **** 
 478:C:/Users/nace/OneDrive/Desktop/STM32/Projects_nace/NUCLEO_LL_Project_LCD/STM32_NUCLEO_LL_Project_LCD_22_02_2025/Drivers/STM32F1xx_HAL_Driver/Inc\stm32f1xx_ll_rcc.h **** #if defined(RCC_PLLI2S_SUPPORT)
 479:C:/Users/nace/OneDrive/Desktop/STM32/Projects_nace/NUCLEO_LL_Project_LCD/STM32_NUCLEO_LL_Project_LCD_22_02_2025/Drivers/STM32F1xx_HAL_Driver/Inc\stm32f1xx_ll_rcc.h **** /** @defgroup RCC_LL_EC_PLLI2S_MUL PLLI2S MUL
 480:C:/Users/nace/OneDrive/Desktop/STM32/Projects_nace/NUCLEO_LL_Project_LCD/STM32_NUCLEO_LL_Project_LCD_22_02_2025/Drivers/STM32F1xx_HAL_Driver/Inc\stm32f1xx_ll_rcc.h ****   * @{
 481:C:/Users/nace/OneDrive/Desktop/STM32/Projects_nace/NUCLEO_LL_Project_LCD/STM32_NUCLEO_LL_Project_LCD_22_02_2025/Drivers/STM32F1xx_HAL_Driver/Inc\stm32f1xx_ll_rcc.h ****   */
 482:C:/Users/nace/OneDrive/Desktop/STM32/Projects_nace/NUCLEO_LL_Project_LCD/STM32_NUCLEO_LL_Project_LCD_22_02_2025/Drivers/STM32F1xx_HAL_Driver/Inc\stm32f1xx_ll_rcc.h **** #define LL_RCC_PLLI2S_MUL_8                RCC_CFGR2_PLL3MUL8   /*!< PLLI2S input clock * 8 */
 483:C:/Users/nace/OneDrive/Desktop/STM32/Projects_nace/NUCLEO_LL_Project_LCD/STM32_NUCLEO_LL_Project_LCD_22_02_2025/Drivers/STM32F1xx_HAL_Driver/Inc\stm32f1xx_ll_rcc.h **** #define LL_RCC_PLLI2S_MUL_9                RCC_CFGR2_PLL3MUL9   /*!< PLLI2S input clock * 9 */
 484:C:/Users/nace/OneDrive/Desktop/STM32/Projects_nace/NUCLEO_LL_Project_LCD/STM32_NUCLEO_LL_Project_LCD_22_02_2025/Drivers/STM32F1xx_HAL_Driver/Inc\stm32f1xx_ll_rcc.h **** #define LL_RCC_PLLI2S_MUL_10               RCC_CFGR2_PLL3MUL10  /*!< PLLI2S input clock * 10 */
 485:C:/Users/nace/OneDrive/Desktop/STM32/Projects_nace/NUCLEO_LL_Project_LCD/STM32_NUCLEO_LL_Project_LCD_22_02_2025/Drivers/STM32F1xx_HAL_Driver/Inc\stm32f1xx_ll_rcc.h **** #define LL_RCC_PLLI2S_MUL_11               RCC_CFGR2_PLL3MUL11  /*!< PLLI2S input clock * 11 */
 486:C:/Users/nace/OneDrive/Desktop/STM32/Projects_nace/NUCLEO_LL_Project_LCD/STM32_NUCLEO_LL_Project_LCD_22_02_2025/Drivers/STM32F1xx_HAL_Driver/Inc\stm32f1xx_ll_rcc.h **** #define LL_RCC_PLLI2S_MUL_12               RCC_CFGR2_PLL3MUL12  /*!< PLLI2S input clock * 12 */
 487:C:/Users/nace/OneDrive/Desktop/STM32/Projects_nace/NUCLEO_LL_Project_LCD/STM32_NUCLEO_LL_Project_LCD_22_02_2025/Drivers/STM32F1xx_HAL_Driver/Inc\stm32f1xx_ll_rcc.h **** #define LL_RCC_PLLI2S_MUL_13               RCC_CFGR2_PLL3MUL13  /*!< PLLI2S input clock * 13 */
 488:C:/Users/nace/OneDrive/Desktop/STM32/Projects_nace/NUCLEO_LL_Project_LCD/STM32_NUCLEO_LL_Project_LCD_22_02_2025/Drivers/STM32F1xx_HAL_Driver/Inc\stm32f1xx_ll_rcc.h **** #define LL_RCC_PLLI2S_MUL_14               RCC_CFGR2_PLL3MUL14  /*!< PLLI2S input clock * 14 */
 489:C:/Users/nace/OneDrive/Desktop/STM32/Projects_nace/NUCLEO_LL_Project_LCD/STM32_NUCLEO_LL_Project_LCD_22_02_2025/Drivers/STM32F1xx_HAL_Driver/Inc\stm32f1xx_ll_rcc.h **** #define LL_RCC_PLLI2S_MUL_16               RCC_CFGR2_PLL3MUL16  /*!< PLLI2S input clock * 16 */
 490:C:/Users/nace/OneDrive/Desktop/STM32/Projects_nace/NUCLEO_LL_Project_LCD/STM32_NUCLEO_LL_Project_LCD_22_02_2025/Drivers/STM32F1xx_HAL_Driver/Inc\stm32f1xx_ll_rcc.h **** #define LL_RCC_PLLI2S_MUL_20               RCC_CFGR2_PLL3MUL20  /*!< PLLI2S input clock * 20 */
 491:C:/Users/nace/OneDrive/Desktop/STM32/Projects_nace/NUCLEO_LL_Project_LCD/STM32_NUCLEO_LL_Project_LCD_22_02_2025/Drivers/STM32F1xx_HAL_Driver/Inc\stm32f1xx_ll_rcc.h **** /**
 492:C:/Users/nace/OneDrive/Desktop/STM32/Projects_nace/NUCLEO_LL_Project_LCD/STM32_NUCLEO_LL_Project_LCD_22_02_2025/Drivers/STM32F1xx_HAL_Driver/Inc\stm32f1xx_ll_rcc.h ****   * @}
 493:C:/Users/nace/OneDrive/Desktop/STM32/Projects_nace/NUCLEO_LL_Project_LCD/STM32_NUCLEO_LL_Project_LCD_22_02_2025/Drivers/STM32F1xx_HAL_Driver/Inc\stm32f1xx_ll_rcc.h ****   */
 494:C:/Users/nace/OneDrive/Desktop/STM32/Projects_nace/NUCLEO_LL_Project_LCD/STM32_NUCLEO_LL_Project_LCD_22_02_2025/Drivers/STM32F1xx_HAL_Driver/Inc\stm32f1xx_ll_rcc.h **** 
 495:C:/Users/nace/OneDrive/Desktop/STM32/Projects_nace/NUCLEO_LL_Project_LCD/STM32_NUCLEO_LL_Project_LCD_22_02_2025/Drivers/STM32F1xx_HAL_Driver/Inc\stm32f1xx_ll_rcc.h **** #endif /* RCC_PLLI2S_SUPPORT */
 496:C:/Users/nace/OneDrive/Desktop/STM32/Projects_nace/NUCLEO_LL_Project_LCD/STM32_NUCLEO_LL_Project_LCD_22_02_2025/Drivers/STM32F1xx_HAL_Driver/Inc\stm32f1xx_ll_rcc.h **** 
 497:C:/Users/nace/OneDrive/Desktop/STM32/Projects_nace/NUCLEO_LL_Project_LCD/STM32_NUCLEO_LL_Project_LCD_22_02_2025/Drivers/STM32F1xx_HAL_Driver/Inc\stm32f1xx_ll_rcc.h **** #if defined(RCC_PLL2_SUPPORT)
 498:C:/Users/nace/OneDrive/Desktop/STM32/Projects_nace/NUCLEO_LL_Project_LCD/STM32_NUCLEO_LL_Project_LCD_22_02_2025/Drivers/STM32F1xx_HAL_Driver/Inc\stm32f1xx_ll_rcc.h **** /** @defgroup RCC_LL_EC_PLL2_MUL PLL2 MUL
 499:C:/Users/nace/OneDrive/Desktop/STM32/Projects_nace/NUCLEO_LL_Project_LCD/STM32_NUCLEO_LL_Project_LCD_22_02_2025/Drivers/STM32F1xx_HAL_Driver/Inc\stm32f1xx_ll_rcc.h ****   * @{
 500:C:/Users/nace/OneDrive/Desktop/STM32/Projects_nace/NUCLEO_LL_Project_LCD/STM32_NUCLEO_LL_Project_LCD_22_02_2025/Drivers/STM32F1xx_HAL_Driver/Inc\stm32f1xx_ll_rcc.h ****   */
 501:C:/Users/nace/OneDrive/Desktop/STM32/Projects_nace/NUCLEO_LL_Project_LCD/STM32_NUCLEO_LL_Project_LCD_22_02_2025/Drivers/STM32F1xx_HAL_Driver/Inc\stm32f1xx_ll_rcc.h **** #define LL_RCC_PLL2_MUL_8                  RCC_CFGR2_PLL2MUL8   /*!< PLL2 input clock * 8 */
 502:C:/Users/nace/OneDrive/Desktop/STM32/Projects_nace/NUCLEO_LL_Project_LCD/STM32_NUCLEO_LL_Project_LCD_22_02_2025/Drivers/STM32F1xx_HAL_Driver/Inc\stm32f1xx_ll_rcc.h **** #define LL_RCC_PLL2_MUL_9                  RCC_CFGR2_PLL2MUL9   /*!< PLL2 input clock * 9 */
 503:C:/Users/nace/OneDrive/Desktop/STM32/Projects_nace/NUCLEO_LL_Project_LCD/STM32_NUCLEO_LL_Project_LCD_22_02_2025/Drivers/STM32F1xx_HAL_Driver/Inc\stm32f1xx_ll_rcc.h **** #define LL_RCC_PLL2_MUL_10                 RCC_CFGR2_PLL2MUL10  /*!< PLL2 input clock * 10 */
 504:C:/Users/nace/OneDrive/Desktop/STM32/Projects_nace/NUCLEO_LL_Project_LCD/STM32_NUCLEO_LL_Project_LCD_22_02_2025/Drivers/STM32F1xx_HAL_Driver/Inc\stm32f1xx_ll_rcc.h **** #define LL_RCC_PLL2_MUL_11                 RCC_CFGR2_PLL2MUL11  /*!< PLL2 input clock * 11 */
 505:C:/Users/nace/OneDrive/Desktop/STM32/Projects_nace/NUCLEO_LL_Project_LCD/STM32_NUCLEO_LL_Project_LCD_22_02_2025/Drivers/STM32F1xx_HAL_Driver/Inc\stm32f1xx_ll_rcc.h **** #define LL_RCC_PLL2_MUL_12                 RCC_CFGR2_PLL2MUL12  /*!< PLL2 input clock * 12 */
 506:C:/Users/nace/OneDrive/Desktop/STM32/Projects_nace/NUCLEO_LL_Project_LCD/STM32_NUCLEO_LL_Project_LCD_22_02_2025/Drivers/STM32F1xx_HAL_Driver/Inc\stm32f1xx_ll_rcc.h **** #define LL_RCC_PLL2_MUL_13                 RCC_CFGR2_PLL2MUL13  /*!< PLL2 input clock * 13 */
 507:C:/Users/nace/OneDrive/Desktop/STM32/Projects_nace/NUCLEO_LL_Project_LCD/STM32_NUCLEO_LL_Project_LCD_22_02_2025/Drivers/STM32F1xx_HAL_Driver/Inc\stm32f1xx_ll_rcc.h **** #define LL_RCC_PLL2_MUL_14                 RCC_CFGR2_PLL2MUL14  /*!< PLL2 input clock * 14 */
 508:C:/Users/nace/OneDrive/Desktop/STM32/Projects_nace/NUCLEO_LL_Project_LCD/STM32_NUCLEO_LL_Project_LCD_22_02_2025/Drivers/STM32F1xx_HAL_Driver/Inc\stm32f1xx_ll_rcc.h **** #define LL_RCC_PLL2_MUL_16                 RCC_CFGR2_PLL2MUL16  /*!< PLL2 input clock * 16 */
 509:C:/Users/nace/OneDrive/Desktop/STM32/Projects_nace/NUCLEO_LL_Project_LCD/STM32_NUCLEO_LL_Project_LCD_22_02_2025/Drivers/STM32F1xx_HAL_Driver/Inc\stm32f1xx_ll_rcc.h **** #define LL_RCC_PLL2_MUL_20                 RCC_CFGR2_PLL2MUL20  /*!< PLL2 input clock * 20 */
 510:C:/Users/nace/OneDrive/Desktop/STM32/Projects_nace/NUCLEO_LL_Project_LCD/STM32_NUCLEO_LL_Project_LCD_22_02_2025/Drivers/STM32F1xx_HAL_Driver/Inc\stm32f1xx_ll_rcc.h **** /**
 511:C:/Users/nace/OneDrive/Desktop/STM32/Projects_nace/NUCLEO_LL_Project_LCD/STM32_NUCLEO_LL_Project_LCD_22_02_2025/Drivers/STM32F1xx_HAL_Driver/Inc\stm32f1xx_ll_rcc.h ****   * @}
 512:C:/Users/nace/OneDrive/Desktop/STM32/Projects_nace/NUCLEO_LL_Project_LCD/STM32_NUCLEO_LL_Project_LCD_22_02_2025/Drivers/STM32F1xx_HAL_Driver/Inc\stm32f1xx_ll_rcc.h ****   */
 513:C:/Users/nace/OneDrive/Desktop/STM32/Projects_nace/NUCLEO_LL_Project_LCD/STM32_NUCLEO_LL_Project_LCD_22_02_2025/Drivers/STM32F1xx_HAL_Driver/Inc\stm32f1xx_ll_rcc.h **** 
 514:C:/Users/nace/OneDrive/Desktop/STM32/Projects_nace/NUCLEO_LL_Project_LCD/STM32_NUCLEO_LL_Project_LCD_22_02_2025/Drivers/STM32F1xx_HAL_Driver/Inc\stm32f1xx_ll_rcc.h **** #endif /* RCC_PLL2_SUPPORT */
 515:C:/Users/nace/OneDrive/Desktop/STM32/Projects_nace/NUCLEO_LL_Project_LCD/STM32_NUCLEO_LL_Project_LCD_22_02_2025/Drivers/STM32F1xx_HAL_Driver/Inc\stm32f1xx_ll_rcc.h **** 
 516:C:/Users/nace/OneDrive/Desktop/STM32/Projects_nace/NUCLEO_LL_Project_LCD/STM32_NUCLEO_LL_Project_LCD_22_02_2025/Drivers/STM32F1xx_HAL_Driver/Inc\stm32f1xx_ll_rcc.h **** /**
 517:C:/Users/nace/OneDrive/Desktop/STM32/Projects_nace/NUCLEO_LL_Project_LCD/STM32_NUCLEO_LL_Project_LCD_22_02_2025/Drivers/STM32F1xx_HAL_Driver/Inc\stm32f1xx_ll_rcc.h ****   * @}
 518:C:/Users/nace/OneDrive/Desktop/STM32/Projects_nace/NUCLEO_LL_Project_LCD/STM32_NUCLEO_LL_Project_LCD_22_02_2025/Drivers/STM32F1xx_HAL_Driver/Inc\stm32f1xx_ll_rcc.h ****   */
 519:C:/Users/nace/OneDrive/Desktop/STM32/Projects_nace/NUCLEO_LL_Project_LCD/STM32_NUCLEO_LL_Project_LCD_22_02_2025/Drivers/STM32F1xx_HAL_Driver/Inc\stm32f1xx_ll_rcc.h **** 
 520:C:/Users/nace/OneDrive/Desktop/STM32/Projects_nace/NUCLEO_LL_Project_LCD/STM32_NUCLEO_LL_Project_LCD_22_02_2025/Drivers/STM32F1xx_HAL_Driver/Inc\stm32f1xx_ll_rcc.h **** /* Exported macro ------------------------------------------------------------*/
 521:C:/Users/nace/OneDrive/Desktop/STM32/Projects_nace/NUCLEO_LL_Project_LCD/STM32_NUCLEO_LL_Project_LCD_22_02_2025/Drivers/STM32F1xx_HAL_Driver/Inc\stm32f1xx_ll_rcc.h **** /** @defgroup RCC_LL_Exported_Macros RCC Exported Macros
 522:C:/Users/nace/OneDrive/Desktop/STM32/Projects_nace/NUCLEO_LL_Project_LCD/STM32_NUCLEO_LL_Project_LCD_22_02_2025/Drivers/STM32F1xx_HAL_Driver/Inc\stm32f1xx_ll_rcc.h ****   * @{
 523:C:/Users/nace/OneDrive/Desktop/STM32/Projects_nace/NUCLEO_LL_Project_LCD/STM32_NUCLEO_LL_Project_LCD_22_02_2025/Drivers/STM32F1xx_HAL_Driver/Inc\stm32f1xx_ll_rcc.h ****   */
 524:C:/Users/nace/OneDrive/Desktop/STM32/Projects_nace/NUCLEO_LL_Project_LCD/STM32_NUCLEO_LL_Project_LCD_22_02_2025/Drivers/STM32F1xx_HAL_Driver/Inc\stm32f1xx_ll_rcc.h **** 
 525:C:/Users/nace/OneDrive/Desktop/STM32/Projects_nace/NUCLEO_LL_Project_LCD/STM32_NUCLEO_LL_Project_LCD_22_02_2025/Drivers/STM32F1xx_HAL_Driver/Inc\stm32f1xx_ll_rcc.h **** /** @defgroup RCC_LL_EM_WRITE_READ Common Write and read registers Macros
 526:C:/Users/nace/OneDrive/Desktop/STM32/Projects_nace/NUCLEO_LL_Project_LCD/STM32_NUCLEO_LL_Project_LCD_22_02_2025/Drivers/STM32F1xx_HAL_Driver/Inc\stm32f1xx_ll_rcc.h ****   * @{
 527:C:/Users/nace/OneDrive/Desktop/STM32/Projects_nace/NUCLEO_LL_Project_LCD/STM32_NUCLEO_LL_Project_LCD_22_02_2025/Drivers/STM32F1xx_HAL_Driver/Inc\stm32f1xx_ll_rcc.h ****   */
 528:C:/Users/nace/OneDrive/Desktop/STM32/Projects_nace/NUCLEO_LL_Project_LCD/STM32_NUCLEO_LL_Project_LCD_22_02_2025/Drivers/STM32F1xx_HAL_Driver/Inc\stm32f1xx_ll_rcc.h **** 
 529:C:/Users/nace/OneDrive/Desktop/STM32/Projects_nace/NUCLEO_LL_Project_LCD/STM32_NUCLEO_LL_Project_LCD_22_02_2025/Drivers/STM32F1xx_HAL_Driver/Inc\stm32f1xx_ll_rcc.h **** /**
 530:C:/Users/nace/OneDrive/Desktop/STM32/Projects_nace/NUCLEO_LL_Project_LCD/STM32_NUCLEO_LL_Project_LCD_22_02_2025/Drivers/STM32F1xx_HAL_Driver/Inc\stm32f1xx_ll_rcc.h ****   * @brief  Write a value in RCC register
 531:C:/Users/nace/OneDrive/Desktop/STM32/Projects_nace/NUCLEO_LL_Project_LCD/STM32_NUCLEO_LL_Project_LCD_22_02_2025/Drivers/STM32F1xx_HAL_Driver/Inc\stm32f1xx_ll_rcc.h ****   * @param  __REG__ Register to be written
 532:C:/Users/nace/OneDrive/Desktop/STM32/Projects_nace/NUCLEO_LL_Project_LCD/STM32_NUCLEO_LL_Project_LCD_22_02_2025/Drivers/STM32F1xx_HAL_Driver/Inc\stm32f1xx_ll_rcc.h ****   * @param  __VALUE__ Value to be written in the register
 533:C:/Users/nace/OneDrive/Desktop/STM32/Projects_nace/NUCLEO_LL_Project_LCD/STM32_NUCLEO_LL_Project_LCD_22_02_2025/Drivers/STM32F1xx_HAL_Driver/Inc\stm32f1xx_ll_rcc.h ****   * @retval None
 534:C:/Users/nace/OneDrive/Desktop/STM32/Projects_nace/NUCLEO_LL_Project_LCD/STM32_NUCLEO_LL_Project_LCD_22_02_2025/Drivers/STM32F1xx_HAL_Driver/Inc\stm32f1xx_ll_rcc.h ****   */
 535:C:/Users/nace/OneDrive/Desktop/STM32/Projects_nace/NUCLEO_LL_Project_LCD/STM32_NUCLEO_LL_Project_LCD_22_02_2025/Drivers/STM32F1xx_HAL_Driver/Inc\stm32f1xx_ll_rcc.h **** #define LL_RCC_WriteReg(__REG__, __VALUE__) WRITE_REG(RCC->__REG__, (__VALUE__))
 536:C:/Users/nace/OneDrive/Desktop/STM32/Projects_nace/NUCLEO_LL_Project_LCD/STM32_NUCLEO_LL_Project_LCD_22_02_2025/Drivers/STM32F1xx_HAL_Driver/Inc\stm32f1xx_ll_rcc.h **** 
 537:C:/Users/nace/OneDrive/Desktop/STM32/Projects_nace/NUCLEO_LL_Project_LCD/STM32_NUCLEO_LL_Project_LCD_22_02_2025/Drivers/STM32F1xx_HAL_Driver/Inc\stm32f1xx_ll_rcc.h **** /**
 538:C:/Users/nace/OneDrive/Desktop/STM32/Projects_nace/NUCLEO_LL_Project_LCD/STM32_NUCLEO_LL_Project_LCD_22_02_2025/Drivers/STM32F1xx_HAL_Driver/Inc\stm32f1xx_ll_rcc.h ****   * @brief  Read a value in RCC register
 539:C:/Users/nace/OneDrive/Desktop/STM32/Projects_nace/NUCLEO_LL_Project_LCD/STM32_NUCLEO_LL_Project_LCD_22_02_2025/Drivers/STM32F1xx_HAL_Driver/Inc\stm32f1xx_ll_rcc.h ****   * @param  __REG__ Register to be read
 540:C:/Users/nace/OneDrive/Desktop/STM32/Projects_nace/NUCLEO_LL_Project_LCD/STM32_NUCLEO_LL_Project_LCD_22_02_2025/Drivers/STM32F1xx_HAL_Driver/Inc\stm32f1xx_ll_rcc.h ****   * @retval Register value
 541:C:/Users/nace/OneDrive/Desktop/STM32/Projects_nace/NUCLEO_LL_Project_LCD/STM32_NUCLEO_LL_Project_LCD_22_02_2025/Drivers/STM32F1xx_HAL_Driver/Inc\stm32f1xx_ll_rcc.h ****   */
 542:C:/Users/nace/OneDrive/Desktop/STM32/Projects_nace/NUCLEO_LL_Project_LCD/STM32_NUCLEO_LL_Project_LCD_22_02_2025/Drivers/STM32F1xx_HAL_Driver/Inc\stm32f1xx_ll_rcc.h **** #define LL_RCC_ReadReg(__REG__) READ_REG(RCC->__REG__)
 543:C:/Users/nace/OneDrive/Desktop/STM32/Projects_nace/NUCLEO_LL_Project_LCD/STM32_NUCLEO_LL_Project_LCD_22_02_2025/Drivers/STM32F1xx_HAL_Driver/Inc\stm32f1xx_ll_rcc.h **** /**
 544:C:/Users/nace/OneDrive/Desktop/STM32/Projects_nace/NUCLEO_LL_Project_LCD/STM32_NUCLEO_LL_Project_LCD_22_02_2025/Drivers/STM32F1xx_HAL_Driver/Inc\stm32f1xx_ll_rcc.h ****   * @}
 545:C:/Users/nace/OneDrive/Desktop/STM32/Projects_nace/NUCLEO_LL_Project_LCD/STM32_NUCLEO_LL_Project_LCD_22_02_2025/Drivers/STM32F1xx_HAL_Driver/Inc\stm32f1xx_ll_rcc.h ****   */
 546:C:/Users/nace/OneDrive/Desktop/STM32/Projects_nace/NUCLEO_LL_Project_LCD/STM32_NUCLEO_LL_Project_LCD_22_02_2025/Drivers/STM32F1xx_HAL_Driver/Inc\stm32f1xx_ll_rcc.h **** 
 547:C:/Users/nace/OneDrive/Desktop/STM32/Projects_nace/NUCLEO_LL_Project_LCD/STM32_NUCLEO_LL_Project_LCD_22_02_2025/Drivers/STM32F1xx_HAL_Driver/Inc\stm32f1xx_ll_rcc.h **** /** @defgroup RCC_LL_EM_CALC_FREQ Calculate frequencies
 548:C:/Users/nace/OneDrive/Desktop/STM32/Projects_nace/NUCLEO_LL_Project_LCD/STM32_NUCLEO_LL_Project_LCD_22_02_2025/Drivers/STM32F1xx_HAL_Driver/Inc\stm32f1xx_ll_rcc.h ****   * @{
 549:C:/Users/nace/OneDrive/Desktop/STM32/Projects_nace/NUCLEO_LL_Project_LCD/STM32_NUCLEO_LL_Project_LCD_22_02_2025/Drivers/STM32F1xx_HAL_Driver/Inc\stm32f1xx_ll_rcc.h ****   */
 550:C:/Users/nace/OneDrive/Desktop/STM32/Projects_nace/NUCLEO_LL_Project_LCD/STM32_NUCLEO_LL_Project_LCD_22_02_2025/Drivers/STM32F1xx_HAL_Driver/Inc\stm32f1xx_ll_rcc.h **** 
 551:C:/Users/nace/OneDrive/Desktop/STM32/Projects_nace/NUCLEO_LL_Project_LCD/STM32_NUCLEO_LL_Project_LCD_22_02_2025/Drivers/STM32F1xx_HAL_Driver/Inc\stm32f1xx_ll_rcc.h **** #if defined(RCC_CFGR_PLLMULL6_5)
 552:C:/Users/nace/OneDrive/Desktop/STM32/Projects_nace/NUCLEO_LL_Project_LCD/STM32_NUCLEO_LL_Project_LCD_22_02_2025/Drivers/STM32F1xx_HAL_Driver/Inc\stm32f1xx_ll_rcc.h **** /**
 553:C:/Users/nace/OneDrive/Desktop/STM32/Projects_nace/NUCLEO_LL_Project_LCD/STM32_NUCLEO_LL_Project_LCD_22_02_2025/Drivers/STM32F1xx_HAL_Driver/Inc\stm32f1xx_ll_rcc.h ****   * @brief  Helper macro to calculate the PLLCLK frequency
 554:C:/Users/nace/OneDrive/Desktop/STM32/Projects_nace/NUCLEO_LL_Project_LCD/STM32_NUCLEO_LL_Project_LCD_22_02_2025/Drivers/STM32F1xx_HAL_Driver/Inc\stm32f1xx_ll_rcc.h ****   * @note ex: @ref __LL_RCC_CALC_PLLCLK_FREQ (HSE_VALUE / (@ref LL_RCC_PLL_GetPrediv () + 1), @ref 
 555:C:/Users/nace/OneDrive/Desktop/STM32/Projects_nace/NUCLEO_LL_Project_LCD/STM32_NUCLEO_LL_Project_LCD_22_02_2025/Drivers/STM32F1xx_HAL_Driver/Inc\stm32f1xx_ll_rcc.h ****   * @param  __INPUTFREQ__ PLL Input frequency (based on HSE div Prediv1 / HSI div 2 / PLL2 div Pred
 556:C:/Users/nace/OneDrive/Desktop/STM32/Projects_nace/NUCLEO_LL_Project_LCD/STM32_NUCLEO_LL_Project_LCD_22_02_2025/Drivers/STM32F1xx_HAL_Driver/Inc\stm32f1xx_ll_rcc.h ****   * @param  __PLLMUL__: This parameter can be one of the following values:
 557:C:/Users/nace/OneDrive/Desktop/STM32/Projects_nace/NUCLEO_LL_Project_LCD/STM32_NUCLEO_LL_Project_LCD_22_02_2025/Drivers/STM32F1xx_HAL_Driver/Inc\stm32f1xx_ll_rcc.h ****   *         @arg @ref LL_RCC_PLL_MUL_4
 558:C:/Users/nace/OneDrive/Desktop/STM32/Projects_nace/NUCLEO_LL_Project_LCD/STM32_NUCLEO_LL_Project_LCD_22_02_2025/Drivers/STM32F1xx_HAL_Driver/Inc\stm32f1xx_ll_rcc.h ****   *         @arg @ref LL_RCC_PLL_MUL_5
 559:C:/Users/nace/OneDrive/Desktop/STM32/Projects_nace/NUCLEO_LL_Project_LCD/STM32_NUCLEO_LL_Project_LCD_22_02_2025/Drivers/STM32F1xx_HAL_Driver/Inc\stm32f1xx_ll_rcc.h ****   *         @arg @ref LL_RCC_PLL_MUL_6
 560:C:/Users/nace/OneDrive/Desktop/STM32/Projects_nace/NUCLEO_LL_Project_LCD/STM32_NUCLEO_LL_Project_LCD_22_02_2025/Drivers/STM32F1xx_HAL_Driver/Inc\stm32f1xx_ll_rcc.h ****   *         @arg @ref LL_RCC_PLL_MUL_7
 561:C:/Users/nace/OneDrive/Desktop/STM32/Projects_nace/NUCLEO_LL_Project_LCD/STM32_NUCLEO_LL_Project_LCD_22_02_2025/Drivers/STM32F1xx_HAL_Driver/Inc\stm32f1xx_ll_rcc.h ****   *         @arg @ref LL_RCC_PLL_MUL_8
 562:C:/Users/nace/OneDrive/Desktop/STM32/Projects_nace/NUCLEO_LL_Project_LCD/STM32_NUCLEO_LL_Project_LCD_22_02_2025/Drivers/STM32F1xx_HAL_Driver/Inc\stm32f1xx_ll_rcc.h ****   *         @arg @ref LL_RCC_PLL_MUL_9
 563:C:/Users/nace/OneDrive/Desktop/STM32/Projects_nace/NUCLEO_LL_Project_LCD/STM32_NUCLEO_LL_Project_LCD_22_02_2025/Drivers/STM32F1xx_HAL_Driver/Inc\stm32f1xx_ll_rcc.h ****   *         @arg @ref LL_RCC_PLL_MUL_6_5
 564:C:/Users/nace/OneDrive/Desktop/STM32/Projects_nace/NUCLEO_LL_Project_LCD/STM32_NUCLEO_LL_Project_LCD_22_02_2025/Drivers/STM32F1xx_HAL_Driver/Inc\stm32f1xx_ll_rcc.h ****   * @retval PLL clock frequency (in Hz)
 565:C:/Users/nace/OneDrive/Desktop/STM32/Projects_nace/NUCLEO_LL_Project_LCD/STM32_NUCLEO_LL_Project_LCD_22_02_2025/Drivers/STM32F1xx_HAL_Driver/Inc\stm32f1xx_ll_rcc.h ****   */
 566:C:/Users/nace/OneDrive/Desktop/STM32/Projects_nace/NUCLEO_LL_Project_LCD/STM32_NUCLEO_LL_Project_LCD_22_02_2025/Drivers/STM32F1xx_HAL_Driver/Inc\stm32f1xx_ll_rcc.h **** #define __LL_RCC_CALC_PLLCLK_FREQ(__INPUTFREQ__, __PLLMUL__) \
 567:C:/Users/nace/OneDrive/Desktop/STM32/Projects_nace/NUCLEO_LL_Project_LCD/STM32_NUCLEO_LL_Project_LCD_22_02_2025/Drivers/STM32F1xx_HAL_Driver/Inc\stm32f1xx_ll_rcc.h ****           (((__PLLMUL__) != RCC_CFGR_PLLMULL6_5) ? \
 568:C:/Users/nace/OneDrive/Desktop/STM32/Projects_nace/NUCLEO_LL_Project_LCD/STM32_NUCLEO_LL_Project_LCD_22_02_2025/Drivers/STM32F1xx_HAL_Driver/Inc\stm32f1xx_ll_rcc.h ****               ((__INPUTFREQ__) * ((((__PLLMUL__) & RCC_CFGR_PLLMULL) >> RCC_CFGR_PLLMULL_Pos) + 2U)
 569:C:/Users/nace/OneDrive/Desktop/STM32/Projects_nace/NUCLEO_LL_Project_LCD/STM32_NUCLEO_LL_Project_LCD_22_02_2025/Drivers/STM32F1xx_HAL_Driver/Inc\stm32f1xx_ll_rcc.h ****               (((__INPUTFREQ__) * 13U) / 2U))
 570:C:/Users/nace/OneDrive/Desktop/STM32/Projects_nace/NUCLEO_LL_Project_LCD/STM32_NUCLEO_LL_Project_LCD_22_02_2025/Drivers/STM32F1xx_HAL_Driver/Inc\stm32f1xx_ll_rcc.h **** 
 571:C:/Users/nace/OneDrive/Desktop/STM32/Projects_nace/NUCLEO_LL_Project_LCD/STM32_NUCLEO_LL_Project_LCD_22_02_2025/Drivers/STM32F1xx_HAL_Driver/Inc\stm32f1xx_ll_rcc.h **** #else
 572:C:/Users/nace/OneDrive/Desktop/STM32/Projects_nace/NUCLEO_LL_Project_LCD/STM32_NUCLEO_LL_Project_LCD_22_02_2025/Drivers/STM32F1xx_HAL_Driver/Inc\stm32f1xx_ll_rcc.h **** /**
 573:C:/Users/nace/OneDrive/Desktop/STM32/Projects_nace/NUCLEO_LL_Project_LCD/STM32_NUCLEO_LL_Project_LCD_22_02_2025/Drivers/STM32F1xx_HAL_Driver/Inc\stm32f1xx_ll_rcc.h ****   * @brief  Helper macro to calculate the PLLCLK frequency
 574:C:/Users/nace/OneDrive/Desktop/STM32/Projects_nace/NUCLEO_LL_Project_LCD/STM32_NUCLEO_LL_Project_LCD_22_02_2025/Drivers/STM32F1xx_HAL_Driver/Inc\stm32f1xx_ll_rcc.h ****   * @note ex: @ref __LL_RCC_CALC_PLLCLK_FREQ (HSE_VALUE / (@ref LL_RCC_PLL_GetPrediv () + 1), @ref 
 575:C:/Users/nace/OneDrive/Desktop/STM32/Projects_nace/NUCLEO_LL_Project_LCD/STM32_NUCLEO_LL_Project_LCD_22_02_2025/Drivers/STM32F1xx_HAL_Driver/Inc\stm32f1xx_ll_rcc.h ****   * @param  __INPUTFREQ__ PLL Input frequency (based on HSE div Prediv1 or div 2 / HSI div 2)
 576:C:/Users/nace/OneDrive/Desktop/STM32/Projects_nace/NUCLEO_LL_Project_LCD/STM32_NUCLEO_LL_Project_LCD_22_02_2025/Drivers/STM32F1xx_HAL_Driver/Inc\stm32f1xx_ll_rcc.h ****   * @param  __PLLMUL__: This parameter can be one of the following values:
 577:C:/Users/nace/OneDrive/Desktop/STM32/Projects_nace/NUCLEO_LL_Project_LCD/STM32_NUCLEO_LL_Project_LCD_22_02_2025/Drivers/STM32F1xx_HAL_Driver/Inc\stm32f1xx_ll_rcc.h ****   *         @arg @ref LL_RCC_PLL_MUL_2
 578:C:/Users/nace/OneDrive/Desktop/STM32/Projects_nace/NUCLEO_LL_Project_LCD/STM32_NUCLEO_LL_Project_LCD_22_02_2025/Drivers/STM32F1xx_HAL_Driver/Inc\stm32f1xx_ll_rcc.h ****   *         @arg @ref LL_RCC_PLL_MUL_3
 579:C:/Users/nace/OneDrive/Desktop/STM32/Projects_nace/NUCLEO_LL_Project_LCD/STM32_NUCLEO_LL_Project_LCD_22_02_2025/Drivers/STM32F1xx_HAL_Driver/Inc\stm32f1xx_ll_rcc.h ****   *         @arg @ref LL_RCC_PLL_MUL_4
 580:C:/Users/nace/OneDrive/Desktop/STM32/Projects_nace/NUCLEO_LL_Project_LCD/STM32_NUCLEO_LL_Project_LCD_22_02_2025/Drivers/STM32F1xx_HAL_Driver/Inc\stm32f1xx_ll_rcc.h ****   *         @arg @ref LL_RCC_PLL_MUL_5
 581:C:/Users/nace/OneDrive/Desktop/STM32/Projects_nace/NUCLEO_LL_Project_LCD/STM32_NUCLEO_LL_Project_LCD_22_02_2025/Drivers/STM32F1xx_HAL_Driver/Inc\stm32f1xx_ll_rcc.h ****   *         @arg @ref LL_RCC_PLL_MUL_6
 582:C:/Users/nace/OneDrive/Desktop/STM32/Projects_nace/NUCLEO_LL_Project_LCD/STM32_NUCLEO_LL_Project_LCD_22_02_2025/Drivers/STM32F1xx_HAL_Driver/Inc\stm32f1xx_ll_rcc.h ****   *         @arg @ref LL_RCC_PLL_MUL_7
 583:C:/Users/nace/OneDrive/Desktop/STM32/Projects_nace/NUCLEO_LL_Project_LCD/STM32_NUCLEO_LL_Project_LCD_22_02_2025/Drivers/STM32F1xx_HAL_Driver/Inc\stm32f1xx_ll_rcc.h ****   *         @arg @ref LL_RCC_PLL_MUL_8
 584:C:/Users/nace/OneDrive/Desktop/STM32/Projects_nace/NUCLEO_LL_Project_LCD/STM32_NUCLEO_LL_Project_LCD_22_02_2025/Drivers/STM32F1xx_HAL_Driver/Inc\stm32f1xx_ll_rcc.h ****   *         @arg @ref LL_RCC_PLL_MUL_9
 585:C:/Users/nace/OneDrive/Desktop/STM32/Projects_nace/NUCLEO_LL_Project_LCD/STM32_NUCLEO_LL_Project_LCD_22_02_2025/Drivers/STM32F1xx_HAL_Driver/Inc\stm32f1xx_ll_rcc.h ****   *         @arg @ref LL_RCC_PLL_MUL_10
 586:C:/Users/nace/OneDrive/Desktop/STM32/Projects_nace/NUCLEO_LL_Project_LCD/STM32_NUCLEO_LL_Project_LCD_22_02_2025/Drivers/STM32F1xx_HAL_Driver/Inc\stm32f1xx_ll_rcc.h ****   *         @arg @ref LL_RCC_PLL_MUL_11
 587:C:/Users/nace/OneDrive/Desktop/STM32/Projects_nace/NUCLEO_LL_Project_LCD/STM32_NUCLEO_LL_Project_LCD_22_02_2025/Drivers/STM32F1xx_HAL_Driver/Inc\stm32f1xx_ll_rcc.h ****   *         @arg @ref LL_RCC_PLL_MUL_12
 588:C:/Users/nace/OneDrive/Desktop/STM32/Projects_nace/NUCLEO_LL_Project_LCD/STM32_NUCLEO_LL_Project_LCD_22_02_2025/Drivers/STM32F1xx_HAL_Driver/Inc\stm32f1xx_ll_rcc.h ****   *         @arg @ref LL_RCC_PLL_MUL_13
 589:C:/Users/nace/OneDrive/Desktop/STM32/Projects_nace/NUCLEO_LL_Project_LCD/STM32_NUCLEO_LL_Project_LCD_22_02_2025/Drivers/STM32F1xx_HAL_Driver/Inc\stm32f1xx_ll_rcc.h ****   *         @arg @ref LL_RCC_PLL_MUL_14
 590:C:/Users/nace/OneDrive/Desktop/STM32/Projects_nace/NUCLEO_LL_Project_LCD/STM32_NUCLEO_LL_Project_LCD_22_02_2025/Drivers/STM32F1xx_HAL_Driver/Inc\stm32f1xx_ll_rcc.h ****   *         @arg @ref LL_RCC_PLL_MUL_15
 591:C:/Users/nace/OneDrive/Desktop/STM32/Projects_nace/NUCLEO_LL_Project_LCD/STM32_NUCLEO_LL_Project_LCD_22_02_2025/Drivers/STM32F1xx_HAL_Driver/Inc\stm32f1xx_ll_rcc.h ****   *         @arg @ref LL_RCC_PLL_MUL_16
 592:C:/Users/nace/OneDrive/Desktop/STM32/Projects_nace/NUCLEO_LL_Project_LCD/STM32_NUCLEO_LL_Project_LCD_22_02_2025/Drivers/STM32F1xx_HAL_Driver/Inc\stm32f1xx_ll_rcc.h ****   * @retval PLL clock frequency (in Hz)
 593:C:/Users/nace/OneDrive/Desktop/STM32/Projects_nace/NUCLEO_LL_Project_LCD/STM32_NUCLEO_LL_Project_LCD_22_02_2025/Drivers/STM32F1xx_HAL_Driver/Inc\stm32f1xx_ll_rcc.h ****   */
 594:C:/Users/nace/OneDrive/Desktop/STM32/Projects_nace/NUCLEO_LL_Project_LCD/STM32_NUCLEO_LL_Project_LCD_22_02_2025/Drivers/STM32F1xx_HAL_Driver/Inc\stm32f1xx_ll_rcc.h **** #define __LL_RCC_CALC_PLLCLK_FREQ(__INPUTFREQ__, __PLLMUL__) ((__INPUTFREQ__) * (((__PLLMUL__) >> R
 595:C:/Users/nace/OneDrive/Desktop/STM32/Projects_nace/NUCLEO_LL_Project_LCD/STM32_NUCLEO_LL_Project_LCD_22_02_2025/Drivers/STM32F1xx_HAL_Driver/Inc\stm32f1xx_ll_rcc.h **** #endif /* RCC_CFGR_PLLMULL6_5 */
 596:C:/Users/nace/OneDrive/Desktop/STM32/Projects_nace/NUCLEO_LL_Project_LCD/STM32_NUCLEO_LL_Project_LCD_22_02_2025/Drivers/STM32F1xx_HAL_Driver/Inc\stm32f1xx_ll_rcc.h **** 
 597:C:/Users/nace/OneDrive/Desktop/STM32/Projects_nace/NUCLEO_LL_Project_LCD/STM32_NUCLEO_LL_Project_LCD_22_02_2025/Drivers/STM32F1xx_HAL_Driver/Inc\stm32f1xx_ll_rcc.h **** #if defined(RCC_PLLI2S_SUPPORT)
 598:C:/Users/nace/OneDrive/Desktop/STM32/Projects_nace/NUCLEO_LL_Project_LCD/STM32_NUCLEO_LL_Project_LCD_22_02_2025/Drivers/STM32F1xx_HAL_Driver/Inc\stm32f1xx_ll_rcc.h **** /**
 599:C:/Users/nace/OneDrive/Desktop/STM32/Projects_nace/NUCLEO_LL_Project_LCD/STM32_NUCLEO_LL_Project_LCD_22_02_2025/Drivers/STM32F1xx_HAL_Driver/Inc\stm32f1xx_ll_rcc.h ****   * @brief  Helper macro to calculate the PLLI2S frequency
 600:C:/Users/nace/OneDrive/Desktop/STM32/Projects_nace/NUCLEO_LL_Project_LCD/STM32_NUCLEO_LL_Project_LCD_22_02_2025/Drivers/STM32F1xx_HAL_Driver/Inc\stm32f1xx_ll_rcc.h ****   * @note ex: @ref __LL_RCC_CALC_PLLI2SCLK_FREQ (HSE_VALUE, @ref LL_RCC_PLLI2S_GetMultiplicator (),
 601:C:/Users/nace/OneDrive/Desktop/STM32/Projects_nace/NUCLEO_LL_Project_LCD/STM32_NUCLEO_LL_Project_LCD_22_02_2025/Drivers/STM32F1xx_HAL_Driver/Inc\stm32f1xx_ll_rcc.h ****   * @param  __INPUTFREQ__ PLLI2S Input frequency (based on HSE value)
 602:C:/Users/nace/OneDrive/Desktop/STM32/Projects_nace/NUCLEO_LL_Project_LCD/STM32_NUCLEO_LL_Project_LCD_22_02_2025/Drivers/STM32F1xx_HAL_Driver/Inc\stm32f1xx_ll_rcc.h ****   * @param  __PLLI2SMUL__: This parameter can be one of the following values:
 603:C:/Users/nace/OneDrive/Desktop/STM32/Projects_nace/NUCLEO_LL_Project_LCD/STM32_NUCLEO_LL_Project_LCD_22_02_2025/Drivers/STM32F1xx_HAL_Driver/Inc\stm32f1xx_ll_rcc.h ****   *         @arg @ref LL_RCC_PLLI2S_MUL_8
 604:C:/Users/nace/OneDrive/Desktop/STM32/Projects_nace/NUCLEO_LL_Project_LCD/STM32_NUCLEO_LL_Project_LCD_22_02_2025/Drivers/STM32F1xx_HAL_Driver/Inc\stm32f1xx_ll_rcc.h ****   *         @arg @ref LL_RCC_PLLI2S_MUL_9
 605:C:/Users/nace/OneDrive/Desktop/STM32/Projects_nace/NUCLEO_LL_Project_LCD/STM32_NUCLEO_LL_Project_LCD_22_02_2025/Drivers/STM32F1xx_HAL_Driver/Inc\stm32f1xx_ll_rcc.h ****   *         @arg @ref LL_RCC_PLLI2S_MUL_10
 606:C:/Users/nace/OneDrive/Desktop/STM32/Projects_nace/NUCLEO_LL_Project_LCD/STM32_NUCLEO_LL_Project_LCD_22_02_2025/Drivers/STM32F1xx_HAL_Driver/Inc\stm32f1xx_ll_rcc.h ****   *         @arg @ref LL_RCC_PLLI2S_MUL_11
 607:C:/Users/nace/OneDrive/Desktop/STM32/Projects_nace/NUCLEO_LL_Project_LCD/STM32_NUCLEO_LL_Project_LCD_22_02_2025/Drivers/STM32F1xx_HAL_Driver/Inc\stm32f1xx_ll_rcc.h ****   *         @arg @ref LL_RCC_PLLI2S_MUL_12
 608:C:/Users/nace/OneDrive/Desktop/STM32/Projects_nace/NUCLEO_LL_Project_LCD/STM32_NUCLEO_LL_Project_LCD_22_02_2025/Drivers/STM32F1xx_HAL_Driver/Inc\stm32f1xx_ll_rcc.h ****   *         @arg @ref LL_RCC_PLLI2S_MUL_13
 609:C:/Users/nace/OneDrive/Desktop/STM32/Projects_nace/NUCLEO_LL_Project_LCD/STM32_NUCLEO_LL_Project_LCD_22_02_2025/Drivers/STM32F1xx_HAL_Driver/Inc\stm32f1xx_ll_rcc.h ****   *         @arg @ref LL_RCC_PLLI2S_MUL_14
 610:C:/Users/nace/OneDrive/Desktop/STM32/Projects_nace/NUCLEO_LL_Project_LCD/STM32_NUCLEO_LL_Project_LCD_22_02_2025/Drivers/STM32F1xx_HAL_Driver/Inc\stm32f1xx_ll_rcc.h ****   *         @arg @ref LL_RCC_PLLI2S_MUL_16
 611:C:/Users/nace/OneDrive/Desktop/STM32/Projects_nace/NUCLEO_LL_Project_LCD/STM32_NUCLEO_LL_Project_LCD_22_02_2025/Drivers/STM32F1xx_HAL_Driver/Inc\stm32f1xx_ll_rcc.h ****   *         @arg @ref LL_RCC_PLLI2S_MUL_20
 612:C:/Users/nace/OneDrive/Desktop/STM32/Projects_nace/NUCLEO_LL_Project_LCD/STM32_NUCLEO_LL_Project_LCD_22_02_2025/Drivers/STM32F1xx_HAL_Driver/Inc\stm32f1xx_ll_rcc.h ****   * @param  __PLLI2SDIV__: This parameter can be one of the following values:
 613:C:/Users/nace/OneDrive/Desktop/STM32/Projects_nace/NUCLEO_LL_Project_LCD/STM32_NUCLEO_LL_Project_LCD_22_02_2025/Drivers/STM32F1xx_HAL_Driver/Inc\stm32f1xx_ll_rcc.h ****   *         @arg @ref LL_RCC_HSE_PREDIV2_DIV_1
 614:C:/Users/nace/OneDrive/Desktop/STM32/Projects_nace/NUCLEO_LL_Project_LCD/STM32_NUCLEO_LL_Project_LCD_22_02_2025/Drivers/STM32F1xx_HAL_Driver/Inc\stm32f1xx_ll_rcc.h ****   *         @arg @ref LL_RCC_HSE_PREDIV2_DIV_2
 615:C:/Users/nace/OneDrive/Desktop/STM32/Projects_nace/NUCLEO_LL_Project_LCD/STM32_NUCLEO_LL_Project_LCD_22_02_2025/Drivers/STM32F1xx_HAL_Driver/Inc\stm32f1xx_ll_rcc.h ****   *         @arg @ref LL_RCC_HSE_PREDIV2_DIV_3
 616:C:/Users/nace/OneDrive/Desktop/STM32/Projects_nace/NUCLEO_LL_Project_LCD/STM32_NUCLEO_LL_Project_LCD_22_02_2025/Drivers/STM32F1xx_HAL_Driver/Inc\stm32f1xx_ll_rcc.h ****   *         @arg @ref LL_RCC_HSE_PREDIV2_DIV_4
 617:C:/Users/nace/OneDrive/Desktop/STM32/Projects_nace/NUCLEO_LL_Project_LCD/STM32_NUCLEO_LL_Project_LCD_22_02_2025/Drivers/STM32F1xx_HAL_Driver/Inc\stm32f1xx_ll_rcc.h ****   *         @arg @ref LL_RCC_HSE_PREDIV2_DIV_5
 618:C:/Users/nace/OneDrive/Desktop/STM32/Projects_nace/NUCLEO_LL_Project_LCD/STM32_NUCLEO_LL_Project_LCD_22_02_2025/Drivers/STM32F1xx_HAL_Driver/Inc\stm32f1xx_ll_rcc.h ****   *         @arg @ref LL_RCC_HSE_PREDIV2_DIV_6
 619:C:/Users/nace/OneDrive/Desktop/STM32/Projects_nace/NUCLEO_LL_Project_LCD/STM32_NUCLEO_LL_Project_LCD_22_02_2025/Drivers/STM32F1xx_HAL_Driver/Inc\stm32f1xx_ll_rcc.h ****   *         @arg @ref LL_RCC_HSE_PREDIV2_DIV_7
 620:C:/Users/nace/OneDrive/Desktop/STM32/Projects_nace/NUCLEO_LL_Project_LCD/STM32_NUCLEO_LL_Project_LCD_22_02_2025/Drivers/STM32F1xx_HAL_Driver/Inc\stm32f1xx_ll_rcc.h ****   *         @arg @ref LL_RCC_HSE_PREDIV2_DIV_8
 621:C:/Users/nace/OneDrive/Desktop/STM32/Projects_nace/NUCLEO_LL_Project_LCD/STM32_NUCLEO_LL_Project_LCD_22_02_2025/Drivers/STM32F1xx_HAL_Driver/Inc\stm32f1xx_ll_rcc.h ****   *         @arg @ref LL_RCC_HSE_PREDIV2_DIV_9
 622:C:/Users/nace/OneDrive/Desktop/STM32/Projects_nace/NUCLEO_LL_Project_LCD/STM32_NUCLEO_LL_Project_LCD_22_02_2025/Drivers/STM32F1xx_HAL_Driver/Inc\stm32f1xx_ll_rcc.h ****   *         @arg @ref LL_RCC_HSE_PREDIV2_DIV_10
 623:C:/Users/nace/OneDrive/Desktop/STM32/Projects_nace/NUCLEO_LL_Project_LCD/STM32_NUCLEO_LL_Project_LCD_22_02_2025/Drivers/STM32F1xx_HAL_Driver/Inc\stm32f1xx_ll_rcc.h ****   *         @arg @ref LL_RCC_HSE_PREDIV2_DIV_11
 624:C:/Users/nace/OneDrive/Desktop/STM32/Projects_nace/NUCLEO_LL_Project_LCD/STM32_NUCLEO_LL_Project_LCD_22_02_2025/Drivers/STM32F1xx_HAL_Driver/Inc\stm32f1xx_ll_rcc.h ****   *         @arg @ref LL_RCC_HSE_PREDIV2_DIV_12
 625:C:/Users/nace/OneDrive/Desktop/STM32/Projects_nace/NUCLEO_LL_Project_LCD/STM32_NUCLEO_LL_Project_LCD_22_02_2025/Drivers/STM32F1xx_HAL_Driver/Inc\stm32f1xx_ll_rcc.h ****   *         @arg @ref LL_RCC_HSE_PREDIV2_DIV_13
 626:C:/Users/nace/OneDrive/Desktop/STM32/Projects_nace/NUCLEO_LL_Project_LCD/STM32_NUCLEO_LL_Project_LCD_22_02_2025/Drivers/STM32F1xx_HAL_Driver/Inc\stm32f1xx_ll_rcc.h ****   *         @arg @ref LL_RCC_HSE_PREDIV2_DIV_14
 627:C:/Users/nace/OneDrive/Desktop/STM32/Projects_nace/NUCLEO_LL_Project_LCD/STM32_NUCLEO_LL_Project_LCD_22_02_2025/Drivers/STM32F1xx_HAL_Driver/Inc\stm32f1xx_ll_rcc.h ****   *         @arg @ref LL_RCC_HSE_PREDIV2_DIV_15
 628:C:/Users/nace/OneDrive/Desktop/STM32/Projects_nace/NUCLEO_LL_Project_LCD/STM32_NUCLEO_LL_Project_LCD_22_02_2025/Drivers/STM32F1xx_HAL_Driver/Inc\stm32f1xx_ll_rcc.h ****   *         @arg @ref LL_RCC_HSE_PREDIV2_DIV_16
 629:C:/Users/nace/OneDrive/Desktop/STM32/Projects_nace/NUCLEO_LL_Project_LCD/STM32_NUCLEO_LL_Project_LCD_22_02_2025/Drivers/STM32F1xx_HAL_Driver/Inc\stm32f1xx_ll_rcc.h ****   * @retval PLLI2S clock frequency (in Hz)
 630:C:/Users/nace/OneDrive/Desktop/STM32/Projects_nace/NUCLEO_LL_Project_LCD/STM32_NUCLEO_LL_Project_LCD_22_02_2025/Drivers/STM32F1xx_HAL_Driver/Inc\stm32f1xx_ll_rcc.h ****   */
 631:C:/Users/nace/OneDrive/Desktop/STM32/Projects_nace/NUCLEO_LL_Project_LCD/STM32_NUCLEO_LL_Project_LCD_22_02_2025/Drivers/STM32F1xx_HAL_Driver/Inc\stm32f1xx_ll_rcc.h **** #define __LL_RCC_CALC_PLLI2SCLK_FREQ(__INPUTFREQ__, __PLLI2SMUL__, __PLLI2SDIV__) (((__INPUTFREQ__)
 632:C:/Users/nace/OneDrive/Desktop/STM32/Projects_nace/NUCLEO_LL_Project_LCD/STM32_NUCLEO_LL_Project_LCD_22_02_2025/Drivers/STM32F1xx_HAL_Driver/Inc\stm32f1xx_ll_rcc.h **** #endif /* RCC_PLLI2S_SUPPORT */
 633:C:/Users/nace/OneDrive/Desktop/STM32/Projects_nace/NUCLEO_LL_Project_LCD/STM32_NUCLEO_LL_Project_LCD_22_02_2025/Drivers/STM32F1xx_HAL_Driver/Inc\stm32f1xx_ll_rcc.h **** 
 634:C:/Users/nace/OneDrive/Desktop/STM32/Projects_nace/NUCLEO_LL_Project_LCD/STM32_NUCLEO_LL_Project_LCD_22_02_2025/Drivers/STM32F1xx_HAL_Driver/Inc\stm32f1xx_ll_rcc.h **** #if defined(RCC_PLL2_SUPPORT)
 635:C:/Users/nace/OneDrive/Desktop/STM32/Projects_nace/NUCLEO_LL_Project_LCD/STM32_NUCLEO_LL_Project_LCD_22_02_2025/Drivers/STM32F1xx_HAL_Driver/Inc\stm32f1xx_ll_rcc.h **** /**
 636:C:/Users/nace/OneDrive/Desktop/STM32/Projects_nace/NUCLEO_LL_Project_LCD/STM32_NUCLEO_LL_Project_LCD_22_02_2025/Drivers/STM32F1xx_HAL_Driver/Inc\stm32f1xx_ll_rcc.h ****   * @brief  Helper macro to calculate the PLL2 frequency
 637:C:/Users/nace/OneDrive/Desktop/STM32/Projects_nace/NUCLEO_LL_Project_LCD/STM32_NUCLEO_LL_Project_LCD_22_02_2025/Drivers/STM32F1xx_HAL_Driver/Inc\stm32f1xx_ll_rcc.h ****   * @note ex: @ref __LL_RCC_CALC_PLL2CLK_FREQ (HSE_VALUE, @ref LL_RCC_PLL2_GetMultiplicator (), @re
 638:C:/Users/nace/OneDrive/Desktop/STM32/Projects_nace/NUCLEO_LL_Project_LCD/STM32_NUCLEO_LL_Project_LCD_22_02_2025/Drivers/STM32F1xx_HAL_Driver/Inc\stm32f1xx_ll_rcc.h ****   * @param  __INPUTFREQ__ PLL2 Input frequency (based on HSE value)
 639:C:/Users/nace/OneDrive/Desktop/STM32/Projects_nace/NUCLEO_LL_Project_LCD/STM32_NUCLEO_LL_Project_LCD_22_02_2025/Drivers/STM32F1xx_HAL_Driver/Inc\stm32f1xx_ll_rcc.h ****   * @param  __PLL2MUL__: This parameter can be one of the following values:
 640:C:/Users/nace/OneDrive/Desktop/STM32/Projects_nace/NUCLEO_LL_Project_LCD/STM32_NUCLEO_LL_Project_LCD_22_02_2025/Drivers/STM32F1xx_HAL_Driver/Inc\stm32f1xx_ll_rcc.h ****   *         @arg @ref LL_RCC_PLL2_MUL_8
 641:C:/Users/nace/OneDrive/Desktop/STM32/Projects_nace/NUCLEO_LL_Project_LCD/STM32_NUCLEO_LL_Project_LCD_22_02_2025/Drivers/STM32F1xx_HAL_Driver/Inc\stm32f1xx_ll_rcc.h ****   *         @arg @ref LL_RCC_PLL2_MUL_9
 642:C:/Users/nace/OneDrive/Desktop/STM32/Projects_nace/NUCLEO_LL_Project_LCD/STM32_NUCLEO_LL_Project_LCD_22_02_2025/Drivers/STM32F1xx_HAL_Driver/Inc\stm32f1xx_ll_rcc.h ****   *         @arg @ref LL_RCC_PLL2_MUL_10
 643:C:/Users/nace/OneDrive/Desktop/STM32/Projects_nace/NUCLEO_LL_Project_LCD/STM32_NUCLEO_LL_Project_LCD_22_02_2025/Drivers/STM32F1xx_HAL_Driver/Inc\stm32f1xx_ll_rcc.h ****   *         @arg @ref LL_RCC_PLL2_MUL_11
 644:C:/Users/nace/OneDrive/Desktop/STM32/Projects_nace/NUCLEO_LL_Project_LCD/STM32_NUCLEO_LL_Project_LCD_22_02_2025/Drivers/STM32F1xx_HAL_Driver/Inc\stm32f1xx_ll_rcc.h ****   *         @arg @ref LL_RCC_PLL2_MUL_12
 645:C:/Users/nace/OneDrive/Desktop/STM32/Projects_nace/NUCLEO_LL_Project_LCD/STM32_NUCLEO_LL_Project_LCD_22_02_2025/Drivers/STM32F1xx_HAL_Driver/Inc\stm32f1xx_ll_rcc.h ****   *         @arg @ref LL_RCC_PLL2_MUL_13
 646:C:/Users/nace/OneDrive/Desktop/STM32/Projects_nace/NUCLEO_LL_Project_LCD/STM32_NUCLEO_LL_Project_LCD_22_02_2025/Drivers/STM32F1xx_HAL_Driver/Inc\stm32f1xx_ll_rcc.h ****   *         @arg @ref LL_RCC_PLL2_MUL_14
 647:C:/Users/nace/OneDrive/Desktop/STM32/Projects_nace/NUCLEO_LL_Project_LCD/STM32_NUCLEO_LL_Project_LCD_22_02_2025/Drivers/STM32F1xx_HAL_Driver/Inc\stm32f1xx_ll_rcc.h ****   *         @arg @ref LL_RCC_PLL2_MUL_16
 648:C:/Users/nace/OneDrive/Desktop/STM32/Projects_nace/NUCLEO_LL_Project_LCD/STM32_NUCLEO_LL_Project_LCD_22_02_2025/Drivers/STM32F1xx_HAL_Driver/Inc\stm32f1xx_ll_rcc.h ****   *         @arg @ref LL_RCC_PLL2_MUL_20
 649:C:/Users/nace/OneDrive/Desktop/STM32/Projects_nace/NUCLEO_LL_Project_LCD/STM32_NUCLEO_LL_Project_LCD_22_02_2025/Drivers/STM32F1xx_HAL_Driver/Inc\stm32f1xx_ll_rcc.h ****   * @param  __PLL2DIV__: This parameter can be one of the following values:
 650:C:/Users/nace/OneDrive/Desktop/STM32/Projects_nace/NUCLEO_LL_Project_LCD/STM32_NUCLEO_LL_Project_LCD_22_02_2025/Drivers/STM32F1xx_HAL_Driver/Inc\stm32f1xx_ll_rcc.h ****   *         @arg @ref LL_RCC_HSE_PREDIV2_DIV_1
 651:C:/Users/nace/OneDrive/Desktop/STM32/Projects_nace/NUCLEO_LL_Project_LCD/STM32_NUCLEO_LL_Project_LCD_22_02_2025/Drivers/STM32F1xx_HAL_Driver/Inc\stm32f1xx_ll_rcc.h ****   *         @arg @ref LL_RCC_HSE_PREDIV2_DIV_2
 652:C:/Users/nace/OneDrive/Desktop/STM32/Projects_nace/NUCLEO_LL_Project_LCD/STM32_NUCLEO_LL_Project_LCD_22_02_2025/Drivers/STM32F1xx_HAL_Driver/Inc\stm32f1xx_ll_rcc.h ****   *         @arg @ref LL_RCC_HSE_PREDIV2_DIV_3
 653:C:/Users/nace/OneDrive/Desktop/STM32/Projects_nace/NUCLEO_LL_Project_LCD/STM32_NUCLEO_LL_Project_LCD_22_02_2025/Drivers/STM32F1xx_HAL_Driver/Inc\stm32f1xx_ll_rcc.h ****   *         @arg @ref LL_RCC_HSE_PREDIV2_DIV_4
 654:C:/Users/nace/OneDrive/Desktop/STM32/Projects_nace/NUCLEO_LL_Project_LCD/STM32_NUCLEO_LL_Project_LCD_22_02_2025/Drivers/STM32F1xx_HAL_Driver/Inc\stm32f1xx_ll_rcc.h ****   *         @arg @ref LL_RCC_HSE_PREDIV2_DIV_5
 655:C:/Users/nace/OneDrive/Desktop/STM32/Projects_nace/NUCLEO_LL_Project_LCD/STM32_NUCLEO_LL_Project_LCD_22_02_2025/Drivers/STM32F1xx_HAL_Driver/Inc\stm32f1xx_ll_rcc.h ****   *         @arg @ref LL_RCC_HSE_PREDIV2_DIV_6
 656:C:/Users/nace/OneDrive/Desktop/STM32/Projects_nace/NUCLEO_LL_Project_LCD/STM32_NUCLEO_LL_Project_LCD_22_02_2025/Drivers/STM32F1xx_HAL_Driver/Inc\stm32f1xx_ll_rcc.h ****   *         @arg @ref LL_RCC_HSE_PREDIV2_DIV_7
 657:C:/Users/nace/OneDrive/Desktop/STM32/Projects_nace/NUCLEO_LL_Project_LCD/STM32_NUCLEO_LL_Project_LCD_22_02_2025/Drivers/STM32F1xx_HAL_Driver/Inc\stm32f1xx_ll_rcc.h ****   *         @arg @ref LL_RCC_HSE_PREDIV2_DIV_8
 658:C:/Users/nace/OneDrive/Desktop/STM32/Projects_nace/NUCLEO_LL_Project_LCD/STM32_NUCLEO_LL_Project_LCD_22_02_2025/Drivers/STM32F1xx_HAL_Driver/Inc\stm32f1xx_ll_rcc.h ****   *         @arg @ref LL_RCC_HSE_PREDIV2_DIV_9
 659:C:/Users/nace/OneDrive/Desktop/STM32/Projects_nace/NUCLEO_LL_Project_LCD/STM32_NUCLEO_LL_Project_LCD_22_02_2025/Drivers/STM32F1xx_HAL_Driver/Inc\stm32f1xx_ll_rcc.h ****   *         @arg @ref LL_RCC_HSE_PREDIV2_DIV_10
 660:C:/Users/nace/OneDrive/Desktop/STM32/Projects_nace/NUCLEO_LL_Project_LCD/STM32_NUCLEO_LL_Project_LCD_22_02_2025/Drivers/STM32F1xx_HAL_Driver/Inc\stm32f1xx_ll_rcc.h ****   *         @arg @ref LL_RCC_HSE_PREDIV2_DIV_11
 661:C:/Users/nace/OneDrive/Desktop/STM32/Projects_nace/NUCLEO_LL_Project_LCD/STM32_NUCLEO_LL_Project_LCD_22_02_2025/Drivers/STM32F1xx_HAL_Driver/Inc\stm32f1xx_ll_rcc.h ****   *         @arg @ref LL_RCC_HSE_PREDIV2_DIV_12
 662:C:/Users/nace/OneDrive/Desktop/STM32/Projects_nace/NUCLEO_LL_Project_LCD/STM32_NUCLEO_LL_Project_LCD_22_02_2025/Drivers/STM32F1xx_HAL_Driver/Inc\stm32f1xx_ll_rcc.h ****   *         @arg @ref LL_RCC_HSE_PREDIV2_DIV_13
 663:C:/Users/nace/OneDrive/Desktop/STM32/Projects_nace/NUCLEO_LL_Project_LCD/STM32_NUCLEO_LL_Project_LCD_22_02_2025/Drivers/STM32F1xx_HAL_Driver/Inc\stm32f1xx_ll_rcc.h ****   *         @arg @ref LL_RCC_HSE_PREDIV2_DIV_14
 664:C:/Users/nace/OneDrive/Desktop/STM32/Projects_nace/NUCLEO_LL_Project_LCD/STM32_NUCLEO_LL_Project_LCD_22_02_2025/Drivers/STM32F1xx_HAL_Driver/Inc\stm32f1xx_ll_rcc.h ****   *         @arg @ref LL_RCC_HSE_PREDIV2_DIV_15
 665:C:/Users/nace/OneDrive/Desktop/STM32/Projects_nace/NUCLEO_LL_Project_LCD/STM32_NUCLEO_LL_Project_LCD_22_02_2025/Drivers/STM32F1xx_HAL_Driver/Inc\stm32f1xx_ll_rcc.h ****   *         @arg @ref LL_RCC_HSE_PREDIV2_DIV_16
 666:C:/Users/nace/OneDrive/Desktop/STM32/Projects_nace/NUCLEO_LL_Project_LCD/STM32_NUCLEO_LL_Project_LCD_22_02_2025/Drivers/STM32F1xx_HAL_Driver/Inc\stm32f1xx_ll_rcc.h ****   * @retval PLL2 clock frequency (in Hz)
 667:C:/Users/nace/OneDrive/Desktop/STM32/Projects_nace/NUCLEO_LL_Project_LCD/STM32_NUCLEO_LL_Project_LCD_22_02_2025/Drivers/STM32F1xx_HAL_Driver/Inc\stm32f1xx_ll_rcc.h ****   */
 668:C:/Users/nace/OneDrive/Desktop/STM32/Projects_nace/NUCLEO_LL_Project_LCD/STM32_NUCLEO_LL_Project_LCD_22_02_2025/Drivers/STM32F1xx_HAL_Driver/Inc\stm32f1xx_ll_rcc.h **** #define __LL_RCC_CALC_PLL2CLK_FREQ(__INPUTFREQ__, __PLL2MUL__, __PLL2DIV__) (((__INPUTFREQ__) * (((
 669:C:/Users/nace/OneDrive/Desktop/STM32/Projects_nace/NUCLEO_LL_Project_LCD/STM32_NUCLEO_LL_Project_LCD_22_02_2025/Drivers/STM32F1xx_HAL_Driver/Inc\stm32f1xx_ll_rcc.h **** #endif /* RCC_PLL2_SUPPORT */
 670:C:/Users/nace/OneDrive/Desktop/STM32/Projects_nace/NUCLEO_LL_Project_LCD/STM32_NUCLEO_LL_Project_LCD_22_02_2025/Drivers/STM32F1xx_HAL_Driver/Inc\stm32f1xx_ll_rcc.h **** 
 671:C:/Users/nace/OneDrive/Desktop/STM32/Projects_nace/NUCLEO_LL_Project_LCD/STM32_NUCLEO_LL_Project_LCD_22_02_2025/Drivers/STM32F1xx_HAL_Driver/Inc\stm32f1xx_ll_rcc.h **** /**
 672:C:/Users/nace/OneDrive/Desktop/STM32/Projects_nace/NUCLEO_LL_Project_LCD/STM32_NUCLEO_LL_Project_LCD_22_02_2025/Drivers/STM32F1xx_HAL_Driver/Inc\stm32f1xx_ll_rcc.h ****   * @brief  Helper macro to calculate the HCLK frequency
 673:C:/Users/nace/OneDrive/Desktop/STM32/Projects_nace/NUCLEO_LL_Project_LCD/STM32_NUCLEO_LL_Project_LCD_22_02_2025/Drivers/STM32F1xx_HAL_Driver/Inc\stm32f1xx_ll_rcc.h ****   * @note: __AHBPRESCALER__ be retrieved by @ref LL_RCC_GetAHBPrescaler
 674:C:/Users/nace/OneDrive/Desktop/STM32/Projects_nace/NUCLEO_LL_Project_LCD/STM32_NUCLEO_LL_Project_LCD_22_02_2025/Drivers/STM32F1xx_HAL_Driver/Inc\stm32f1xx_ll_rcc.h ****   *        ex: __LL_RCC_CALC_HCLK_FREQ(LL_RCC_GetAHBPrescaler())
 675:C:/Users/nace/OneDrive/Desktop/STM32/Projects_nace/NUCLEO_LL_Project_LCD/STM32_NUCLEO_LL_Project_LCD_22_02_2025/Drivers/STM32F1xx_HAL_Driver/Inc\stm32f1xx_ll_rcc.h ****   * @param  __SYSCLKFREQ__ SYSCLK frequency (based on HSE/HSI/PLLCLK)
 676:C:/Users/nace/OneDrive/Desktop/STM32/Projects_nace/NUCLEO_LL_Project_LCD/STM32_NUCLEO_LL_Project_LCD_22_02_2025/Drivers/STM32F1xx_HAL_Driver/Inc\stm32f1xx_ll_rcc.h ****   * @param  __AHBPRESCALER__: This parameter can be one of the following values:
 677:C:/Users/nace/OneDrive/Desktop/STM32/Projects_nace/NUCLEO_LL_Project_LCD/STM32_NUCLEO_LL_Project_LCD_22_02_2025/Drivers/STM32F1xx_HAL_Driver/Inc\stm32f1xx_ll_rcc.h ****   *         @arg @ref LL_RCC_SYSCLK_DIV_1
 678:C:/Users/nace/OneDrive/Desktop/STM32/Projects_nace/NUCLEO_LL_Project_LCD/STM32_NUCLEO_LL_Project_LCD_22_02_2025/Drivers/STM32F1xx_HAL_Driver/Inc\stm32f1xx_ll_rcc.h ****   *         @arg @ref LL_RCC_SYSCLK_DIV_2
 679:C:/Users/nace/OneDrive/Desktop/STM32/Projects_nace/NUCLEO_LL_Project_LCD/STM32_NUCLEO_LL_Project_LCD_22_02_2025/Drivers/STM32F1xx_HAL_Driver/Inc\stm32f1xx_ll_rcc.h ****   *         @arg @ref LL_RCC_SYSCLK_DIV_4
 680:C:/Users/nace/OneDrive/Desktop/STM32/Projects_nace/NUCLEO_LL_Project_LCD/STM32_NUCLEO_LL_Project_LCD_22_02_2025/Drivers/STM32F1xx_HAL_Driver/Inc\stm32f1xx_ll_rcc.h ****   *         @arg @ref LL_RCC_SYSCLK_DIV_8
 681:C:/Users/nace/OneDrive/Desktop/STM32/Projects_nace/NUCLEO_LL_Project_LCD/STM32_NUCLEO_LL_Project_LCD_22_02_2025/Drivers/STM32F1xx_HAL_Driver/Inc\stm32f1xx_ll_rcc.h ****   *         @arg @ref LL_RCC_SYSCLK_DIV_16
 682:C:/Users/nace/OneDrive/Desktop/STM32/Projects_nace/NUCLEO_LL_Project_LCD/STM32_NUCLEO_LL_Project_LCD_22_02_2025/Drivers/STM32F1xx_HAL_Driver/Inc\stm32f1xx_ll_rcc.h ****   *         @arg @ref LL_RCC_SYSCLK_DIV_64
 683:C:/Users/nace/OneDrive/Desktop/STM32/Projects_nace/NUCLEO_LL_Project_LCD/STM32_NUCLEO_LL_Project_LCD_22_02_2025/Drivers/STM32F1xx_HAL_Driver/Inc\stm32f1xx_ll_rcc.h ****   *         @arg @ref LL_RCC_SYSCLK_DIV_128
 684:C:/Users/nace/OneDrive/Desktop/STM32/Projects_nace/NUCLEO_LL_Project_LCD/STM32_NUCLEO_LL_Project_LCD_22_02_2025/Drivers/STM32F1xx_HAL_Driver/Inc\stm32f1xx_ll_rcc.h ****   *         @arg @ref LL_RCC_SYSCLK_DIV_256
 685:C:/Users/nace/OneDrive/Desktop/STM32/Projects_nace/NUCLEO_LL_Project_LCD/STM32_NUCLEO_LL_Project_LCD_22_02_2025/Drivers/STM32F1xx_HAL_Driver/Inc\stm32f1xx_ll_rcc.h ****   *         @arg @ref LL_RCC_SYSCLK_DIV_512
 686:C:/Users/nace/OneDrive/Desktop/STM32/Projects_nace/NUCLEO_LL_Project_LCD/STM32_NUCLEO_LL_Project_LCD_22_02_2025/Drivers/STM32F1xx_HAL_Driver/Inc\stm32f1xx_ll_rcc.h ****   * @retval HCLK clock frequency (in Hz)
 687:C:/Users/nace/OneDrive/Desktop/STM32/Projects_nace/NUCLEO_LL_Project_LCD/STM32_NUCLEO_LL_Project_LCD_22_02_2025/Drivers/STM32F1xx_HAL_Driver/Inc\stm32f1xx_ll_rcc.h ****   */
 688:C:/Users/nace/OneDrive/Desktop/STM32/Projects_nace/NUCLEO_LL_Project_LCD/STM32_NUCLEO_LL_Project_LCD_22_02_2025/Drivers/STM32F1xx_HAL_Driver/Inc\stm32f1xx_ll_rcc.h **** #define __LL_RCC_CALC_HCLK_FREQ(__SYSCLKFREQ__, __AHBPRESCALER__) ((__SYSCLKFREQ__) >> AHBPrescTabl
 689:C:/Users/nace/OneDrive/Desktop/STM32/Projects_nace/NUCLEO_LL_Project_LCD/STM32_NUCLEO_LL_Project_LCD_22_02_2025/Drivers/STM32F1xx_HAL_Driver/Inc\stm32f1xx_ll_rcc.h **** 
 690:C:/Users/nace/OneDrive/Desktop/STM32/Projects_nace/NUCLEO_LL_Project_LCD/STM32_NUCLEO_LL_Project_LCD_22_02_2025/Drivers/STM32F1xx_HAL_Driver/Inc\stm32f1xx_ll_rcc.h **** /**
 691:C:/Users/nace/OneDrive/Desktop/STM32/Projects_nace/NUCLEO_LL_Project_LCD/STM32_NUCLEO_LL_Project_LCD_22_02_2025/Drivers/STM32F1xx_HAL_Driver/Inc\stm32f1xx_ll_rcc.h ****   * @brief  Helper macro to calculate the PCLK1 frequency (ABP1)
 692:C:/Users/nace/OneDrive/Desktop/STM32/Projects_nace/NUCLEO_LL_Project_LCD/STM32_NUCLEO_LL_Project_LCD_22_02_2025/Drivers/STM32F1xx_HAL_Driver/Inc\stm32f1xx_ll_rcc.h ****   * @note: __APB1PRESCALER__ be retrieved by @ref LL_RCC_GetAPB1Prescaler
 693:C:/Users/nace/OneDrive/Desktop/STM32/Projects_nace/NUCLEO_LL_Project_LCD/STM32_NUCLEO_LL_Project_LCD_22_02_2025/Drivers/STM32F1xx_HAL_Driver/Inc\stm32f1xx_ll_rcc.h ****   *        ex: __LL_RCC_CALC_PCLK1_FREQ(LL_RCC_GetAPB1Prescaler())
 694:C:/Users/nace/OneDrive/Desktop/STM32/Projects_nace/NUCLEO_LL_Project_LCD/STM32_NUCLEO_LL_Project_LCD_22_02_2025/Drivers/STM32F1xx_HAL_Driver/Inc\stm32f1xx_ll_rcc.h ****   * @param  __HCLKFREQ__ HCLK frequency
 695:C:/Users/nace/OneDrive/Desktop/STM32/Projects_nace/NUCLEO_LL_Project_LCD/STM32_NUCLEO_LL_Project_LCD_22_02_2025/Drivers/STM32F1xx_HAL_Driver/Inc\stm32f1xx_ll_rcc.h ****   * @param  __APB1PRESCALER__: This parameter can be one of the following values:
 696:C:/Users/nace/OneDrive/Desktop/STM32/Projects_nace/NUCLEO_LL_Project_LCD/STM32_NUCLEO_LL_Project_LCD_22_02_2025/Drivers/STM32F1xx_HAL_Driver/Inc\stm32f1xx_ll_rcc.h ****   *         @arg @ref LL_RCC_APB1_DIV_1
 697:C:/Users/nace/OneDrive/Desktop/STM32/Projects_nace/NUCLEO_LL_Project_LCD/STM32_NUCLEO_LL_Project_LCD_22_02_2025/Drivers/STM32F1xx_HAL_Driver/Inc\stm32f1xx_ll_rcc.h ****   *         @arg @ref LL_RCC_APB1_DIV_2
 698:C:/Users/nace/OneDrive/Desktop/STM32/Projects_nace/NUCLEO_LL_Project_LCD/STM32_NUCLEO_LL_Project_LCD_22_02_2025/Drivers/STM32F1xx_HAL_Driver/Inc\stm32f1xx_ll_rcc.h ****   *         @arg @ref LL_RCC_APB1_DIV_4
 699:C:/Users/nace/OneDrive/Desktop/STM32/Projects_nace/NUCLEO_LL_Project_LCD/STM32_NUCLEO_LL_Project_LCD_22_02_2025/Drivers/STM32F1xx_HAL_Driver/Inc\stm32f1xx_ll_rcc.h ****   *         @arg @ref LL_RCC_APB1_DIV_8
 700:C:/Users/nace/OneDrive/Desktop/STM32/Projects_nace/NUCLEO_LL_Project_LCD/STM32_NUCLEO_LL_Project_LCD_22_02_2025/Drivers/STM32F1xx_HAL_Driver/Inc\stm32f1xx_ll_rcc.h ****   *         @arg @ref LL_RCC_APB1_DIV_16
 701:C:/Users/nace/OneDrive/Desktop/STM32/Projects_nace/NUCLEO_LL_Project_LCD/STM32_NUCLEO_LL_Project_LCD_22_02_2025/Drivers/STM32F1xx_HAL_Driver/Inc\stm32f1xx_ll_rcc.h ****   * @retval PCLK1 clock frequency (in Hz)
 702:C:/Users/nace/OneDrive/Desktop/STM32/Projects_nace/NUCLEO_LL_Project_LCD/STM32_NUCLEO_LL_Project_LCD_22_02_2025/Drivers/STM32F1xx_HAL_Driver/Inc\stm32f1xx_ll_rcc.h ****   */
 703:C:/Users/nace/OneDrive/Desktop/STM32/Projects_nace/NUCLEO_LL_Project_LCD/STM32_NUCLEO_LL_Project_LCD_22_02_2025/Drivers/STM32F1xx_HAL_Driver/Inc\stm32f1xx_ll_rcc.h **** #define __LL_RCC_CALC_PCLK1_FREQ(__HCLKFREQ__, __APB1PRESCALER__) ((__HCLKFREQ__) >> APBPrescTable[
 704:C:/Users/nace/OneDrive/Desktop/STM32/Projects_nace/NUCLEO_LL_Project_LCD/STM32_NUCLEO_LL_Project_LCD_22_02_2025/Drivers/STM32F1xx_HAL_Driver/Inc\stm32f1xx_ll_rcc.h **** 
 705:C:/Users/nace/OneDrive/Desktop/STM32/Projects_nace/NUCLEO_LL_Project_LCD/STM32_NUCLEO_LL_Project_LCD_22_02_2025/Drivers/STM32F1xx_HAL_Driver/Inc\stm32f1xx_ll_rcc.h **** /**
 706:C:/Users/nace/OneDrive/Desktop/STM32/Projects_nace/NUCLEO_LL_Project_LCD/STM32_NUCLEO_LL_Project_LCD_22_02_2025/Drivers/STM32F1xx_HAL_Driver/Inc\stm32f1xx_ll_rcc.h ****   * @brief  Helper macro to calculate the PCLK2 frequency (ABP2)
 707:C:/Users/nace/OneDrive/Desktop/STM32/Projects_nace/NUCLEO_LL_Project_LCD/STM32_NUCLEO_LL_Project_LCD_22_02_2025/Drivers/STM32F1xx_HAL_Driver/Inc\stm32f1xx_ll_rcc.h ****   * @note: __APB2PRESCALER__ be retrieved by @ref LL_RCC_GetAPB2Prescaler
 708:C:/Users/nace/OneDrive/Desktop/STM32/Projects_nace/NUCLEO_LL_Project_LCD/STM32_NUCLEO_LL_Project_LCD_22_02_2025/Drivers/STM32F1xx_HAL_Driver/Inc\stm32f1xx_ll_rcc.h ****   *        ex: __LL_RCC_CALC_PCLK2_FREQ(LL_RCC_GetAPB2Prescaler())
 709:C:/Users/nace/OneDrive/Desktop/STM32/Projects_nace/NUCLEO_LL_Project_LCD/STM32_NUCLEO_LL_Project_LCD_22_02_2025/Drivers/STM32F1xx_HAL_Driver/Inc\stm32f1xx_ll_rcc.h ****   * @param  __HCLKFREQ__ HCLK frequency
 710:C:/Users/nace/OneDrive/Desktop/STM32/Projects_nace/NUCLEO_LL_Project_LCD/STM32_NUCLEO_LL_Project_LCD_22_02_2025/Drivers/STM32F1xx_HAL_Driver/Inc\stm32f1xx_ll_rcc.h ****   * @param  __APB2PRESCALER__: This parameter can be one of the following values:
 711:C:/Users/nace/OneDrive/Desktop/STM32/Projects_nace/NUCLEO_LL_Project_LCD/STM32_NUCLEO_LL_Project_LCD_22_02_2025/Drivers/STM32F1xx_HAL_Driver/Inc\stm32f1xx_ll_rcc.h ****   *         @arg @ref LL_RCC_APB2_DIV_1
 712:C:/Users/nace/OneDrive/Desktop/STM32/Projects_nace/NUCLEO_LL_Project_LCD/STM32_NUCLEO_LL_Project_LCD_22_02_2025/Drivers/STM32F1xx_HAL_Driver/Inc\stm32f1xx_ll_rcc.h ****   *         @arg @ref LL_RCC_APB2_DIV_2
 713:C:/Users/nace/OneDrive/Desktop/STM32/Projects_nace/NUCLEO_LL_Project_LCD/STM32_NUCLEO_LL_Project_LCD_22_02_2025/Drivers/STM32F1xx_HAL_Driver/Inc\stm32f1xx_ll_rcc.h ****   *         @arg @ref LL_RCC_APB2_DIV_4
 714:C:/Users/nace/OneDrive/Desktop/STM32/Projects_nace/NUCLEO_LL_Project_LCD/STM32_NUCLEO_LL_Project_LCD_22_02_2025/Drivers/STM32F1xx_HAL_Driver/Inc\stm32f1xx_ll_rcc.h ****   *         @arg @ref LL_RCC_APB2_DIV_8
 715:C:/Users/nace/OneDrive/Desktop/STM32/Projects_nace/NUCLEO_LL_Project_LCD/STM32_NUCLEO_LL_Project_LCD_22_02_2025/Drivers/STM32F1xx_HAL_Driver/Inc\stm32f1xx_ll_rcc.h ****   *         @arg @ref LL_RCC_APB2_DIV_16
 716:C:/Users/nace/OneDrive/Desktop/STM32/Projects_nace/NUCLEO_LL_Project_LCD/STM32_NUCLEO_LL_Project_LCD_22_02_2025/Drivers/STM32F1xx_HAL_Driver/Inc\stm32f1xx_ll_rcc.h ****   * @retval PCLK2 clock frequency (in Hz)
 717:C:/Users/nace/OneDrive/Desktop/STM32/Projects_nace/NUCLEO_LL_Project_LCD/STM32_NUCLEO_LL_Project_LCD_22_02_2025/Drivers/STM32F1xx_HAL_Driver/Inc\stm32f1xx_ll_rcc.h ****   */
 718:C:/Users/nace/OneDrive/Desktop/STM32/Projects_nace/NUCLEO_LL_Project_LCD/STM32_NUCLEO_LL_Project_LCD_22_02_2025/Drivers/STM32F1xx_HAL_Driver/Inc\stm32f1xx_ll_rcc.h **** #define __LL_RCC_CALC_PCLK2_FREQ(__HCLKFREQ__, __APB2PRESCALER__) ((__HCLKFREQ__) >> APBPrescTable[
 719:C:/Users/nace/OneDrive/Desktop/STM32/Projects_nace/NUCLEO_LL_Project_LCD/STM32_NUCLEO_LL_Project_LCD_22_02_2025/Drivers/STM32F1xx_HAL_Driver/Inc\stm32f1xx_ll_rcc.h **** 
 720:C:/Users/nace/OneDrive/Desktop/STM32/Projects_nace/NUCLEO_LL_Project_LCD/STM32_NUCLEO_LL_Project_LCD_22_02_2025/Drivers/STM32F1xx_HAL_Driver/Inc\stm32f1xx_ll_rcc.h **** /**
 721:C:/Users/nace/OneDrive/Desktop/STM32/Projects_nace/NUCLEO_LL_Project_LCD/STM32_NUCLEO_LL_Project_LCD_22_02_2025/Drivers/STM32F1xx_HAL_Driver/Inc\stm32f1xx_ll_rcc.h ****   * @}
 722:C:/Users/nace/OneDrive/Desktop/STM32/Projects_nace/NUCLEO_LL_Project_LCD/STM32_NUCLEO_LL_Project_LCD_22_02_2025/Drivers/STM32F1xx_HAL_Driver/Inc\stm32f1xx_ll_rcc.h ****   */
 723:C:/Users/nace/OneDrive/Desktop/STM32/Projects_nace/NUCLEO_LL_Project_LCD/STM32_NUCLEO_LL_Project_LCD_22_02_2025/Drivers/STM32F1xx_HAL_Driver/Inc\stm32f1xx_ll_rcc.h **** 
 724:C:/Users/nace/OneDrive/Desktop/STM32/Projects_nace/NUCLEO_LL_Project_LCD/STM32_NUCLEO_LL_Project_LCD_22_02_2025/Drivers/STM32F1xx_HAL_Driver/Inc\stm32f1xx_ll_rcc.h **** /**
 725:C:/Users/nace/OneDrive/Desktop/STM32/Projects_nace/NUCLEO_LL_Project_LCD/STM32_NUCLEO_LL_Project_LCD_22_02_2025/Drivers/STM32F1xx_HAL_Driver/Inc\stm32f1xx_ll_rcc.h ****   * @}
 726:C:/Users/nace/OneDrive/Desktop/STM32/Projects_nace/NUCLEO_LL_Project_LCD/STM32_NUCLEO_LL_Project_LCD_22_02_2025/Drivers/STM32F1xx_HAL_Driver/Inc\stm32f1xx_ll_rcc.h ****   */
 727:C:/Users/nace/OneDrive/Desktop/STM32/Projects_nace/NUCLEO_LL_Project_LCD/STM32_NUCLEO_LL_Project_LCD_22_02_2025/Drivers/STM32F1xx_HAL_Driver/Inc\stm32f1xx_ll_rcc.h **** 
 728:C:/Users/nace/OneDrive/Desktop/STM32/Projects_nace/NUCLEO_LL_Project_LCD/STM32_NUCLEO_LL_Project_LCD_22_02_2025/Drivers/STM32F1xx_HAL_Driver/Inc\stm32f1xx_ll_rcc.h **** /* Exported functions --------------------------------------------------------*/
 729:C:/Users/nace/OneDrive/Desktop/STM32/Projects_nace/NUCLEO_LL_Project_LCD/STM32_NUCLEO_LL_Project_LCD_22_02_2025/Drivers/STM32F1xx_HAL_Driver/Inc\stm32f1xx_ll_rcc.h **** /** @defgroup RCC_LL_Exported_Functions RCC Exported Functions
 730:C:/Users/nace/OneDrive/Desktop/STM32/Projects_nace/NUCLEO_LL_Project_LCD/STM32_NUCLEO_LL_Project_LCD_22_02_2025/Drivers/STM32F1xx_HAL_Driver/Inc\stm32f1xx_ll_rcc.h ****   * @{
 731:C:/Users/nace/OneDrive/Desktop/STM32/Projects_nace/NUCLEO_LL_Project_LCD/STM32_NUCLEO_LL_Project_LCD_22_02_2025/Drivers/STM32F1xx_HAL_Driver/Inc\stm32f1xx_ll_rcc.h ****   */
 732:C:/Users/nace/OneDrive/Desktop/STM32/Projects_nace/NUCLEO_LL_Project_LCD/STM32_NUCLEO_LL_Project_LCD_22_02_2025/Drivers/STM32F1xx_HAL_Driver/Inc\stm32f1xx_ll_rcc.h **** 
 733:C:/Users/nace/OneDrive/Desktop/STM32/Projects_nace/NUCLEO_LL_Project_LCD/STM32_NUCLEO_LL_Project_LCD_22_02_2025/Drivers/STM32F1xx_HAL_Driver/Inc\stm32f1xx_ll_rcc.h **** /** @defgroup RCC_LL_EF_HSE HSE
 734:C:/Users/nace/OneDrive/Desktop/STM32/Projects_nace/NUCLEO_LL_Project_LCD/STM32_NUCLEO_LL_Project_LCD_22_02_2025/Drivers/STM32F1xx_HAL_Driver/Inc\stm32f1xx_ll_rcc.h ****   * @{
 735:C:/Users/nace/OneDrive/Desktop/STM32/Projects_nace/NUCLEO_LL_Project_LCD/STM32_NUCLEO_LL_Project_LCD_22_02_2025/Drivers/STM32F1xx_HAL_Driver/Inc\stm32f1xx_ll_rcc.h ****   */
 736:C:/Users/nace/OneDrive/Desktop/STM32/Projects_nace/NUCLEO_LL_Project_LCD/STM32_NUCLEO_LL_Project_LCD_22_02_2025/Drivers/STM32F1xx_HAL_Driver/Inc\stm32f1xx_ll_rcc.h **** 
 737:C:/Users/nace/OneDrive/Desktop/STM32/Projects_nace/NUCLEO_LL_Project_LCD/STM32_NUCLEO_LL_Project_LCD_22_02_2025/Drivers/STM32F1xx_HAL_Driver/Inc\stm32f1xx_ll_rcc.h **** /**
 738:C:/Users/nace/OneDrive/Desktop/STM32/Projects_nace/NUCLEO_LL_Project_LCD/STM32_NUCLEO_LL_Project_LCD_22_02_2025/Drivers/STM32F1xx_HAL_Driver/Inc\stm32f1xx_ll_rcc.h ****   * @brief  Enable the Clock Security System.
 739:C:/Users/nace/OneDrive/Desktop/STM32/Projects_nace/NUCLEO_LL_Project_LCD/STM32_NUCLEO_LL_Project_LCD_22_02_2025/Drivers/STM32F1xx_HAL_Driver/Inc\stm32f1xx_ll_rcc.h ****   * @rmtoll CR           CSSON         LL_RCC_HSE_EnableCSS
 740:C:/Users/nace/OneDrive/Desktop/STM32/Projects_nace/NUCLEO_LL_Project_LCD/STM32_NUCLEO_LL_Project_LCD_22_02_2025/Drivers/STM32F1xx_HAL_Driver/Inc\stm32f1xx_ll_rcc.h ****   * @retval None
 741:C:/Users/nace/OneDrive/Desktop/STM32/Projects_nace/NUCLEO_LL_Project_LCD/STM32_NUCLEO_LL_Project_LCD_22_02_2025/Drivers/STM32F1xx_HAL_Driver/Inc\stm32f1xx_ll_rcc.h ****   */
 742:C:/Users/nace/OneDrive/Desktop/STM32/Projects_nace/NUCLEO_LL_Project_LCD/STM32_NUCLEO_LL_Project_LCD_22_02_2025/Drivers/STM32F1xx_HAL_Driver/Inc\stm32f1xx_ll_rcc.h **** __STATIC_INLINE void LL_RCC_HSE_EnableCSS(void)
 129              		.loc 2 742 22 view .LVU38
 130              	.LBB7:
 743:C:/Users/nace/OneDrive/Desktop/STM32/Projects_nace/NUCLEO_LL_Project_LCD/STM32_NUCLEO_LL_Project_LCD_22_02_2025/Drivers/STM32F1xx_HAL_Driver/Inc\stm32f1xx_ll_rcc.h **** {
 744:C:/Users/nace/OneDrive/Desktop/STM32/Projects_nace/NUCLEO_LL_Project_LCD/STM32_NUCLEO_LL_Project_LCD_22_02_2025/Drivers/STM32F1xx_HAL_Driver/Inc\stm32f1xx_ll_rcc.h ****   SET_BIT(RCC->CR, RCC_CR_CSSON);
 131              		.loc 2 744 3 view .LVU39
 132 0052 0E4A     		ldr	r2, .L6
 133 0054 1368     		ldr	r3, [r2]
 134 0056 43F40023 		orr	r3, r3, #524288
 135 005a 1360     		str	r3, [r2]
 745:C:/Users/nace/OneDrive/Desktop/STM32/Projects_nace/NUCLEO_LL_Project_LCD/STM32_NUCLEO_LL_Project_LCD_22_02_2025/Drivers/STM32F1xx_HAL_Driver/Inc\stm32f1xx_ll_rcc.h **** }
 136              		.loc 2 745 1 is_stmt 0 view .LVU40
 137 005c D7E7     		b	.L4
 138              	.LVL10:
 139              	.L3:
 140              		.loc 2 745 1 view .LVU41
 141              	.LBE7:
 142              	.LBE6:
  48:C:/Users/nace/OneDrive/Desktop/STM32/Projects_nace/NUCLEO_LL_Project_LCD/STM32_NUCLEO_LL_Project_LCD_22_02_2025/Core/Src\nt_system_init.c **** 
 143              		.loc 1 48 9 is_stmt 1 view .LVU42
  48:C:/Users/nace/OneDrive/Desktop/STM32/Projects_nace/NUCLEO_LL_Project_LCD/STM32_NUCLEO_LL_Project_LCD_22_02_2025/Core/Src\nt_system_init.c **** 
 144              		.loc 1 48 32 is_stmt 0 view .LVU43
 145 005e 4FF46011 		mov	r1, #3670016
 146              	.LVL11:
  48:C:/Users/nace/OneDrive/Desktop/STM32/Projects_nace/NUCLEO_LL_Project_LCD/STM32_NUCLEO_LL_Project_LCD_22_02_2025/Core/Src\nt_system_init.c **** 
 147              		.loc 1 48 32 view .LVU44
 148 0062 5160     		str	r1, [r2, #4]
  50:C:/Users/nace/OneDrive/Desktop/STM32/Projects_nace/NUCLEO_LL_Project_LCD/STM32_NUCLEO_LL_Project_LCD_22_02_2025/Core/Src\nt_system_init.c ****         nt_pll_def->nt_APB1_prescaler = LL_RCC_APB1_DIV_2;
 149              		.loc 1 50 9 is_stmt 1 view .LVU45
  50:C:/Users/nace/OneDrive/Desktop/STM32/Projects_nace/NUCLEO_LL_Project_LCD/STM32_NUCLEO_LL_Project_LCD_22_02_2025/Core/Src\nt_system_init.c ****         nt_pll_def->nt_APB1_prescaler = LL_RCC_APB1_DIV_2;
 150              		.loc 1 50 38 is_stmt 0 view .LVU46
 151 0064 0023     		movs	r3, #0
 152 0066 D360     		str	r3, [r2, #12]
  51:C:/Users/nace/OneDrive/Desktop/STM32/Projects_nace/NUCLEO_LL_Project_LCD/STM32_NUCLEO_LL_Project_LCD_22_02_2025/Core/Src\nt_system_init.c ****         nt_pll_def->nt_APB2_prescaler = LL_RCC_APB2_DIV_1;
 153              		.loc 1 51 9 is_stmt 1 view .LVU47
  51:C:/Users/nace/OneDrive/Desktop/STM32/Projects_nace/NUCLEO_LL_Project_LCD/STM32_NUCLEO_LL_Project_LCD_22_02_2025/Core/Src\nt_system_init.c ****         nt_pll_def->nt_APB2_prescaler = LL_RCC_APB2_DIV_1;
 154              		.loc 1 51 39 is_stmt 0 view .LVU48
 155 0068 4FF48062 		mov	r2, #1024
 156              	.LVL12:
  51:C:/Users/nace/OneDrive/Desktop/STM32/Projects_nace/NUCLEO_LL_Project_LCD/STM32_NUCLEO_LL_Project_LCD_22_02_2025/Core/Src\nt_system_init.c ****         nt_pll_def->nt_APB2_prescaler = LL_RCC_APB2_DIV_1;
 157              		.loc 1 51 39 view .LVU49
 158 006c 2261     		str	r2, [r4, #16]
  52:C:/Users/nace/OneDrive/Desktop/STM32/Projects_nace/NUCLEO_LL_Project_LCD/STM32_NUCLEO_LL_Project_LCD_22_02_2025/Core/Src\nt_system_init.c **** 
 159              		.loc 1 52 9 is_stmt 1 view .LVU50
  52:C:/Users/nace/OneDrive/Desktop/STM32/Projects_nace/NUCLEO_LL_Project_LCD/STM32_NUCLEO_LL_Project_LCD_22_02_2025/Core/Src\nt_system_init.c **** 
 160              		.loc 1 52 39 is_stmt 0 view .LVU51
 161 006e 6361     		str	r3, [r4, #20]
  54:C:/Users/nace/OneDrive/Desktop/STM32/Projects_nace/NUCLEO_LL_Project_LCD/STM32_NUCLEO_LL_Project_LCD_22_02_2025/Core/Src\nt_system_init.c ****         LL_UTILS_ClkInitTypeDef HSI_CLK_struct;
 162              		.loc 1 54 9 is_stmt 1 view .LVU52
  55:C:/Users/nace/OneDrive/Desktop/STM32/Projects_nace/NUCLEO_LL_Project_LCD/STM32_NUCLEO_LL_Project_LCD_22_02_2025/Core/Src\nt_system_init.c **** 
 163              		.loc 1 55 9 view .LVU53
  57:C:/Users/nace/OneDrive/Desktop/STM32/Projects_nace/NUCLEO_LL_Project_LCD/STM32_NUCLEO_LL_Project_LCD_22_02_2025/Core/Src\nt_system_init.c **** 
 164              		.loc 1 57 9 view .LVU54
  57:C:/Users/nace/OneDrive/Desktop/STM32/Projects_nace/NUCLEO_LL_Project_LCD/STM32_NUCLEO_LL_Project_LCD_22_02_2025/Core/Src\nt_system_init.c **** 
 165              		.loc 1 57 31 is_stmt 0 view .LVU55
 166 0070 0191     		str	r1, [sp, #4]
  59:C:/Users/nace/OneDrive/Desktop/STM32/Projects_nace/NUCLEO_LL_Project_LCD/STM32_NUCLEO_LL_Project_LCD_22_02_2025/Core/Src\nt_system_init.c ****         HSI_CLK_struct.APB1CLKDivider = nt_pll_def->nt_APB1_prescaler;
 167              		.loc 1 59 9 is_stmt 1 view .LVU56
  59:C:/Users/nace/OneDrive/Desktop/STM32/Projects_nace/NUCLEO_LL_Project_LCD/STM32_NUCLEO_LL_Project_LCD_22_02_2025/Core/Src\nt_system_init.c ****         HSI_CLK_struct.APB1CLKDivider = nt_pll_def->nt_APB1_prescaler;
 168              		.loc 1 59 38 is_stmt 0 view .LVU57
 169 0072 0393     		str	r3, [sp, #12]
  60:C:/Users/nace/OneDrive/Desktop/STM32/Projects_nace/NUCLEO_LL_Project_LCD/STM32_NUCLEO_LL_Project_LCD_22_02_2025/Core/Src\nt_system_init.c ****         HSI_CLK_struct.APB2CLKDivider = nt_pll_def->nt_APB2_prescaler;
 170              		.loc 1 60 9 is_stmt 1 view .LVU58
  60:C:/Users/nace/OneDrive/Desktop/STM32/Projects_nace/NUCLEO_LL_Project_LCD/STM32_NUCLEO_LL_Project_LCD_22_02_2025/Core/Src\nt_system_init.c ****         HSI_CLK_struct.APB2CLKDivider = nt_pll_def->nt_APB2_prescaler;
 171              		.loc 1 60 39 is_stmt 0 view .LVU59
 172 0074 0492     		str	r2, [sp, #16]
  61:C:/Users/nace/OneDrive/Desktop/STM32/Projects_nace/NUCLEO_LL_Project_LCD/STM32_NUCLEO_LL_Project_LCD_22_02_2025/Core/Src\nt_system_init.c **** 
 173              		.loc 1 61 9 is_stmt 1 view .LVU60
  61:C:/Users/nace/OneDrive/Desktop/STM32/Projects_nace/NUCLEO_LL_Project_LCD/STM32_NUCLEO_LL_Project_LCD_22_02_2025/Core/Src\nt_system_init.c **** 
 174              		.loc 1 61 39 is_stmt 0 view .LVU61
 175 0076 0593     		str	r3, [sp, #20]
  63:C:/Users/nace/OneDrive/Desktop/STM32/Projects_nace/NUCLEO_LL_Project_LCD/STM32_NUCLEO_LL_Project_LCD_22_02_2025/Core/Src\nt_system_init.c **** 
 176              		.loc 1 63 9 is_stmt 1 view .LVU62
  63:C:/Users/nace/OneDrive/Desktop/STM32/Projects_nace/NUCLEO_LL_Project_LCD/STM32_NUCLEO_LL_Project_LCD_22_02_2025/Core/Src\nt_system_init.c **** 
 177              		.loc 1 63 18 is_stmt 0 view .LVU63
 178 0078 03A9     		add	r1, sp, #12
 179 007a 01A8     		add	r0, sp, #4
 180              	.LVL13:
  63:C:/Users/nace/OneDrive/Desktop/STM32/Projects_nace/NUCLEO_LL_Project_LCD/STM32_NUCLEO_LL_Project_LCD_22_02_2025/Core/Src\nt_system_init.c **** 
 181              		.loc 1 63 18 view .LVU64
 182 007c FFF7FEFF 		bl	LL_PLL_ConfigSystemClock_HSI
 183              	.LVL14:
 184 0080 0546     		mov	r5, r0
 185              	.LVL15:
  65:C:/Users/nace/OneDrive/Desktop/STM32/Projects_nace/NUCLEO_LL_Project_LCD/STM32_NUCLEO_LL_Project_LCD_22_02_2025/Core/Src\nt_system_init.c **** 
 186              		.loc 1 65 9 is_stmt 1 view .LVU65
 187 0082 2068     		ldr	r0, [r4]
 188 0084 FFF7FEFF 		bl	LL_Init1msTick
 189              	.LVL16:
  67:C:/Users/nace/OneDrive/Desktop/STM32/Projects_nace/NUCLEO_LL_Project_LCD/STM32_NUCLEO_LL_Project_LCD_22_02_2025/Core/Src\nt_system_init.c **** 
 190              		.loc 1 67 9 view .LVU66
 191 0088 C1E7     		b	.L4
 192              	.L7:
 193 008a 00BF     		.align	2
 194              	.L6:
 195 008c 00100240 		.word	1073876992
 196              	.LBE5:
 197              		.cfi_endproc
 198              	.LFE152:
 200              		.text
 201              	.Letext0:
 202              		.file 3 "C:\\ST\\STM32CubeCLT_1.16.0\\GNU-tools-for-STM32\\bin\\../lib/gcc/arm-none-eabi/12.3.1/..
 203              		.file 4 "C:\\ST\\STM32CubeCLT_1.16.0\\GNU-tools-for-STM32\\bin\\../lib/gcc/arm-none-eabi/12.3.1/..
 204              		.file 5 "C:/Users/nace/OneDrive/Desktop/STM32/Projects_nace/NUCLEO_LL_Project_LCD/STM32_NUCLEO_LL_
 205              		.file 6 "C:/Users/nace/OneDrive/Desktop/STM32/Projects_nace/NUCLEO_LL_Project_LCD/STM32_NUCLEO_LL_
 206              		.file 7 "C:/Users/nace/OneDrive/Desktop/STM32/Projects_nace/NUCLEO_LL_Project_LCD/STM32_NUCLEO_LL_
 207              		.file 8 "C:/Users/nace/OneDrive/Desktop/STM32/Projects_nace/NUCLEO_LL_Project_LCD/STM32_NUCLEO_LL_
