   1              		.cpu cortex-m3
   2              		.arch armv7-m
   3              		.fpu softvfp
   4              		.eabi_attribute 20, 1
   5              		.eabi_attribute 21, 1
   6              		.eabi_attribute 23, 3
   7              		.eabi_attribute 24, 1
   8              		.eabi_attribute 25, 1
   9              		.eabi_attribute 26, 1
  10              		.eabi_attribute 30, 1
  11              		.eabi_attribute 34, 1
  12              		.eabi_attribute 18, 4
  13              		.file	"nt_usart.c"
  14              		.text
  15              	.Ltext0:
  16              		.cfi_sections	.debug_frame
  17              		.file 1 "C:/Users/nace/OneDrive/Desktop/STM32/Projects_nace/NUCLEO_LL_Project_LCD/STM32_template_p
  18              		.section	.text.nt_usart2_Init,"ax",%progbits
  19              		.align	1
  20              		.global	nt_usart2_Init
  21              		.syntax unified
  22              		.thumb
  23              		.thumb_func
  25              	nt_usart2_Init:
  26              	.LFB269:
   1:C:/Users/nace/OneDrive/Desktop/STM32/Projects_nace/NUCLEO_LL_Project_LCD/STM32_template_proj/Core/Src\nt_usart.c **** #include <stdint.h>
   2:C:/Users/nace/OneDrive/Desktop/STM32/Projects_nace/NUCLEO_LL_Project_LCD/STM32_template_proj/Core/Src\nt_usart.c **** 
   3:C:/Users/nace/OneDrive/Desktop/STM32/Projects_nace/NUCLEO_LL_Project_LCD/STM32_template_proj/Core/Src\nt_usart.c **** #include "stm32f1xx_ll_bus.h"
   4:C:/Users/nace/OneDrive/Desktop/STM32/Projects_nace/NUCLEO_LL_Project_LCD/STM32_template_proj/Core/Src\nt_usart.c **** #include "stm32f1xx_ll_gpio.h"
   5:C:/Users/nace/OneDrive/Desktop/STM32/Projects_nace/NUCLEO_LL_Project_LCD/STM32_template_proj/Core/Src\nt_usart.c **** #include "stm32f1xx_ll_usart.h"
   6:C:/Users/nace/OneDrive/Desktop/STM32/Projects_nace/NUCLEO_LL_Project_LCD/STM32_template_proj/Core/Src\nt_usart.c **** #include "stm32f103xb.h" 
   7:C:/Users/nace/OneDrive/Desktop/STM32/Projects_nace/NUCLEO_LL_Project_LCD/STM32_template_proj/Core/Src\nt_usart.c **** 
   8:C:/Users/nace/OneDrive/Desktop/STM32/Projects_nace/NUCLEO_LL_Project_LCD/STM32_template_proj/Core/Src\nt_usart.c **** #include "nt_usart.h"
   9:C:/Users/nace/OneDrive/Desktop/STM32/Projects_nace/NUCLEO_LL_Project_LCD/STM32_template_proj/Core/Src\nt_usart.c **** 
  10:C:/Users/nace/OneDrive/Desktop/STM32/Projects_nace/NUCLEO_LL_Project_LCD/STM32_template_proj/Core/Src\nt_usart.c **** void nt_usart2_Init(void)
  11:C:/Users/nace/OneDrive/Desktop/STM32/Projects_nace/NUCLEO_LL_Project_LCD/STM32_template_proj/Core/Src\nt_usart.c **** {
  27              		.loc 1 11 1 view -0
  28              		.cfi_startproc
  29              		@ args = 0, pretend = 0, frame = 56
  30              		@ frame_needed = 0, uses_anonymous_args = 0
  31 0000 70B5     		push	{r4, r5, r6, lr}
  32              		.cfi_def_cfa_offset 16
  33              		.cfi_offset 4, -16
  34              		.cfi_offset 5, -12
  35              		.cfi_offset 6, -8
  36              		.cfi_offset 14, -4
  37 0002 8EB0     		sub	sp, sp, #56
  38              		.cfi_def_cfa_offset 72
  12:C:/Users/nace/OneDrive/Desktop/STM32/Projects_nace/NUCLEO_LL_Project_LCD/STM32_template_proj/Core/Src\nt_usart.c ****   LL_USART_InitTypeDef USART_InitStruct = {0};
  39              		.loc 1 12 3 view .LVU1
  40              		.loc 1 12 24 is_stmt 0 view .LVU2
  41 0004 0024     		movs	r4, #0
  42 0006 0794     		str	r4, [sp, #28]
  43 0008 0894     		str	r4, [sp, #32]
  44 000a 0994     		str	r4, [sp, #36]
  45 000c 0A94     		str	r4, [sp, #40]
  46 000e 0B94     		str	r4, [sp, #44]
  47 0010 0C94     		str	r4, [sp, #48]
  48 0012 0D94     		str	r4, [sp, #52]
  13:C:/Users/nace/OneDrive/Desktop/STM32/Projects_nace/NUCLEO_LL_Project_LCD/STM32_template_proj/Core/Src\nt_usart.c ****   LL_GPIO_InitTypeDef GPIO_InitStruct = {0};
  49              		.loc 1 13 3 is_stmt 1 view .LVU3
  50              		.loc 1 13 23 is_stmt 0 view .LVU4
  51 0014 0294     		str	r4, [sp, #8]
  52 0016 0394     		str	r4, [sp, #12]
  53 0018 0494     		str	r4, [sp, #16]
  54 001a 0594     		str	r4, [sp, #20]
  55 001c 0694     		str	r4, [sp, #24]
  14:C:/Users/nace/OneDrive/Desktop/STM32/Projects_nace/NUCLEO_LL_Project_LCD/STM32_template_proj/Core/Src\nt_usart.c **** 
  15:C:/Users/nace/OneDrive/Desktop/STM32/Projects_nace/NUCLEO_LL_Project_LCD/STM32_template_proj/Core/Src\nt_usart.c ****   LL_APB1_GRP1_EnableClock(LL_APB1_GRP1_PERIPH_USART2);
  56              		.loc 1 15 3 is_stmt 1 view .LVU5
  57              	.LVL0:
  58              	.LBB14:
  59              	.LBI14:
  60              		.file 2 "C:/Users/nace/OneDrive/Desktop/STM32/Projects_nace/NUCLEO_LL_Project_LCD/STM32_template_p
   1:C:/Users/nace/OneDrive/Desktop/STM32/Projects_nace/NUCLEO_LL_Project_LCD/STM32_template_proj/Drivers/STM32F1xx_HAL_Driver/Inc\stm32f1xx_ll_bus.h **** /**
   2:C:/Users/nace/OneDrive/Desktop/STM32/Projects_nace/NUCLEO_LL_Project_LCD/STM32_template_proj/Drivers/STM32F1xx_HAL_Driver/Inc\stm32f1xx_ll_bus.h ****   ******************************************************************************
   3:C:/Users/nace/OneDrive/Desktop/STM32/Projects_nace/NUCLEO_LL_Project_LCD/STM32_template_proj/Drivers/STM32F1xx_HAL_Driver/Inc\stm32f1xx_ll_bus.h ****   * @file    stm32f1xx_ll_bus.h
   4:C:/Users/nace/OneDrive/Desktop/STM32/Projects_nace/NUCLEO_LL_Project_LCD/STM32_template_proj/Drivers/STM32F1xx_HAL_Driver/Inc\stm32f1xx_ll_bus.h ****   * @author  MCD Application Team
   5:C:/Users/nace/OneDrive/Desktop/STM32/Projects_nace/NUCLEO_LL_Project_LCD/STM32_template_proj/Drivers/STM32F1xx_HAL_Driver/Inc\stm32f1xx_ll_bus.h ****   * @brief   Header file of BUS LL module.
   6:C:/Users/nace/OneDrive/Desktop/STM32/Projects_nace/NUCLEO_LL_Project_LCD/STM32_template_proj/Drivers/STM32F1xx_HAL_Driver/Inc\stm32f1xx_ll_bus.h **** 
   7:C:/Users/nace/OneDrive/Desktop/STM32/Projects_nace/NUCLEO_LL_Project_LCD/STM32_template_proj/Drivers/STM32F1xx_HAL_Driver/Inc\stm32f1xx_ll_bus.h ****   @verbatim
   8:C:/Users/nace/OneDrive/Desktop/STM32/Projects_nace/NUCLEO_LL_Project_LCD/STM32_template_proj/Drivers/STM32F1xx_HAL_Driver/Inc\stm32f1xx_ll_bus.h ****                       ##### RCC Limitations #####
   9:C:/Users/nace/OneDrive/Desktop/STM32/Projects_nace/NUCLEO_LL_Project_LCD/STM32_template_proj/Drivers/STM32F1xx_HAL_Driver/Inc\stm32f1xx_ll_bus.h ****   ==============================================================================
  10:C:/Users/nace/OneDrive/Desktop/STM32/Projects_nace/NUCLEO_LL_Project_LCD/STM32_template_proj/Drivers/STM32F1xx_HAL_Driver/Inc\stm32f1xx_ll_bus.h ****     [..]
  11:C:/Users/nace/OneDrive/Desktop/STM32/Projects_nace/NUCLEO_LL_Project_LCD/STM32_template_proj/Drivers/STM32F1xx_HAL_Driver/Inc\stm32f1xx_ll_bus.h ****       A delay between an RCC peripheral clock enable and the effective peripheral
  12:C:/Users/nace/OneDrive/Desktop/STM32/Projects_nace/NUCLEO_LL_Project_LCD/STM32_template_proj/Drivers/STM32F1xx_HAL_Driver/Inc\stm32f1xx_ll_bus.h ****       enabling should be taken into account in order to manage the peripheral read/write
  13:C:/Users/nace/OneDrive/Desktop/STM32/Projects_nace/NUCLEO_LL_Project_LCD/STM32_template_proj/Drivers/STM32F1xx_HAL_Driver/Inc\stm32f1xx_ll_bus.h ****       from/to registers.
  14:C:/Users/nace/OneDrive/Desktop/STM32/Projects_nace/NUCLEO_LL_Project_LCD/STM32_template_proj/Drivers/STM32F1xx_HAL_Driver/Inc\stm32f1xx_ll_bus.h ****       (+) This delay depends on the peripheral mapping.
  15:C:/Users/nace/OneDrive/Desktop/STM32/Projects_nace/NUCLEO_LL_Project_LCD/STM32_template_proj/Drivers/STM32F1xx_HAL_Driver/Inc\stm32f1xx_ll_bus.h ****         (++) AHB & APB peripherals, 1 dummy read is necessary
  16:C:/Users/nace/OneDrive/Desktop/STM32/Projects_nace/NUCLEO_LL_Project_LCD/STM32_template_proj/Drivers/STM32F1xx_HAL_Driver/Inc\stm32f1xx_ll_bus.h **** 
  17:C:/Users/nace/OneDrive/Desktop/STM32/Projects_nace/NUCLEO_LL_Project_LCD/STM32_template_proj/Drivers/STM32F1xx_HAL_Driver/Inc\stm32f1xx_ll_bus.h ****     [..]
  18:C:/Users/nace/OneDrive/Desktop/STM32/Projects_nace/NUCLEO_LL_Project_LCD/STM32_template_proj/Drivers/STM32F1xx_HAL_Driver/Inc\stm32f1xx_ll_bus.h ****       Workarounds:
  19:C:/Users/nace/OneDrive/Desktop/STM32/Projects_nace/NUCLEO_LL_Project_LCD/STM32_template_proj/Drivers/STM32F1xx_HAL_Driver/Inc\stm32f1xx_ll_bus.h ****       (#) For AHB & APB peripherals, a dummy read to the peripheral register has been
  20:C:/Users/nace/OneDrive/Desktop/STM32/Projects_nace/NUCLEO_LL_Project_LCD/STM32_template_proj/Drivers/STM32F1xx_HAL_Driver/Inc\stm32f1xx_ll_bus.h ****           inserted in each LL_{BUS}_GRP{x}_EnableClock() function.
  21:C:/Users/nace/OneDrive/Desktop/STM32/Projects_nace/NUCLEO_LL_Project_LCD/STM32_template_proj/Drivers/STM32F1xx_HAL_Driver/Inc\stm32f1xx_ll_bus.h **** 
  22:C:/Users/nace/OneDrive/Desktop/STM32/Projects_nace/NUCLEO_LL_Project_LCD/STM32_template_proj/Drivers/STM32F1xx_HAL_Driver/Inc\stm32f1xx_ll_bus.h ****   @endverbatim
  23:C:/Users/nace/OneDrive/Desktop/STM32/Projects_nace/NUCLEO_LL_Project_LCD/STM32_template_proj/Drivers/STM32F1xx_HAL_Driver/Inc\stm32f1xx_ll_bus.h ****   ******************************************************************************
  24:C:/Users/nace/OneDrive/Desktop/STM32/Projects_nace/NUCLEO_LL_Project_LCD/STM32_template_proj/Drivers/STM32F1xx_HAL_Driver/Inc\stm32f1xx_ll_bus.h ****   * @attention
  25:C:/Users/nace/OneDrive/Desktop/STM32/Projects_nace/NUCLEO_LL_Project_LCD/STM32_template_proj/Drivers/STM32F1xx_HAL_Driver/Inc\stm32f1xx_ll_bus.h ****   *
  26:C:/Users/nace/OneDrive/Desktop/STM32/Projects_nace/NUCLEO_LL_Project_LCD/STM32_template_proj/Drivers/STM32F1xx_HAL_Driver/Inc\stm32f1xx_ll_bus.h ****   * Copyright (c) 2016 STMicroelectronics.
  27:C:/Users/nace/OneDrive/Desktop/STM32/Projects_nace/NUCLEO_LL_Project_LCD/STM32_template_proj/Drivers/STM32F1xx_HAL_Driver/Inc\stm32f1xx_ll_bus.h ****   * All rights reserved.
  28:C:/Users/nace/OneDrive/Desktop/STM32/Projects_nace/NUCLEO_LL_Project_LCD/STM32_template_proj/Drivers/STM32F1xx_HAL_Driver/Inc\stm32f1xx_ll_bus.h ****   *
  29:C:/Users/nace/OneDrive/Desktop/STM32/Projects_nace/NUCLEO_LL_Project_LCD/STM32_template_proj/Drivers/STM32F1xx_HAL_Driver/Inc\stm32f1xx_ll_bus.h ****   * This software is licensed under terms that can be found in the LICENSE file in
  30:C:/Users/nace/OneDrive/Desktop/STM32/Projects_nace/NUCLEO_LL_Project_LCD/STM32_template_proj/Drivers/STM32F1xx_HAL_Driver/Inc\stm32f1xx_ll_bus.h ****   * the root directory of this software component.
  31:C:/Users/nace/OneDrive/Desktop/STM32/Projects_nace/NUCLEO_LL_Project_LCD/STM32_template_proj/Drivers/STM32F1xx_HAL_Driver/Inc\stm32f1xx_ll_bus.h ****   * If no LICENSE file comes with this software, it is provided AS-IS.
  32:C:/Users/nace/OneDrive/Desktop/STM32/Projects_nace/NUCLEO_LL_Project_LCD/STM32_template_proj/Drivers/STM32F1xx_HAL_Driver/Inc\stm32f1xx_ll_bus.h ****   ******************************************************************************
  33:C:/Users/nace/OneDrive/Desktop/STM32/Projects_nace/NUCLEO_LL_Project_LCD/STM32_template_proj/Drivers/STM32F1xx_HAL_Driver/Inc\stm32f1xx_ll_bus.h ****   */
  34:C:/Users/nace/OneDrive/Desktop/STM32/Projects_nace/NUCLEO_LL_Project_LCD/STM32_template_proj/Drivers/STM32F1xx_HAL_Driver/Inc\stm32f1xx_ll_bus.h **** 
  35:C:/Users/nace/OneDrive/Desktop/STM32/Projects_nace/NUCLEO_LL_Project_LCD/STM32_template_proj/Drivers/STM32F1xx_HAL_Driver/Inc\stm32f1xx_ll_bus.h **** /* Define to prevent recursive inclusion -------------------------------------*/
  36:C:/Users/nace/OneDrive/Desktop/STM32/Projects_nace/NUCLEO_LL_Project_LCD/STM32_template_proj/Drivers/STM32F1xx_HAL_Driver/Inc\stm32f1xx_ll_bus.h **** #ifndef __STM32F1xx_LL_BUS_H
  37:C:/Users/nace/OneDrive/Desktop/STM32/Projects_nace/NUCLEO_LL_Project_LCD/STM32_template_proj/Drivers/STM32F1xx_HAL_Driver/Inc\stm32f1xx_ll_bus.h **** #define __STM32F1xx_LL_BUS_H
  38:C:/Users/nace/OneDrive/Desktop/STM32/Projects_nace/NUCLEO_LL_Project_LCD/STM32_template_proj/Drivers/STM32F1xx_HAL_Driver/Inc\stm32f1xx_ll_bus.h **** 
  39:C:/Users/nace/OneDrive/Desktop/STM32/Projects_nace/NUCLEO_LL_Project_LCD/STM32_template_proj/Drivers/STM32F1xx_HAL_Driver/Inc\stm32f1xx_ll_bus.h **** #ifdef __cplusplus
  40:C:/Users/nace/OneDrive/Desktop/STM32/Projects_nace/NUCLEO_LL_Project_LCD/STM32_template_proj/Drivers/STM32F1xx_HAL_Driver/Inc\stm32f1xx_ll_bus.h **** extern "C" {
  41:C:/Users/nace/OneDrive/Desktop/STM32/Projects_nace/NUCLEO_LL_Project_LCD/STM32_template_proj/Drivers/STM32F1xx_HAL_Driver/Inc\stm32f1xx_ll_bus.h **** #endif
  42:C:/Users/nace/OneDrive/Desktop/STM32/Projects_nace/NUCLEO_LL_Project_LCD/STM32_template_proj/Drivers/STM32F1xx_HAL_Driver/Inc\stm32f1xx_ll_bus.h **** 
  43:C:/Users/nace/OneDrive/Desktop/STM32/Projects_nace/NUCLEO_LL_Project_LCD/STM32_template_proj/Drivers/STM32F1xx_HAL_Driver/Inc\stm32f1xx_ll_bus.h **** /* Includes ------------------------------------------------------------------*/
  44:C:/Users/nace/OneDrive/Desktop/STM32/Projects_nace/NUCLEO_LL_Project_LCD/STM32_template_proj/Drivers/STM32F1xx_HAL_Driver/Inc\stm32f1xx_ll_bus.h **** #include "stm32f1xx.h"
  45:C:/Users/nace/OneDrive/Desktop/STM32/Projects_nace/NUCLEO_LL_Project_LCD/STM32_template_proj/Drivers/STM32F1xx_HAL_Driver/Inc\stm32f1xx_ll_bus.h **** 
  46:C:/Users/nace/OneDrive/Desktop/STM32/Projects_nace/NUCLEO_LL_Project_LCD/STM32_template_proj/Drivers/STM32F1xx_HAL_Driver/Inc\stm32f1xx_ll_bus.h **** /** @addtogroup STM32F1xx_LL_Driver
  47:C:/Users/nace/OneDrive/Desktop/STM32/Projects_nace/NUCLEO_LL_Project_LCD/STM32_template_proj/Drivers/STM32F1xx_HAL_Driver/Inc\stm32f1xx_ll_bus.h ****   * @{
  48:C:/Users/nace/OneDrive/Desktop/STM32/Projects_nace/NUCLEO_LL_Project_LCD/STM32_template_proj/Drivers/STM32F1xx_HAL_Driver/Inc\stm32f1xx_ll_bus.h ****   */
  49:C:/Users/nace/OneDrive/Desktop/STM32/Projects_nace/NUCLEO_LL_Project_LCD/STM32_template_proj/Drivers/STM32F1xx_HAL_Driver/Inc\stm32f1xx_ll_bus.h **** 
  50:C:/Users/nace/OneDrive/Desktop/STM32/Projects_nace/NUCLEO_LL_Project_LCD/STM32_template_proj/Drivers/STM32F1xx_HAL_Driver/Inc\stm32f1xx_ll_bus.h **** #if defined(RCC)
  51:C:/Users/nace/OneDrive/Desktop/STM32/Projects_nace/NUCLEO_LL_Project_LCD/STM32_template_proj/Drivers/STM32F1xx_HAL_Driver/Inc\stm32f1xx_ll_bus.h **** 
  52:C:/Users/nace/OneDrive/Desktop/STM32/Projects_nace/NUCLEO_LL_Project_LCD/STM32_template_proj/Drivers/STM32F1xx_HAL_Driver/Inc\stm32f1xx_ll_bus.h **** /** @defgroup BUS_LL BUS
  53:C:/Users/nace/OneDrive/Desktop/STM32/Projects_nace/NUCLEO_LL_Project_LCD/STM32_template_proj/Drivers/STM32F1xx_HAL_Driver/Inc\stm32f1xx_ll_bus.h ****   * @{
  54:C:/Users/nace/OneDrive/Desktop/STM32/Projects_nace/NUCLEO_LL_Project_LCD/STM32_template_proj/Drivers/STM32F1xx_HAL_Driver/Inc\stm32f1xx_ll_bus.h ****   */
  55:C:/Users/nace/OneDrive/Desktop/STM32/Projects_nace/NUCLEO_LL_Project_LCD/STM32_template_proj/Drivers/STM32F1xx_HAL_Driver/Inc\stm32f1xx_ll_bus.h **** 
  56:C:/Users/nace/OneDrive/Desktop/STM32/Projects_nace/NUCLEO_LL_Project_LCD/STM32_template_proj/Drivers/STM32F1xx_HAL_Driver/Inc\stm32f1xx_ll_bus.h **** /* Private types -------------------------------------------------------------*/
  57:C:/Users/nace/OneDrive/Desktop/STM32/Projects_nace/NUCLEO_LL_Project_LCD/STM32_template_proj/Drivers/STM32F1xx_HAL_Driver/Inc\stm32f1xx_ll_bus.h **** /* Private variables ---------------------------------------------------------*/
  58:C:/Users/nace/OneDrive/Desktop/STM32/Projects_nace/NUCLEO_LL_Project_LCD/STM32_template_proj/Drivers/STM32F1xx_HAL_Driver/Inc\stm32f1xx_ll_bus.h **** 
  59:C:/Users/nace/OneDrive/Desktop/STM32/Projects_nace/NUCLEO_LL_Project_LCD/STM32_template_proj/Drivers/STM32F1xx_HAL_Driver/Inc\stm32f1xx_ll_bus.h **** /* Private constants ---------------------------------------------------------*/
  60:C:/Users/nace/OneDrive/Desktop/STM32/Projects_nace/NUCLEO_LL_Project_LCD/STM32_template_proj/Drivers/STM32F1xx_HAL_Driver/Inc\stm32f1xx_ll_bus.h **** #if defined(RCC_AHBRSTR_OTGFSRST) || defined(RCC_AHBRSTR_ETHMACRST)
  61:C:/Users/nace/OneDrive/Desktop/STM32/Projects_nace/NUCLEO_LL_Project_LCD/STM32_template_proj/Drivers/STM32F1xx_HAL_Driver/Inc\stm32f1xx_ll_bus.h **** #define RCC_AHBRSTR_SUPPORT
  62:C:/Users/nace/OneDrive/Desktop/STM32/Projects_nace/NUCLEO_LL_Project_LCD/STM32_template_proj/Drivers/STM32F1xx_HAL_Driver/Inc\stm32f1xx_ll_bus.h **** #endif /* RCC_AHBRSTR_OTGFSRST || RCC_AHBRSTR_ETHMACRST */
  63:C:/Users/nace/OneDrive/Desktop/STM32/Projects_nace/NUCLEO_LL_Project_LCD/STM32_template_proj/Drivers/STM32F1xx_HAL_Driver/Inc\stm32f1xx_ll_bus.h **** 
  64:C:/Users/nace/OneDrive/Desktop/STM32/Projects_nace/NUCLEO_LL_Project_LCD/STM32_template_proj/Drivers/STM32F1xx_HAL_Driver/Inc\stm32f1xx_ll_bus.h **** /* Private macros ------------------------------------------------------------*/
  65:C:/Users/nace/OneDrive/Desktop/STM32/Projects_nace/NUCLEO_LL_Project_LCD/STM32_template_proj/Drivers/STM32F1xx_HAL_Driver/Inc\stm32f1xx_ll_bus.h **** 
  66:C:/Users/nace/OneDrive/Desktop/STM32/Projects_nace/NUCLEO_LL_Project_LCD/STM32_template_proj/Drivers/STM32F1xx_HAL_Driver/Inc\stm32f1xx_ll_bus.h **** /* Exported types ------------------------------------------------------------*/
  67:C:/Users/nace/OneDrive/Desktop/STM32/Projects_nace/NUCLEO_LL_Project_LCD/STM32_template_proj/Drivers/STM32F1xx_HAL_Driver/Inc\stm32f1xx_ll_bus.h **** /* Exported constants --------------------------------------------------------*/
  68:C:/Users/nace/OneDrive/Desktop/STM32/Projects_nace/NUCLEO_LL_Project_LCD/STM32_template_proj/Drivers/STM32F1xx_HAL_Driver/Inc\stm32f1xx_ll_bus.h **** /** @defgroup BUS_LL_Exported_Constants BUS Exported Constants
  69:C:/Users/nace/OneDrive/Desktop/STM32/Projects_nace/NUCLEO_LL_Project_LCD/STM32_template_proj/Drivers/STM32F1xx_HAL_Driver/Inc\stm32f1xx_ll_bus.h ****   * @{
  70:C:/Users/nace/OneDrive/Desktop/STM32/Projects_nace/NUCLEO_LL_Project_LCD/STM32_template_proj/Drivers/STM32F1xx_HAL_Driver/Inc\stm32f1xx_ll_bus.h ****   */
  71:C:/Users/nace/OneDrive/Desktop/STM32/Projects_nace/NUCLEO_LL_Project_LCD/STM32_template_proj/Drivers/STM32F1xx_HAL_Driver/Inc\stm32f1xx_ll_bus.h **** 
  72:C:/Users/nace/OneDrive/Desktop/STM32/Projects_nace/NUCLEO_LL_Project_LCD/STM32_template_proj/Drivers/STM32F1xx_HAL_Driver/Inc\stm32f1xx_ll_bus.h **** /** @defgroup BUS_LL_EC_AHB1_GRP1_PERIPH  AHB1 GRP1 PERIPH
  73:C:/Users/nace/OneDrive/Desktop/STM32/Projects_nace/NUCLEO_LL_Project_LCD/STM32_template_proj/Drivers/STM32F1xx_HAL_Driver/Inc\stm32f1xx_ll_bus.h ****   * @{
  74:C:/Users/nace/OneDrive/Desktop/STM32/Projects_nace/NUCLEO_LL_Project_LCD/STM32_template_proj/Drivers/STM32F1xx_HAL_Driver/Inc\stm32f1xx_ll_bus.h ****   */
  75:C:/Users/nace/OneDrive/Desktop/STM32/Projects_nace/NUCLEO_LL_Project_LCD/STM32_template_proj/Drivers/STM32F1xx_HAL_Driver/Inc\stm32f1xx_ll_bus.h **** #define LL_AHB1_GRP1_PERIPH_ALL            (uint32_t)0xFFFFFFFFU
  76:C:/Users/nace/OneDrive/Desktop/STM32/Projects_nace/NUCLEO_LL_Project_LCD/STM32_template_proj/Drivers/STM32F1xx_HAL_Driver/Inc\stm32f1xx_ll_bus.h **** #define LL_AHB1_GRP1_PERIPH_CRC            RCC_AHBENR_CRCEN
  77:C:/Users/nace/OneDrive/Desktop/STM32/Projects_nace/NUCLEO_LL_Project_LCD/STM32_template_proj/Drivers/STM32F1xx_HAL_Driver/Inc\stm32f1xx_ll_bus.h **** #define LL_AHB1_GRP1_PERIPH_DMA1           RCC_AHBENR_DMA1EN
  78:C:/Users/nace/OneDrive/Desktop/STM32/Projects_nace/NUCLEO_LL_Project_LCD/STM32_template_proj/Drivers/STM32F1xx_HAL_Driver/Inc\stm32f1xx_ll_bus.h **** #if defined(DMA2)
  79:C:/Users/nace/OneDrive/Desktop/STM32/Projects_nace/NUCLEO_LL_Project_LCD/STM32_template_proj/Drivers/STM32F1xx_HAL_Driver/Inc\stm32f1xx_ll_bus.h **** #define LL_AHB1_GRP1_PERIPH_DMA2           RCC_AHBENR_DMA2EN
  80:C:/Users/nace/OneDrive/Desktop/STM32/Projects_nace/NUCLEO_LL_Project_LCD/STM32_template_proj/Drivers/STM32F1xx_HAL_Driver/Inc\stm32f1xx_ll_bus.h **** #endif /*DMA2*/
  81:C:/Users/nace/OneDrive/Desktop/STM32/Projects_nace/NUCLEO_LL_Project_LCD/STM32_template_proj/Drivers/STM32F1xx_HAL_Driver/Inc\stm32f1xx_ll_bus.h **** #if defined(ETH)
  82:C:/Users/nace/OneDrive/Desktop/STM32/Projects_nace/NUCLEO_LL_Project_LCD/STM32_template_proj/Drivers/STM32F1xx_HAL_Driver/Inc\stm32f1xx_ll_bus.h **** #define LL_AHB1_GRP1_PERIPH_ETHMAC         RCC_AHBENR_ETHMACEN
  83:C:/Users/nace/OneDrive/Desktop/STM32/Projects_nace/NUCLEO_LL_Project_LCD/STM32_template_proj/Drivers/STM32F1xx_HAL_Driver/Inc\stm32f1xx_ll_bus.h **** #define LL_AHB1_GRP1_PERIPH_ETHMACRX       RCC_AHBENR_ETHMACRXEN
  84:C:/Users/nace/OneDrive/Desktop/STM32/Projects_nace/NUCLEO_LL_Project_LCD/STM32_template_proj/Drivers/STM32F1xx_HAL_Driver/Inc\stm32f1xx_ll_bus.h **** #define LL_AHB1_GRP1_PERIPH_ETHMACTX       RCC_AHBENR_ETHMACTXEN
  85:C:/Users/nace/OneDrive/Desktop/STM32/Projects_nace/NUCLEO_LL_Project_LCD/STM32_template_proj/Drivers/STM32F1xx_HAL_Driver/Inc\stm32f1xx_ll_bus.h **** #endif /*ETH*/
  86:C:/Users/nace/OneDrive/Desktop/STM32/Projects_nace/NUCLEO_LL_Project_LCD/STM32_template_proj/Drivers/STM32F1xx_HAL_Driver/Inc\stm32f1xx_ll_bus.h **** #define LL_AHB1_GRP1_PERIPH_FLASH          RCC_AHBENR_FLITFEN
  87:C:/Users/nace/OneDrive/Desktop/STM32/Projects_nace/NUCLEO_LL_Project_LCD/STM32_template_proj/Drivers/STM32F1xx_HAL_Driver/Inc\stm32f1xx_ll_bus.h **** #if defined(FSMC_Bank1)
  88:C:/Users/nace/OneDrive/Desktop/STM32/Projects_nace/NUCLEO_LL_Project_LCD/STM32_template_proj/Drivers/STM32F1xx_HAL_Driver/Inc\stm32f1xx_ll_bus.h **** #define LL_AHB1_GRP1_PERIPH_FSMC           RCC_AHBENR_FSMCEN
  89:C:/Users/nace/OneDrive/Desktop/STM32/Projects_nace/NUCLEO_LL_Project_LCD/STM32_template_proj/Drivers/STM32F1xx_HAL_Driver/Inc\stm32f1xx_ll_bus.h **** #endif /*FSMC_Bank1*/
  90:C:/Users/nace/OneDrive/Desktop/STM32/Projects_nace/NUCLEO_LL_Project_LCD/STM32_template_proj/Drivers/STM32F1xx_HAL_Driver/Inc\stm32f1xx_ll_bus.h **** #if defined(USB_OTG_FS)
  91:C:/Users/nace/OneDrive/Desktop/STM32/Projects_nace/NUCLEO_LL_Project_LCD/STM32_template_proj/Drivers/STM32F1xx_HAL_Driver/Inc\stm32f1xx_ll_bus.h **** #define LL_AHB1_GRP1_PERIPH_OTGFS          RCC_AHBENR_OTGFSEN
  92:C:/Users/nace/OneDrive/Desktop/STM32/Projects_nace/NUCLEO_LL_Project_LCD/STM32_template_proj/Drivers/STM32F1xx_HAL_Driver/Inc\stm32f1xx_ll_bus.h **** #endif /*USB_OTG_FS*/
  93:C:/Users/nace/OneDrive/Desktop/STM32/Projects_nace/NUCLEO_LL_Project_LCD/STM32_template_proj/Drivers/STM32F1xx_HAL_Driver/Inc\stm32f1xx_ll_bus.h **** #if defined(SDIO)
  94:C:/Users/nace/OneDrive/Desktop/STM32/Projects_nace/NUCLEO_LL_Project_LCD/STM32_template_proj/Drivers/STM32F1xx_HAL_Driver/Inc\stm32f1xx_ll_bus.h **** #define LL_AHB1_GRP1_PERIPH_SDIO           RCC_AHBENR_SDIOEN
  95:C:/Users/nace/OneDrive/Desktop/STM32/Projects_nace/NUCLEO_LL_Project_LCD/STM32_template_proj/Drivers/STM32F1xx_HAL_Driver/Inc\stm32f1xx_ll_bus.h **** #endif /*SDIO*/
  96:C:/Users/nace/OneDrive/Desktop/STM32/Projects_nace/NUCLEO_LL_Project_LCD/STM32_template_proj/Drivers/STM32F1xx_HAL_Driver/Inc\stm32f1xx_ll_bus.h **** #define LL_AHB1_GRP1_PERIPH_SRAM           RCC_AHBENR_SRAMEN
  97:C:/Users/nace/OneDrive/Desktop/STM32/Projects_nace/NUCLEO_LL_Project_LCD/STM32_template_proj/Drivers/STM32F1xx_HAL_Driver/Inc\stm32f1xx_ll_bus.h **** /**
  98:C:/Users/nace/OneDrive/Desktop/STM32/Projects_nace/NUCLEO_LL_Project_LCD/STM32_template_proj/Drivers/STM32F1xx_HAL_Driver/Inc\stm32f1xx_ll_bus.h ****   * @}
  99:C:/Users/nace/OneDrive/Desktop/STM32/Projects_nace/NUCLEO_LL_Project_LCD/STM32_template_proj/Drivers/STM32F1xx_HAL_Driver/Inc\stm32f1xx_ll_bus.h ****   */
 100:C:/Users/nace/OneDrive/Desktop/STM32/Projects_nace/NUCLEO_LL_Project_LCD/STM32_template_proj/Drivers/STM32F1xx_HAL_Driver/Inc\stm32f1xx_ll_bus.h **** 
 101:C:/Users/nace/OneDrive/Desktop/STM32/Projects_nace/NUCLEO_LL_Project_LCD/STM32_template_proj/Drivers/STM32F1xx_HAL_Driver/Inc\stm32f1xx_ll_bus.h **** /** @defgroup BUS_LL_EC_APB1_GRP1_PERIPH  APB1 GRP1 PERIPH
 102:C:/Users/nace/OneDrive/Desktop/STM32/Projects_nace/NUCLEO_LL_Project_LCD/STM32_template_proj/Drivers/STM32F1xx_HAL_Driver/Inc\stm32f1xx_ll_bus.h ****   * @{
 103:C:/Users/nace/OneDrive/Desktop/STM32/Projects_nace/NUCLEO_LL_Project_LCD/STM32_template_proj/Drivers/STM32F1xx_HAL_Driver/Inc\stm32f1xx_ll_bus.h ****   */
 104:C:/Users/nace/OneDrive/Desktop/STM32/Projects_nace/NUCLEO_LL_Project_LCD/STM32_template_proj/Drivers/STM32F1xx_HAL_Driver/Inc\stm32f1xx_ll_bus.h **** #define LL_APB1_GRP1_PERIPH_ALL            (uint32_t)0xFFFFFFFFU
 105:C:/Users/nace/OneDrive/Desktop/STM32/Projects_nace/NUCLEO_LL_Project_LCD/STM32_template_proj/Drivers/STM32F1xx_HAL_Driver/Inc\stm32f1xx_ll_bus.h **** #define LL_APB1_GRP1_PERIPH_BKP            RCC_APB1ENR_BKPEN
 106:C:/Users/nace/OneDrive/Desktop/STM32/Projects_nace/NUCLEO_LL_Project_LCD/STM32_template_proj/Drivers/STM32F1xx_HAL_Driver/Inc\stm32f1xx_ll_bus.h **** #if defined(CAN1)
 107:C:/Users/nace/OneDrive/Desktop/STM32/Projects_nace/NUCLEO_LL_Project_LCD/STM32_template_proj/Drivers/STM32F1xx_HAL_Driver/Inc\stm32f1xx_ll_bus.h **** #define LL_APB1_GRP1_PERIPH_CAN1           RCC_APB1ENR_CAN1EN
 108:C:/Users/nace/OneDrive/Desktop/STM32/Projects_nace/NUCLEO_LL_Project_LCD/STM32_template_proj/Drivers/STM32F1xx_HAL_Driver/Inc\stm32f1xx_ll_bus.h **** #endif /*CAN1*/
 109:C:/Users/nace/OneDrive/Desktop/STM32/Projects_nace/NUCLEO_LL_Project_LCD/STM32_template_proj/Drivers/STM32F1xx_HAL_Driver/Inc\stm32f1xx_ll_bus.h **** #if defined(CAN2)
 110:C:/Users/nace/OneDrive/Desktop/STM32/Projects_nace/NUCLEO_LL_Project_LCD/STM32_template_proj/Drivers/STM32F1xx_HAL_Driver/Inc\stm32f1xx_ll_bus.h **** #define LL_APB1_GRP1_PERIPH_CAN2           RCC_APB1ENR_CAN2EN
 111:C:/Users/nace/OneDrive/Desktop/STM32/Projects_nace/NUCLEO_LL_Project_LCD/STM32_template_proj/Drivers/STM32F1xx_HAL_Driver/Inc\stm32f1xx_ll_bus.h **** #endif /*CAN2*/
 112:C:/Users/nace/OneDrive/Desktop/STM32/Projects_nace/NUCLEO_LL_Project_LCD/STM32_template_proj/Drivers/STM32F1xx_HAL_Driver/Inc\stm32f1xx_ll_bus.h **** #if defined(CEC)
 113:C:/Users/nace/OneDrive/Desktop/STM32/Projects_nace/NUCLEO_LL_Project_LCD/STM32_template_proj/Drivers/STM32F1xx_HAL_Driver/Inc\stm32f1xx_ll_bus.h **** #define LL_APB1_GRP1_PERIPH_CEC            RCC_APB1ENR_CECEN
 114:C:/Users/nace/OneDrive/Desktop/STM32/Projects_nace/NUCLEO_LL_Project_LCD/STM32_template_proj/Drivers/STM32F1xx_HAL_Driver/Inc\stm32f1xx_ll_bus.h **** #endif /*CEC*/
 115:C:/Users/nace/OneDrive/Desktop/STM32/Projects_nace/NUCLEO_LL_Project_LCD/STM32_template_proj/Drivers/STM32F1xx_HAL_Driver/Inc\stm32f1xx_ll_bus.h **** #if defined(DAC)
 116:C:/Users/nace/OneDrive/Desktop/STM32/Projects_nace/NUCLEO_LL_Project_LCD/STM32_template_proj/Drivers/STM32F1xx_HAL_Driver/Inc\stm32f1xx_ll_bus.h **** #define LL_APB1_GRP1_PERIPH_DAC1           RCC_APB1ENR_DACEN
 117:C:/Users/nace/OneDrive/Desktop/STM32/Projects_nace/NUCLEO_LL_Project_LCD/STM32_template_proj/Drivers/STM32F1xx_HAL_Driver/Inc\stm32f1xx_ll_bus.h **** #endif /*DAC*/
 118:C:/Users/nace/OneDrive/Desktop/STM32/Projects_nace/NUCLEO_LL_Project_LCD/STM32_template_proj/Drivers/STM32F1xx_HAL_Driver/Inc\stm32f1xx_ll_bus.h **** #define LL_APB1_GRP1_PERIPH_I2C1           RCC_APB1ENR_I2C1EN
 119:C:/Users/nace/OneDrive/Desktop/STM32/Projects_nace/NUCLEO_LL_Project_LCD/STM32_template_proj/Drivers/STM32F1xx_HAL_Driver/Inc\stm32f1xx_ll_bus.h **** 
 120:C:/Users/nace/OneDrive/Desktop/STM32/Projects_nace/NUCLEO_LL_Project_LCD/STM32_template_proj/Drivers/STM32F1xx_HAL_Driver/Inc\stm32f1xx_ll_bus.h **** #if defined(I2C2)
 121:C:/Users/nace/OneDrive/Desktop/STM32/Projects_nace/NUCLEO_LL_Project_LCD/STM32_template_proj/Drivers/STM32F1xx_HAL_Driver/Inc\stm32f1xx_ll_bus.h **** #define LL_APB1_GRP1_PERIPH_I2C2           RCC_APB1ENR_I2C2EN
 122:C:/Users/nace/OneDrive/Desktop/STM32/Projects_nace/NUCLEO_LL_Project_LCD/STM32_template_proj/Drivers/STM32F1xx_HAL_Driver/Inc\stm32f1xx_ll_bus.h **** #endif /*I2C2*/
 123:C:/Users/nace/OneDrive/Desktop/STM32/Projects_nace/NUCLEO_LL_Project_LCD/STM32_template_proj/Drivers/STM32F1xx_HAL_Driver/Inc\stm32f1xx_ll_bus.h **** 
 124:C:/Users/nace/OneDrive/Desktop/STM32/Projects_nace/NUCLEO_LL_Project_LCD/STM32_template_proj/Drivers/STM32F1xx_HAL_Driver/Inc\stm32f1xx_ll_bus.h **** #define LL_APB1_GRP1_PERIPH_PWR            RCC_APB1ENR_PWREN
 125:C:/Users/nace/OneDrive/Desktop/STM32/Projects_nace/NUCLEO_LL_Project_LCD/STM32_template_proj/Drivers/STM32F1xx_HAL_Driver/Inc\stm32f1xx_ll_bus.h **** 
 126:C:/Users/nace/OneDrive/Desktop/STM32/Projects_nace/NUCLEO_LL_Project_LCD/STM32_template_proj/Drivers/STM32F1xx_HAL_Driver/Inc\stm32f1xx_ll_bus.h **** #if defined(SPI2)
 127:C:/Users/nace/OneDrive/Desktop/STM32/Projects_nace/NUCLEO_LL_Project_LCD/STM32_template_proj/Drivers/STM32F1xx_HAL_Driver/Inc\stm32f1xx_ll_bus.h **** #define LL_APB1_GRP1_PERIPH_SPI2           RCC_APB1ENR_SPI2EN
 128:C:/Users/nace/OneDrive/Desktop/STM32/Projects_nace/NUCLEO_LL_Project_LCD/STM32_template_proj/Drivers/STM32F1xx_HAL_Driver/Inc\stm32f1xx_ll_bus.h **** #endif /*SPI2*/
 129:C:/Users/nace/OneDrive/Desktop/STM32/Projects_nace/NUCLEO_LL_Project_LCD/STM32_template_proj/Drivers/STM32F1xx_HAL_Driver/Inc\stm32f1xx_ll_bus.h **** 
 130:C:/Users/nace/OneDrive/Desktop/STM32/Projects_nace/NUCLEO_LL_Project_LCD/STM32_template_proj/Drivers/STM32F1xx_HAL_Driver/Inc\stm32f1xx_ll_bus.h **** #if defined(SPI3)
 131:C:/Users/nace/OneDrive/Desktop/STM32/Projects_nace/NUCLEO_LL_Project_LCD/STM32_template_proj/Drivers/STM32F1xx_HAL_Driver/Inc\stm32f1xx_ll_bus.h **** #define LL_APB1_GRP1_PERIPH_SPI3           RCC_APB1ENR_SPI3EN
 132:C:/Users/nace/OneDrive/Desktop/STM32/Projects_nace/NUCLEO_LL_Project_LCD/STM32_template_proj/Drivers/STM32F1xx_HAL_Driver/Inc\stm32f1xx_ll_bus.h **** #endif /*SPI3*/
 133:C:/Users/nace/OneDrive/Desktop/STM32/Projects_nace/NUCLEO_LL_Project_LCD/STM32_template_proj/Drivers/STM32F1xx_HAL_Driver/Inc\stm32f1xx_ll_bus.h **** 
 134:C:/Users/nace/OneDrive/Desktop/STM32/Projects_nace/NUCLEO_LL_Project_LCD/STM32_template_proj/Drivers/STM32F1xx_HAL_Driver/Inc\stm32f1xx_ll_bus.h **** #if defined(TIM12)
 135:C:/Users/nace/OneDrive/Desktop/STM32/Projects_nace/NUCLEO_LL_Project_LCD/STM32_template_proj/Drivers/STM32F1xx_HAL_Driver/Inc\stm32f1xx_ll_bus.h **** #define LL_APB1_GRP1_PERIPH_TIM12          RCC_APB1ENR_TIM12EN
 136:C:/Users/nace/OneDrive/Desktop/STM32/Projects_nace/NUCLEO_LL_Project_LCD/STM32_template_proj/Drivers/STM32F1xx_HAL_Driver/Inc\stm32f1xx_ll_bus.h **** #endif /*TIM12*/
 137:C:/Users/nace/OneDrive/Desktop/STM32/Projects_nace/NUCLEO_LL_Project_LCD/STM32_template_proj/Drivers/STM32F1xx_HAL_Driver/Inc\stm32f1xx_ll_bus.h **** #if defined(TIM13)
 138:C:/Users/nace/OneDrive/Desktop/STM32/Projects_nace/NUCLEO_LL_Project_LCD/STM32_template_proj/Drivers/STM32F1xx_HAL_Driver/Inc\stm32f1xx_ll_bus.h **** #define LL_APB1_GRP1_PERIPH_TIM13          RCC_APB1ENR_TIM13EN
 139:C:/Users/nace/OneDrive/Desktop/STM32/Projects_nace/NUCLEO_LL_Project_LCD/STM32_template_proj/Drivers/STM32F1xx_HAL_Driver/Inc\stm32f1xx_ll_bus.h **** #endif /*TIM13*/
 140:C:/Users/nace/OneDrive/Desktop/STM32/Projects_nace/NUCLEO_LL_Project_LCD/STM32_template_proj/Drivers/STM32F1xx_HAL_Driver/Inc\stm32f1xx_ll_bus.h **** #if defined(TIM14)
 141:C:/Users/nace/OneDrive/Desktop/STM32/Projects_nace/NUCLEO_LL_Project_LCD/STM32_template_proj/Drivers/STM32F1xx_HAL_Driver/Inc\stm32f1xx_ll_bus.h **** #define LL_APB1_GRP1_PERIPH_TIM14          RCC_APB1ENR_TIM14EN
 142:C:/Users/nace/OneDrive/Desktop/STM32/Projects_nace/NUCLEO_LL_Project_LCD/STM32_template_proj/Drivers/STM32F1xx_HAL_Driver/Inc\stm32f1xx_ll_bus.h **** #endif /*TIM14*/
 143:C:/Users/nace/OneDrive/Desktop/STM32/Projects_nace/NUCLEO_LL_Project_LCD/STM32_template_proj/Drivers/STM32F1xx_HAL_Driver/Inc\stm32f1xx_ll_bus.h **** #define LL_APB1_GRP1_PERIPH_TIM2           RCC_APB1ENR_TIM2EN
 144:C:/Users/nace/OneDrive/Desktop/STM32/Projects_nace/NUCLEO_LL_Project_LCD/STM32_template_proj/Drivers/STM32F1xx_HAL_Driver/Inc\stm32f1xx_ll_bus.h **** #define LL_APB1_GRP1_PERIPH_TIM3           RCC_APB1ENR_TIM3EN
 145:C:/Users/nace/OneDrive/Desktop/STM32/Projects_nace/NUCLEO_LL_Project_LCD/STM32_template_proj/Drivers/STM32F1xx_HAL_Driver/Inc\stm32f1xx_ll_bus.h **** #if defined(TIM4)
 146:C:/Users/nace/OneDrive/Desktop/STM32/Projects_nace/NUCLEO_LL_Project_LCD/STM32_template_proj/Drivers/STM32F1xx_HAL_Driver/Inc\stm32f1xx_ll_bus.h **** #define LL_APB1_GRP1_PERIPH_TIM4           RCC_APB1ENR_TIM4EN
 147:C:/Users/nace/OneDrive/Desktop/STM32/Projects_nace/NUCLEO_LL_Project_LCD/STM32_template_proj/Drivers/STM32F1xx_HAL_Driver/Inc\stm32f1xx_ll_bus.h **** #endif /*TIM4*/
 148:C:/Users/nace/OneDrive/Desktop/STM32/Projects_nace/NUCLEO_LL_Project_LCD/STM32_template_proj/Drivers/STM32F1xx_HAL_Driver/Inc\stm32f1xx_ll_bus.h **** #if defined(TIM5)
 149:C:/Users/nace/OneDrive/Desktop/STM32/Projects_nace/NUCLEO_LL_Project_LCD/STM32_template_proj/Drivers/STM32F1xx_HAL_Driver/Inc\stm32f1xx_ll_bus.h **** #define LL_APB1_GRP1_PERIPH_TIM5           RCC_APB1ENR_TIM5EN
 150:C:/Users/nace/OneDrive/Desktop/STM32/Projects_nace/NUCLEO_LL_Project_LCD/STM32_template_proj/Drivers/STM32F1xx_HAL_Driver/Inc\stm32f1xx_ll_bus.h **** #endif /*TIM5*/
 151:C:/Users/nace/OneDrive/Desktop/STM32/Projects_nace/NUCLEO_LL_Project_LCD/STM32_template_proj/Drivers/STM32F1xx_HAL_Driver/Inc\stm32f1xx_ll_bus.h **** #if defined(TIM6)
 152:C:/Users/nace/OneDrive/Desktop/STM32/Projects_nace/NUCLEO_LL_Project_LCD/STM32_template_proj/Drivers/STM32F1xx_HAL_Driver/Inc\stm32f1xx_ll_bus.h **** #define LL_APB1_GRP1_PERIPH_TIM6           RCC_APB1ENR_TIM6EN
 153:C:/Users/nace/OneDrive/Desktop/STM32/Projects_nace/NUCLEO_LL_Project_LCD/STM32_template_proj/Drivers/STM32F1xx_HAL_Driver/Inc\stm32f1xx_ll_bus.h **** #endif /*TIM6*/
 154:C:/Users/nace/OneDrive/Desktop/STM32/Projects_nace/NUCLEO_LL_Project_LCD/STM32_template_proj/Drivers/STM32F1xx_HAL_Driver/Inc\stm32f1xx_ll_bus.h **** #if defined(TIM7)
 155:C:/Users/nace/OneDrive/Desktop/STM32/Projects_nace/NUCLEO_LL_Project_LCD/STM32_template_proj/Drivers/STM32F1xx_HAL_Driver/Inc\stm32f1xx_ll_bus.h **** #define LL_APB1_GRP1_PERIPH_TIM7           RCC_APB1ENR_TIM7EN
 156:C:/Users/nace/OneDrive/Desktop/STM32/Projects_nace/NUCLEO_LL_Project_LCD/STM32_template_proj/Drivers/STM32F1xx_HAL_Driver/Inc\stm32f1xx_ll_bus.h **** #endif /*TIM7*/
 157:C:/Users/nace/OneDrive/Desktop/STM32/Projects_nace/NUCLEO_LL_Project_LCD/STM32_template_proj/Drivers/STM32F1xx_HAL_Driver/Inc\stm32f1xx_ll_bus.h **** #if defined(UART4)
 158:C:/Users/nace/OneDrive/Desktop/STM32/Projects_nace/NUCLEO_LL_Project_LCD/STM32_template_proj/Drivers/STM32F1xx_HAL_Driver/Inc\stm32f1xx_ll_bus.h **** #define LL_APB1_GRP1_PERIPH_UART4          RCC_APB1ENR_UART4EN
 159:C:/Users/nace/OneDrive/Desktop/STM32/Projects_nace/NUCLEO_LL_Project_LCD/STM32_template_proj/Drivers/STM32F1xx_HAL_Driver/Inc\stm32f1xx_ll_bus.h **** #endif /*UART4*/
 160:C:/Users/nace/OneDrive/Desktop/STM32/Projects_nace/NUCLEO_LL_Project_LCD/STM32_template_proj/Drivers/STM32F1xx_HAL_Driver/Inc\stm32f1xx_ll_bus.h **** #if defined(UART5)
 161:C:/Users/nace/OneDrive/Desktop/STM32/Projects_nace/NUCLEO_LL_Project_LCD/STM32_template_proj/Drivers/STM32F1xx_HAL_Driver/Inc\stm32f1xx_ll_bus.h **** #define LL_APB1_GRP1_PERIPH_UART5          RCC_APB1ENR_UART5EN
 162:C:/Users/nace/OneDrive/Desktop/STM32/Projects_nace/NUCLEO_LL_Project_LCD/STM32_template_proj/Drivers/STM32F1xx_HAL_Driver/Inc\stm32f1xx_ll_bus.h **** #endif /*UART5*/
 163:C:/Users/nace/OneDrive/Desktop/STM32/Projects_nace/NUCLEO_LL_Project_LCD/STM32_template_proj/Drivers/STM32F1xx_HAL_Driver/Inc\stm32f1xx_ll_bus.h **** #define LL_APB1_GRP1_PERIPH_USART2         RCC_APB1ENR_USART2EN
 164:C:/Users/nace/OneDrive/Desktop/STM32/Projects_nace/NUCLEO_LL_Project_LCD/STM32_template_proj/Drivers/STM32F1xx_HAL_Driver/Inc\stm32f1xx_ll_bus.h **** #if defined(USART3)
 165:C:/Users/nace/OneDrive/Desktop/STM32/Projects_nace/NUCLEO_LL_Project_LCD/STM32_template_proj/Drivers/STM32F1xx_HAL_Driver/Inc\stm32f1xx_ll_bus.h **** #define LL_APB1_GRP1_PERIPH_USART3         RCC_APB1ENR_USART3EN
 166:C:/Users/nace/OneDrive/Desktop/STM32/Projects_nace/NUCLEO_LL_Project_LCD/STM32_template_proj/Drivers/STM32F1xx_HAL_Driver/Inc\stm32f1xx_ll_bus.h **** #endif /*USART3*/
 167:C:/Users/nace/OneDrive/Desktop/STM32/Projects_nace/NUCLEO_LL_Project_LCD/STM32_template_proj/Drivers/STM32F1xx_HAL_Driver/Inc\stm32f1xx_ll_bus.h **** #if defined(USB)
 168:C:/Users/nace/OneDrive/Desktop/STM32/Projects_nace/NUCLEO_LL_Project_LCD/STM32_template_proj/Drivers/STM32F1xx_HAL_Driver/Inc\stm32f1xx_ll_bus.h **** #define LL_APB1_GRP1_PERIPH_USB            RCC_APB1ENR_USBEN
 169:C:/Users/nace/OneDrive/Desktop/STM32/Projects_nace/NUCLEO_LL_Project_LCD/STM32_template_proj/Drivers/STM32F1xx_HAL_Driver/Inc\stm32f1xx_ll_bus.h **** #endif /*USB*/
 170:C:/Users/nace/OneDrive/Desktop/STM32/Projects_nace/NUCLEO_LL_Project_LCD/STM32_template_proj/Drivers/STM32F1xx_HAL_Driver/Inc\stm32f1xx_ll_bus.h **** #define LL_APB1_GRP1_PERIPH_WWDG           RCC_APB1ENR_WWDGEN
 171:C:/Users/nace/OneDrive/Desktop/STM32/Projects_nace/NUCLEO_LL_Project_LCD/STM32_template_proj/Drivers/STM32F1xx_HAL_Driver/Inc\stm32f1xx_ll_bus.h **** /**
 172:C:/Users/nace/OneDrive/Desktop/STM32/Projects_nace/NUCLEO_LL_Project_LCD/STM32_template_proj/Drivers/STM32F1xx_HAL_Driver/Inc\stm32f1xx_ll_bus.h ****   * @}
 173:C:/Users/nace/OneDrive/Desktop/STM32/Projects_nace/NUCLEO_LL_Project_LCD/STM32_template_proj/Drivers/STM32F1xx_HAL_Driver/Inc\stm32f1xx_ll_bus.h ****   */
 174:C:/Users/nace/OneDrive/Desktop/STM32/Projects_nace/NUCLEO_LL_Project_LCD/STM32_template_proj/Drivers/STM32F1xx_HAL_Driver/Inc\stm32f1xx_ll_bus.h **** 
 175:C:/Users/nace/OneDrive/Desktop/STM32/Projects_nace/NUCLEO_LL_Project_LCD/STM32_template_proj/Drivers/STM32F1xx_HAL_Driver/Inc\stm32f1xx_ll_bus.h **** /** @defgroup BUS_LL_EC_APB2_GRP1_PERIPH  APB2 GRP1 PERIPH
 176:C:/Users/nace/OneDrive/Desktop/STM32/Projects_nace/NUCLEO_LL_Project_LCD/STM32_template_proj/Drivers/STM32F1xx_HAL_Driver/Inc\stm32f1xx_ll_bus.h ****   * @{
 177:C:/Users/nace/OneDrive/Desktop/STM32/Projects_nace/NUCLEO_LL_Project_LCD/STM32_template_proj/Drivers/STM32F1xx_HAL_Driver/Inc\stm32f1xx_ll_bus.h ****   */
 178:C:/Users/nace/OneDrive/Desktop/STM32/Projects_nace/NUCLEO_LL_Project_LCD/STM32_template_proj/Drivers/STM32F1xx_HAL_Driver/Inc\stm32f1xx_ll_bus.h **** #define LL_APB2_GRP1_PERIPH_ALL            (uint32_t)0xFFFFFFFFU
 179:C:/Users/nace/OneDrive/Desktop/STM32/Projects_nace/NUCLEO_LL_Project_LCD/STM32_template_proj/Drivers/STM32F1xx_HAL_Driver/Inc\stm32f1xx_ll_bus.h **** #define LL_APB2_GRP1_PERIPH_ADC1           RCC_APB2ENR_ADC1EN
 180:C:/Users/nace/OneDrive/Desktop/STM32/Projects_nace/NUCLEO_LL_Project_LCD/STM32_template_proj/Drivers/STM32F1xx_HAL_Driver/Inc\stm32f1xx_ll_bus.h **** #if defined(ADC2)
 181:C:/Users/nace/OneDrive/Desktop/STM32/Projects_nace/NUCLEO_LL_Project_LCD/STM32_template_proj/Drivers/STM32F1xx_HAL_Driver/Inc\stm32f1xx_ll_bus.h **** #define LL_APB2_GRP1_PERIPH_ADC2           RCC_APB2ENR_ADC2EN
 182:C:/Users/nace/OneDrive/Desktop/STM32/Projects_nace/NUCLEO_LL_Project_LCD/STM32_template_proj/Drivers/STM32F1xx_HAL_Driver/Inc\stm32f1xx_ll_bus.h **** #endif /*ADC2*/
 183:C:/Users/nace/OneDrive/Desktop/STM32/Projects_nace/NUCLEO_LL_Project_LCD/STM32_template_proj/Drivers/STM32F1xx_HAL_Driver/Inc\stm32f1xx_ll_bus.h **** #if defined(ADC3)
 184:C:/Users/nace/OneDrive/Desktop/STM32/Projects_nace/NUCLEO_LL_Project_LCD/STM32_template_proj/Drivers/STM32F1xx_HAL_Driver/Inc\stm32f1xx_ll_bus.h **** #define LL_APB2_GRP1_PERIPH_ADC3           RCC_APB2ENR_ADC3EN
 185:C:/Users/nace/OneDrive/Desktop/STM32/Projects_nace/NUCLEO_LL_Project_LCD/STM32_template_proj/Drivers/STM32F1xx_HAL_Driver/Inc\stm32f1xx_ll_bus.h **** #endif /*ADC3*/
 186:C:/Users/nace/OneDrive/Desktop/STM32/Projects_nace/NUCLEO_LL_Project_LCD/STM32_template_proj/Drivers/STM32F1xx_HAL_Driver/Inc\stm32f1xx_ll_bus.h **** #define LL_APB2_GRP1_PERIPH_AFIO           RCC_APB2ENR_AFIOEN
 187:C:/Users/nace/OneDrive/Desktop/STM32/Projects_nace/NUCLEO_LL_Project_LCD/STM32_template_proj/Drivers/STM32F1xx_HAL_Driver/Inc\stm32f1xx_ll_bus.h **** #define LL_APB2_GRP1_PERIPH_GPIOA          RCC_APB2ENR_IOPAEN
 188:C:/Users/nace/OneDrive/Desktop/STM32/Projects_nace/NUCLEO_LL_Project_LCD/STM32_template_proj/Drivers/STM32F1xx_HAL_Driver/Inc\stm32f1xx_ll_bus.h **** #define LL_APB2_GRP1_PERIPH_GPIOB          RCC_APB2ENR_IOPBEN
 189:C:/Users/nace/OneDrive/Desktop/STM32/Projects_nace/NUCLEO_LL_Project_LCD/STM32_template_proj/Drivers/STM32F1xx_HAL_Driver/Inc\stm32f1xx_ll_bus.h **** #define LL_APB2_GRP1_PERIPH_GPIOC          RCC_APB2ENR_IOPCEN
 190:C:/Users/nace/OneDrive/Desktop/STM32/Projects_nace/NUCLEO_LL_Project_LCD/STM32_template_proj/Drivers/STM32F1xx_HAL_Driver/Inc\stm32f1xx_ll_bus.h **** #define LL_APB2_GRP1_PERIPH_GPIOD          RCC_APB2ENR_IOPDEN
 191:C:/Users/nace/OneDrive/Desktop/STM32/Projects_nace/NUCLEO_LL_Project_LCD/STM32_template_proj/Drivers/STM32F1xx_HAL_Driver/Inc\stm32f1xx_ll_bus.h **** #if defined(GPIOE)
 192:C:/Users/nace/OneDrive/Desktop/STM32/Projects_nace/NUCLEO_LL_Project_LCD/STM32_template_proj/Drivers/STM32F1xx_HAL_Driver/Inc\stm32f1xx_ll_bus.h **** #define LL_APB2_GRP1_PERIPH_GPIOE          RCC_APB2ENR_IOPEEN
 193:C:/Users/nace/OneDrive/Desktop/STM32/Projects_nace/NUCLEO_LL_Project_LCD/STM32_template_proj/Drivers/STM32F1xx_HAL_Driver/Inc\stm32f1xx_ll_bus.h **** #endif /*GPIOE*/
 194:C:/Users/nace/OneDrive/Desktop/STM32/Projects_nace/NUCLEO_LL_Project_LCD/STM32_template_proj/Drivers/STM32F1xx_HAL_Driver/Inc\stm32f1xx_ll_bus.h **** #if defined(GPIOF)
 195:C:/Users/nace/OneDrive/Desktop/STM32/Projects_nace/NUCLEO_LL_Project_LCD/STM32_template_proj/Drivers/STM32F1xx_HAL_Driver/Inc\stm32f1xx_ll_bus.h **** #define LL_APB2_GRP1_PERIPH_GPIOF          RCC_APB2ENR_IOPFEN
 196:C:/Users/nace/OneDrive/Desktop/STM32/Projects_nace/NUCLEO_LL_Project_LCD/STM32_template_proj/Drivers/STM32F1xx_HAL_Driver/Inc\stm32f1xx_ll_bus.h **** #endif /*GPIOF*/
 197:C:/Users/nace/OneDrive/Desktop/STM32/Projects_nace/NUCLEO_LL_Project_LCD/STM32_template_proj/Drivers/STM32F1xx_HAL_Driver/Inc\stm32f1xx_ll_bus.h **** #if defined(GPIOG)
 198:C:/Users/nace/OneDrive/Desktop/STM32/Projects_nace/NUCLEO_LL_Project_LCD/STM32_template_proj/Drivers/STM32F1xx_HAL_Driver/Inc\stm32f1xx_ll_bus.h **** #define LL_APB2_GRP1_PERIPH_GPIOG          RCC_APB2ENR_IOPGEN
 199:C:/Users/nace/OneDrive/Desktop/STM32/Projects_nace/NUCLEO_LL_Project_LCD/STM32_template_proj/Drivers/STM32F1xx_HAL_Driver/Inc\stm32f1xx_ll_bus.h **** #endif /*GPIOG*/
 200:C:/Users/nace/OneDrive/Desktop/STM32/Projects_nace/NUCLEO_LL_Project_LCD/STM32_template_proj/Drivers/STM32F1xx_HAL_Driver/Inc\stm32f1xx_ll_bus.h **** #define LL_APB2_GRP1_PERIPH_SPI1           RCC_APB2ENR_SPI1EN
 201:C:/Users/nace/OneDrive/Desktop/STM32/Projects_nace/NUCLEO_LL_Project_LCD/STM32_template_proj/Drivers/STM32F1xx_HAL_Driver/Inc\stm32f1xx_ll_bus.h **** #if defined(TIM10)
 202:C:/Users/nace/OneDrive/Desktop/STM32/Projects_nace/NUCLEO_LL_Project_LCD/STM32_template_proj/Drivers/STM32F1xx_HAL_Driver/Inc\stm32f1xx_ll_bus.h **** #define LL_APB2_GRP1_PERIPH_TIM10          RCC_APB2ENR_TIM10EN
 203:C:/Users/nace/OneDrive/Desktop/STM32/Projects_nace/NUCLEO_LL_Project_LCD/STM32_template_proj/Drivers/STM32F1xx_HAL_Driver/Inc\stm32f1xx_ll_bus.h **** #endif /*TIM10*/
 204:C:/Users/nace/OneDrive/Desktop/STM32/Projects_nace/NUCLEO_LL_Project_LCD/STM32_template_proj/Drivers/STM32F1xx_HAL_Driver/Inc\stm32f1xx_ll_bus.h **** #if defined(TIM11)
 205:C:/Users/nace/OneDrive/Desktop/STM32/Projects_nace/NUCLEO_LL_Project_LCD/STM32_template_proj/Drivers/STM32F1xx_HAL_Driver/Inc\stm32f1xx_ll_bus.h **** #define LL_APB2_GRP1_PERIPH_TIM11          RCC_APB2ENR_TIM11EN
 206:C:/Users/nace/OneDrive/Desktop/STM32/Projects_nace/NUCLEO_LL_Project_LCD/STM32_template_proj/Drivers/STM32F1xx_HAL_Driver/Inc\stm32f1xx_ll_bus.h **** #endif /*TIM11*/
 207:C:/Users/nace/OneDrive/Desktop/STM32/Projects_nace/NUCLEO_LL_Project_LCD/STM32_template_proj/Drivers/STM32F1xx_HAL_Driver/Inc\stm32f1xx_ll_bus.h **** #if defined(TIM15)
 208:C:/Users/nace/OneDrive/Desktop/STM32/Projects_nace/NUCLEO_LL_Project_LCD/STM32_template_proj/Drivers/STM32F1xx_HAL_Driver/Inc\stm32f1xx_ll_bus.h **** #define LL_APB2_GRP1_PERIPH_TIM15          RCC_APB2ENR_TIM15EN
 209:C:/Users/nace/OneDrive/Desktop/STM32/Projects_nace/NUCLEO_LL_Project_LCD/STM32_template_proj/Drivers/STM32F1xx_HAL_Driver/Inc\stm32f1xx_ll_bus.h **** #endif /*TIM15*/
 210:C:/Users/nace/OneDrive/Desktop/STM32/Projects_nace/NUCLEO_LL_Project_LCD/STM32_template_proj/Drivers/STM32F1xx_HAL_Driver/Inc\stm32f1xx_ll_bus.h **** #if defined(TIM16)
 211:C:/Users/nace/OneDrive/Desktop/STM32/Projects_nace/NUCLEO_LL_Project_LCD/STM32_template_proj/Drivers/STM32F1xx_HAL_Driver/Inc\stm32f1xx_ll_bus.h **** #define LL_APB2_GRP1_PERIPH_TIM16          RCC_APB2ENR_TIM16EN
 212:C:/Users/nace/OneDrive/Desktop/STM32/Projects_nace/NUCLEO_LL_Project_LCD/STM32_template_proj/Drivers/STM32F1xx_HAL_Driver/Inc\stm32f1xx_ll_bus.h **** #endif /*TIM16*/
 213:C:/Users/nace/OneDrive/Desktop/STM32/Projects_nace/NUCLEO_LL_Project_LCD/STM32_template_proj/Drivers/STM32F1xx_HAL_Driver/Inc\stm32f1xx_ll_bus.h **** #if defined(TIM17)
 214:C:/Users/nace/OneDrive/Desktop/STM32/Projects_nace/NUCLEO_LL_Project_LCD/STM32_template_proj/Drivers/STM32F1xx_HAL_Driver/Inc\stm32f1xx_ll_bus.h **** #define LL_APB2_GRP1_PERIPH_TIM17          RCC_APB2ENR_TIM17EN
 215:C:/Users/nace/OneDrive/Desktop/STM32/Projects_nace/NUCLEO_LL_Project_LCD/STM32_template_proj/Drivers/STM32F1xx_HAL_Driver/Inc\stm32f1xx_ll_bus.h **** #endif /*TIM17*/
 216:C:/Users/nace/OneDrive/Desktop/STM32/Projects_nace/NUCLEO_LL_Project_LCD/STM32_template_proj/Drivers/STM32F1xx_HAL_Driver/Inc\stm32f1xx_ll_bus.h **** #define LL_APB2_GRP1_PERIPH_TIM1           RCC_APB2ENR_TIM1EN
 217:C:/Users/nace/OneDrive/Desktop/STM32/Projects_nace/NUCLEO_LL_Project_LCD/STM32_template_proj/Drivers/STM32F1xx_HAL_Driver/Inc\stm32f1xx_ll_bus.h **** #if defined(TIM8)
 218:C:/Users/nace/OneDrive/Desktop/STM32/Projects_nace/NUCLEO_LL_Project_LCD/STM32_template_proj/Drivers/STM32F1xx_HAL_Driver/Inc\stm32f1xx_ll_bus.h **** #define LL_APB2_GRP1_PERIPH_TIM8           RCC_APB2ENR_TIM8EN
 219:C:/Users/nace/OneDrive/Desktop/STM32/Projects_nace/NUCLEO_LL_Project_LCD/STM32_template_proj/Drivers/STM32F1xx_HAL_Driver/Inc\stm32f1xx_ll_bus.h **** #endif /*TIM8*/
 220:C:/Users/nace/OneDrive/Desktop/STM32/Projects_nace/NUCLEO_LL_Project_LCD/STM32_template_proj/Drivers/STM32F1xx_HAL_Driver/Inc\stm32f1xx_ll_bus.h **** #if defined(TIM9)
 221:C:/Users/nace/OneDrive/Desktop/STM32/Projects_nace/NUCLEO_LL_Project_LCD/STM32_template_proj/Drivers/STM32F1xx_HAL_Driver/Inc\stm32f1xx_ll_bus.h **** #define LL_APB2_GRP1_PERIPH_TIM9           RCC_APB2ENR_TIM9EN
 222:C:/Users/nace/OneDrive/Desktop/STM32/Projects_nace/NUCLEO_LL_Project_LCD/STM32_template_proj/Drivers/STM32F1xx_HAL_Driver/Inc\stm32f1xx_ll_bus.h **** #endif /*TIM9*/
 223:C:/Users/nace/OneDrive/Desktop/STM32/Projects_nace/NUCLEO_LL_Project_LCD/STM32_template_proj/Drivers/STM32F1xx_HAL_Driver/Inc\stm32f1xx_ll_bus.h **** #define LL_APB2_GRP1_PERIPH_USART1         RCC_APB2ENR_USART1EN
 224:C:/Users/nace/OneDrive/Desktop/STM32/Projects_nace/NUCLEO_LL_Project_LCD/STM32_template_proj/Drivers/STM32F1xx_HAL_Driver/Inc\stm32f1xx_ll_bus.h **** /**
 225:C:/Users/nace/OneDrive/Desktop/STM32/Projects_nace/NUCLEO_LL_Project_LCD/STM32_template_proj/Drivers/STM32F1xx_HAL_Driver/Inc\stm32f1xx_ll_bus.h ****   * @}
 226:C:/Users/nace/OneDrive/Desktop/STM32/Projects_nace/NUCLEO_LL_Project_LCD/STM32_template_proj/Drivers/STM32F1xx_HAL_Driver/Inc\stm32f1xx_ll_bus.h ****   */
 227:C:/Users/nace/OneDrive/Desktop/STM32/Projects_nace/NUCLEO_LL_Project_LCD/STM32_template_proj/Drivers/STM32F1xx_HAL_Driver/Inc\stm32f1xx_ll_bus.h **** 
 228:C:/Users/nace/OneDrive/Desktop/STM32/Projects_nace/NUCLEO_LL_Project_LCD/STM32_template_proj/Drivers/STM32F1xx_HAL_Driver/Inc\stm32f1xx_ll_bus.h **** /**
 229:C:/Users/nace/OneDrive/Desktop/STM32/Projects_nace/NUCLEO_LL_Project_LCD/STM32_template_proj/Drivers/STM32F1xx_HAL_Driver/Inc\stm32f1xx_ll_bus.h ****   * @}
 230:C:/Users/nace/OneDrive/Desktop/STM32/Projects_nace/NUCLEO_LL_Project_LCD/STM32_template_proj/Drivers/STM32F1xx_HAL_Driver/Inc\stm32f1xx_ll_bus.h ****   */
 231:C:/Users/nace/OneDrive/Desktop/STM32/Projects_nace/NUCLEO_LL_Project_LCD/STM32_template_proj/Drivers/STM32F1xx_HAL_Driver/Inc\stm32f1xx_ll_bus.h **** 
 232:C:/Users/nace/OneDrive/Desktop/STM32/Projects_nace/NUCLEO_LL_Project_LCD/STM32_template_proj/Drivers/STM32F1xx_HAL_Driver/Inc\stm32f1xx_ll_bus.h **** /* Exported macro ------------------------------------------------------------*/
 233:C:/Users/nace/OneDrive/Desktop/STM32/Projects_nace/NUCLEO_LL_Project_LCD/STM32_template_proj/Drivers/STM32F1xx_HAL_Driver/Inc\stm32f1xx_ll_bus.h **** 
 234:C:/Users/nace/OneDrive/Desktop/STM32/Projects_nace/NUCLEO_LL_Project_LCD/STM32_template_proj/Drivers/STM32F1xx_HAL_Driver/Inc\stm32f1xx_ll_bus.h **** /* Exported functions --------------------------------------------------------*/
 235:C:/Users/nace/OneDrive/Desktop/STM32/Projects_nace/NUCLEO_LL_Project_LCD/STM32_template_proj/Drivers/STM32F1xx_HAL_Driver/Inc\stm32f1xx_ll_bus.h **** /** @defgroup BUS_LL_Exported_Functions BUS Exported Functions
 236:C:/Users/nace/OneDrive/Desktop/STM32/Projects_nace/NUCLEO_LL_Project_LCD/STM32_template_proj/Drivers/STM32F1xx_HAL_Driver/Inc\stm32f1xx_ll_bus.h ****   * @{
 237:C:/Users/nace/OneDrive/Desktop/STM32/Projects_nace/NUCLEO_LL_Project_LCD/STM32_template_proj/Drivers/STM32F1xx_HAL_Driver/Inc\stm32f1xx_ll_bus.h ****   */
 238:C:/Users/nace/OneDrive/Desktop/STM32/Projects_nace/NUCLEO_LL_Project_LCD/STM32_template_proj/Drivers/STM32F1xx_HAL_Driver/Inc\stm32f1xx_ll_bus.h **** 
 239:C:/Users/nace/OneDrive/Desktop/STM32/Projects_nace/NUCLEO_LL_Project_LCD/STM32_template_proj/Drivers/STM32F1xx_HAL_Driver/Inc\stm32f1xx_ll_bus.h **** /** @defgroup BUS_LL_EF_AHB1 AHB1
 240:C:/Users/nace/OneDrive/Desktop/STM32/Projects_nace/NUCLEO_LL_Project_LCD/STM32_template_proj/Drivers/STM32F1xx_HAL_Driver/Inc\stm32f1xx_ll_bus.h ****   * @{
 241:C:/Users/nace/OneDrive/Desktop/STM32/Projects_nace/NUCLEO_LL_Project_LCD/STM32_template_proj/Drivers/STM32F1xx_HAL_Driver/Inc\stm32f1xx_ll_bus.h ****   */
 242:C:/Users/nace/OneDrive/Desktop/STM32/Projects_nace/NUCLEO_LL_Project_LCD/STM32_template_proj/Drivers/STM32F1xx_HAL_Driver/Inc\stm32f1xx_ll_bus.h **** 
 243:C:/Users/nace/OneDrive/Desktop/STM32/Projects_nace/NUCLEO_LL_Project_LCD/STM32_template_proj/Drivers/STM32F1xx_HAL_Driver/Inc\stm32f1xx_ll_bus.h **** /**
 244:C:/Users/nace/OneDrive/Desktop/STM32/Projects_nace/NUCLEO_LL_Project_LCD/STM32_template_proj/Drivers/STM32F1xx_HAL_Driver/Inc\stm32f1xx_ll_bus.h ****   * @brief  Enable AHB1 peripherals clock.
 245:C:/Users/nace/OneDrive/Desktop/STM32/Projects_nace/NUCLEO_LL_Project_LCD/STM32_template_proj/Drivers/STM32F1xx_HAL_Driver/Inc\stm32f1xx_ll_bus.h ****   * @rmtoll AHBENR       CRCEN         LL_AHB1_GRP1_EnableClock\n
 246:C:/Users/nace/OneDrive/Desktop/STM32/Projects_nace/NUCLEO_LL_Project_LCD/STM32_template_proj/Drivers/STM32F1xx_HAL_Driver/Inc\stm32f1xx_ll_bus.h ****   *         AHBENR       DMA1EN        LL_AHB1_GRP1_EnableClock\n
 247:C:/Users/nace/OneDrive/Desktop/STM32/Projects_nace/NUCLEO_LL_Project_LCD/STM32_template_proj/Drivers/STM32F1xx_HAL_Driver/Inc\stm32f1xx_ll_bus.h ****   *         AHBENR       DMA2EN        LL_AHB1_GRP1_EnableClock\n
 248:C:/Users/nace/OneDrive/Desktop/STM32/Projects_nace/NUCLEO_LL_Project_LCD/STM32_template_proj/Drivers/STM32F1xx_HAL_Driver/Inc\stm32f1xx_ll_bus.h ****   *         AHBENR       ETHMACEN      LL_AHB1_GRP1_EnableClock\n
 249:C:/Users/nace/OneDrive/Desktop/STM32/Projects_nace/NUCLEO_LL_Project_LCD/STM32_template_proj/Drivers/STM32F1xx_HAL_Driver/Inc\stm32f1xx_ll_bus.h ****   *         AHBENR       ETHMACRXEN    LL_AHB1_GRP1_EnableClock\n
 250:C:/Users/nace/OneDrive/Desktop/STM32/Projects_nace/NUCLEO_LL_Project_LCD/STM32_template_proj/Drivers/STM32F1xx_HAL_Driver/Inc\stm32f1xx_ll_bus.h ****   *         AHBENR       ETHMACTXEN    LL_AHB1_GRP1_EnableClock\n
 251:C:/Users/nace/OneDrive/Desktop/STM32/Projects_nace/NUCLEO_LL_Project_LCD/STM32_template_proj/Drivers/STM32F1xx_HAL_Driver/Inc\stm32f1xx_ll_bus.h ****   *         AHBENR       FLITFEN       LL_AHB1_GRP1_EnableClock\n
 252:C:/Users/nace/OneDrive/Desktop/STM32/Projects_nace/NUCLEO_LL_Project_LCD/STM32_template_proj/Drivers/STM32F1xx_HAL_Driver/Inc\stm32f1xx_ll_bus.h ****   *         AHBENR       FSMCEN        LL_AHB1_GRP1_EnableClock\n
 253:C:/Users/nace/OneDrive/Desktop/STM32/Projects_nace/NUCLEO_LL_Project_LCD/STM32_template_proj/Drivers/STM32F1xx_HAL_Driver/Inc\stm32f1xx_ll_bus.h ****   *         AHBENR       OTGFSEN       LL_AHB1_GRP1_EnableClock\n
 254:C:/Users/nace/OneDrive/Desktop/STM32/Projects_nace/NUCLEO_LL_Project_LCD/STM32_template_proj/Drivers/STM32F1xx_HAL_Driver/Inc\stm32f1xx_ll_bus.h ****   *         AHBENR       SDIOEN        LL_AHB1_GRP1_EnableClock\n
 255:C:/Users/nace/OneDrive/Desktop/STM32/Projects_nace/NUCLEO_LL_Project_LCD/STM32_template_proj/Drivers/STM32F1xx_HAL_Driver/Inc\stm32f1xx_ll_bus.h ****   *         AHBENR       SRAMEN        LL_AHB1_GRP1_EnableClock
 256:C:/Users/nace/OneDrive/Desktop/STM32/Projects_nace/NUCLEO_LL_Project_LCD/STM32_template_proj/Drivers/STM32F1xx_HAL_Driver/Inc\stm32f1xx_ll_bus.h ****   * @param  Periphs This parameter can be a combination of the following values:
 257:C:/Users/nace/OneDrive/Desktop/STM32/Projects_nace/NUCLEO_LL_Project_LCD/STM32_template_proj/Drivers/STM32F1xx_HAL_Driver/Inc\stm32f1xx_ll_bus.h ****   *         @arg @ref LL_AHB1_GRP1_PERIPH_CRC
 258:C:/Users/nace/OneDrive/Desktop/STM32/Projects_nace/NUCLEO_LL_Project_LCD/STM32_template_proj/Drivers/STM32F1xx_HAL_Driver/Inc\stm32f1xx_ll_bus.h ****   *         @arg @ref LL_AHB1_GRP1_PERIPH_DMA1
 259:C:/Users/nace/OneDrive/Desktop/STM32/Projects_nace/NUCLEO_LL_Project_LCD/STM32_template_proj/Drivers/STM32F1xx_HAL_Driver/Inc\stm32f1xx_ll_bus.h ****   *         @arg @ref LL_AHB1_GRP1_PERIPH_DMA2 (*)
 260:C:/Users/nace/OneDrive/Desktop/STM32/Projects_nace/NUCLEO_LL_Project_LCD/STM32_template_proj/Drivers/STM32F1xx_HAL_Driver/Inc\stm32f1xx_ll_bus.h ****   *         @arg @ref LL_AHB1_GRP1_PERIPH_ETHMAC (*)
 261:C:/Users/nace/OneDrive/Desktop/STM32/Projects_nace/NUCLEO_LL_Project_LCD/STM32_template_proj/Drivers/STM32F1xx_HAL_Driver/Inc\stm32f1xx_ll_bus.h ****   *         @arg @ref LL_AHB1_GRP1_PERIPH_ETHMACRX (*)
 262:C:/Users/nace/OneDrive/Desktop/STM32/Projects_nace/NUCLEO_LL_Project_LCD/STM32_template_proj/Drivers/STM32F1xx_HAL_Driver/Inc\stm32f1xx_ll_bus.h ****   *         @arg @ref LL_AHB1_GRP1_PERIPH_ETHMACTX (*)
 263:C:/Users/nace/OneDrive/Desktop/STM32/Projects_nace/NUCLEO_LL_Project_LCD/STM32_template_proj/Drivers/STM32F1xx_HAL_Driver/Inc\stm32f1xx_ll_bus.h ****   *         @arg @ref LL_AHB1_GRP1_PERIPH_FLASH
 264:C:/Users/nace/OneDrive/Desktop/STM32/Projects_nace/NUCLEO_LL_Project_LCD/STM32_template_proj/Drivers/STM32F1xx_HAL_Driver/Inc\stm32f1xx_ll_bus.h ****   *         @arg @ref LL_AHB1_GRP1_PERIPH_FSMC (*)
 265:C:/Users/nace/OneDrive/Desktop/STM32/Projects_nace/NUCLEO_LL_Project_LCD/STM32_template_proj/Drivers/STM32F1xx_HAL_Driver/Inc\stm32f1xx_ll_bus.h ****   *         @arg @ref LL_AHB1_GRP1_PERIPH_OTGFS (*)
 266:C:/Users/nace/OneDrive/Desktop/STM32/Projects_nace/NUCLEO_LL_Project_LCD/STM32_template_proj/Drivers/STM32F1xx_HAL_Driver/Inc\stm32f1xx_ll_bus.h ****   *         @arg @ref LL_AHB1_GRP1_PERIPH_SDIO (*)
 267:C:/Users/nace/OneDrive/Desktop/STM32/Projects_nace/NUCLEO_LL_Project_LCD/STM32_template_proj/Drivers/STM32F1xx_HAL_Driver/Inc\stm32f1xx_ll_bus.h ****   *         @arg @ref LL_AHB1_GRP1_PERIPH_SRAM
 268:C:/Users/nace/OneDrive/Desktop/STM32/Projects_nace/NUCLEO_LL_Project_LCD/STM32_template_proj/Drivers/STM32F1xx_HAL_Driver/Inc\stm32f1xx_ll_bus.h ****   *
 269:C:/Users/nace/OneDrive/Desktop/STM32/Projects_nace/NUCLEO_LL_Project_LCD/STM32_template_proj/Drivers/STM32F1xx_HAL_Driver/Inc\stm32f1xx_ll_bus.h ****   *         (*) value not defined in all devices.
 270:C:/Users/nace/OneDrive/Desktop/STM32/Projects_nace/NUCLEO_LL_Project_LCD/STM32_template_proj/Drivers/STM32F1xx_HAL_Driver/Inc\stm32f1xx_ll_bus.h ****   * @retval None
 271:C:/Users/nace/OneDrive/Desktop/STM32/Projects_nace/NUCLEO_LL_Project_LCD/STM32_template_proj/Drivers/STM32F1xx_HAL_Driver/Inc\stm32f1xx_ll_bus.h **** */
 272:C:/Users/nace/OneDrive/Desktop/STM32/Projects_nace/NUCLEO_LL_Project_LCD/STM32_template_proj/Drivers/STM32F1xx_HAL_Driver/Inc\stm32f1xx_ll_bus.h **** __STATIC_INLINE void LL_AHB1_GRP1_EnableClock(uint32_t Periphs)
 273:C:/Users/nace/OneDrive/Desktop/STM32/Projects_nace/NUCLEO_LL_Project_LCD/STM32_template_proj/Drivers/STM32F1xx_HAL_Driver/Inc\stm32f1xx_ll_bus.h **** {
 274:C:/Users/nace/OneDrive/Desktop/STM32/Projects_nace/NUCLEO_LL_Project_LCD/STM32_template_proj/Drivers/STM32F1xx_HAL_Driver/Inc\stm32f1xx_ll_bus.h ****   __IO uint32_t tmpreg;
 275:C:/Users/nace/OneDrive/Desktop/STM32/Projects_nace/NUCLEO_LL_Project_LCD/STM32_template_proj/Drivers/STM32F1xx_HAL_Driver/Inc\stm32f1xx_ll_bus.h ****   SET_BIT(RCC->AHBENR, Periphs);
 276:C:/Users/nace/OneDrive/Desktop/STM32/Projects_nace/NUCLEO_LL_Project_LCD/STM32_template_proj/Drivers/STM32F1xx_HAL_Driver/Inc\stm32f1xx_ll_bus.h ****   /* Delay after an RCC peripheral clock enabling */
 277:C:/Users/nace/OneDrive/Desktop/STM32/Projects_nace/NUCLEO_LL_Project_LCD/STM32_template_proj/Drivers/STM32F1xx_HAL_Driver/Inc\stm32f1xx_ll_bus.h ****   tmpreg = READ_BIT(RCC->AHBENR, Periphs);
 278:C:/Users/nace/OneDrive/Desktop/STM32/Projects_nace/NUCLEO_LL_Project_LCD/STM32_template_proj/Drivers/STM32F1xx_HAL_Driver/Inc\stm32f1xx_ll_bus.h ****   (void)tmpreg;
 279:C:/Users/nace/OneDrive/Desktop/STM32/Projects_nace/NUCLEO_LL_Project_LCD/STM32_template_proj/Drivers/STM32F1xx_HAL_Driver/Inc\stm32f1xx_ll_bus.h **** }
 280:C:/Users/nace/OneDrive/Desktop/STM32/Projects_nace/NUCLEO_LL_Project_LCD/STM32_template_proj/Drivers/STM32F1xx_HAL_Driver/Inc\stm32f1xx_ll_bus.h **** 
 281:C:/Users/nace/OneDrive/Desktop/STM32/Projects_nace/NUCLEO_LL_Project_LCD/STM32_template_proj/Drivers/STM32F1xx_HAL_Driver/Inc\stm32f1xx_ll_bus.h **** /**
 282:C:/Users/nace/OneDrive/Desktop/STM32/Projects_nace/NUCLEO_LL_Project_LCD/STM32_template_proj/Drivers/STM32F1xx_HAL_Driver/Inc\stm32f1xx_ll_bus.h ****   * @brief  Check if AHB1 peripheral clock is enabled or not
 283:C:/Users/nace/OneDrive/Desktop/STM32/Projects_nace/NUCLEO_LL_Project_LCD/STM32_template_proj/Drivers/STM32F1xx_HAL_Driver/Inc\stm32f1xx_ll_bus.h ****   * @rmtoll AHBENR       CRCEN         LL_AHB1_GRP1_IsEnabledClock\n
 284:C:/Users/nace/OneDrive/Desktop/STM32/Projects_nace/NUCLEO_LL_Project_LCD/STM32_template_proj/Drivers/STM32F1xx_HAL_Driver/Inc\stm32f1xx_ll_bus.h ****   *         AHBENR       DMA1EN        LL_AHB1_GRP1_IsEnabledClock\n
 285:C:/Users/nace/OneDrive/Desktop/STM32/Projects_nace/NUCLEO_LL_Project_LCD/STM32_template_proj/Drivers/STM32F1xx_HAL_Driver/Inc\stm32f1xx_ll_bus.h ****   *         AHBENR       DMA2EN        LL_AHB1_GRP1_IsEnabledClock\n
 286:C:/Users/nace/OneDrive/Desktop/STM32/Projects_nace/NUCLEO_LL_Project_LCD/STM32_template_proj/Drivers/STM32F1xx_HAL_Driver/Inc\stm32f1xx_ll_bus.h ****   *         AHBENR       ETHMACEN      LL_AHB1_GRP1_IsEnabledClock\n
 287:C:/Users/nace/OneDrive/Desktop/STM32/Projects_nace/NUCLEO_LL_Project_LCD/STM32_template_proj/Drivers/STM32F1xx_HAL_Driver/Inc\stm32f1xx_ll_bus.h ****   *         AHBENR       ETHMACRXEN    LL_AHB1_GRP1_IsEnabledClock\n
 288:C:/Users/nace/OneDrive/Desktop/STM32/Projects_nace/NUCLEO_LL_Project_LCD/STM32_template_proj/Drivers/STM32F1xx_HAL_Driver/Inc\stm32f1xx_ll_bus.h ****   *         AHBENR       ETHMACTXEN    LL_AHB1_GRP1_IsEnabledClock\n
 289:C:/Users/nace/OneDrive/Desktop/STM32/Projects_nace/NUCLEO_LL_Project_LCD/STM32_template_proj/Drivers/STM32F1xx_HAL_Driver/Inc\stm32f1xx_ll_bus.h ****   *         AHBENR       FLITFEN       LL_AHB1_GRP1_IsEnabledClock\n
 290:C:/Users/nace/OneDrive/Desktop/STM32/Projects_nace/NUCLEO_LL_Project_LCD/STM32_template_proj/Drivers/STM32F1xx_HAL_Driver/Inc\stm32f1xx_ll_bus.h ****   *         AHBENR       FSMCEN        LL_AHB1_GRP1_IsEnabledClock\n
 291:C:/Users/nace/OneDrive/Desktop/STM32/Projects_nace/NUCLEO_LL_Project_LCD/STM32_template_proj/Drivers/STM32F1xx_HAL_Driver/Inc\stm32f1xx_ll_bus.h ****   *         AHBENR       OTGFSEN       LL_AHB1_GRP1_IsEnabledClock\n
 292:C:/Users/nace/OneDrive/Desktop/STM32/Projects_nace/NUCLEO_LL_Project_LCD/STM32_template_proj/Drivers/STM32F1xx_HAL_Driver/Inc\stm32f1xx_ll_bus.h ****   *         AHBENR       SDIOEN        LL_AHB1_GRP1_IsEnabledClock\n
 293:C:/Users/nace/OneDrive/Desktop/STM32/Projects_nace/NUCLEO_LL_Project_LCD/STM32_template_proj/Drivers/STM32F1xx_HAL_Driver/Inc\stm32f1xx_ll_bus.h ****   *         AHBENR       SRAMEN        LL_AHB1_GRP1_IsEnabledClock
 294:C:/Users/nace/OneDrive/Desktop/STM32/Projects_nace/NUCLEO_LL_Project_LCD/STM32_template_proj/Drivers/STM32F1xx_HAL_Driver/Inc\stm32f1xx_ll_bus.h ****   * @param  Periphs This parameter can be a combination of the following values:
 295:C:/Users/nace/OneDrive/Desktop/STM32/Projects_nace/NUCLEO_LL_Project_LCD/STM32_template_proj/Drivers/STM32F1xx_HAL_Driver/Inc\stm32f1xx_ll_bus.h ****   *         @arg @ref LL_AHB1_GRP1_PERIPH_CRC
 296:C:/Users/nace/OneDrive/Desktop/STM32/Projects_nace/NUCLEO_LL_Project_LCD/STM32_template_proj/Drivers/STM32F1xx_HAL_Driver/Inc\stm32f1xx_ll_bus.h ****   *         @arg @ref LL_AHB1_GRP1_PERIPH_DMA1
 297:C:/Users/nace/OneDrive/Desktop/STM32/Projects_nace/NUCLEO_LL_Project_LCD/STM32_template_proj/Drivers/STM32F1xx_HAL_Driver/Inc\stm32f1xx_ll_bus.h ****   *         @arg @ref LL_AHB1_GRP1_PERIPH_DMA2 (*)
 298:C:/Users/nace/OneDrive/Desktop/STM32/Projects_nace/NUCLEO_LL_Project_LCD/STM32_template_proj/Drivers/STM32F1xx_HAL_Driver/Inc\stm32f1xx_ll_bus.h ****   *         @arg @ref LL_AHB1_GRP1_PERIPH_ETHMAC (*)
 299:C:/Users/nace/OneDrive/Desktop/STM32/Projects_nace/NUCLEO_LL_Project_LCD/STM32_template_proj/Drivers/STM32F1xx_HAL_Driver/Inc\stm32f1xx_ll_bus.h ****   *         @arg @ref LL_AHB1_GRP1_PERIPH_ETHMACRX (*)
 300:C:/Users/nace/OneDrive/Desktop/STM32/Projects_nace/NUCLEO_LL_Project_LCD/STM32_template_proj/Drivers/STM32F1xx_HAL_Driver/Inc\stm32f1xx_ll_bus.h ****   *         @arg @ref LL_AHB1_GRP1_PERIPH_ETHMACTX (*)
 301:C:/Users/nace/OneDrive/Desktop/STM32/Projects_nace/NUCLEO_LL_Project_LCD/STM32_template_proj/Drivers/STM32F1xx_HAL_Driver/Inc\stm32f1xx_ll_bus.h ****   *         @arg @ref LL_AHB1_GRP1_PERIPH_FLASH
 302:C:/Users/nace/OneDrive/Desktop/STM32/Projects_nace/NUCLEO_LL_Project_LCD/STM32_template_proj/Drivers/STM32F1xx_HAL_Driver/Inc\stm32f1xx_ll_bus.h ****   *         @arg @ref LL_AHB1_GRP1_PERIPH_FSMC (*)
 303:C:/Users/nace/OneDrive/Desktop/STM32/Projects_nace/NUCLEO_LL_Project_LCD/STM32_template_proj/Drivers/STM32F1xx_HAL_Driver/Inc\stm32f1xx_ll_bus.h ****   *         @arg @ref LL_AHB1_GRP1_PERIPH_OTGFS (*)
 304:C:/Users/nace/OneDrive/Desktop/STM32/Projects_nace/NUCLEO_LL_Project_LCD/STM32_template_proj/Drivers/STM32F1xx_HAL_Driver/Inc\stm32f1xx_ll_bus.h ****   *         @arg @ref LL_AHB1_GRP1_PERIPH_SDIO (*)
 305:C:/Users/nace/OneDrive/Desktop/STM32/Projects_nace/NUCLEO_LL_Project_LCD/STM32_template_proj/Drivers/STM32F1xx_HAL_Driver/Inc\stm32f1xx_ll_bus.h ****   *         @arg @ref LL_AHB1_GRP1_PERIPH_SRAM
 306:C:/Users/nace/OneDrive/Desktop/STM32/Projects_nace/NUCLEO_LL_Project_LCD/STM32_template_proj/Drivers/STM32F1xx_HAL_Driver/Inc\stm32f1xx_ll_bus.h ****   *
 307:C:/Users/nace/OneDrive/Desktop/STM32/Projects_nace/NUCLEO_LL_Project_LCD/STM32_template_proj/Drivers/STM32F1xx_HAL_Driver/Inc\stm32f1xx_ll_bus.h ****   *         (*) value not defined in all devices.
 308:C:/Users/nace/OneDrive/Desktop/STM32/Projects_nace/NUCLEO_LL_Project_LCD/STM32_template_proj/Drivers/STM32F1xx_HAL_Driver/Inc\stm32f1xx_ll_bus.h ****   * @retval State of Periphs (1 or 0).
 309:C:/Users/nace/OneDrive/Desktop/STM32/Projects_nace/NUCLEO_LL_Project_LCD/STM32_template_proj/Drivers/STM32F1xx_HAL_Driver/Inc\stm32f1xx_ll_bus.h **** */
 310:C:/Users/nace/OneDrive/Desktop/STM32/Projects_nace/NUCLEO_LL_Project_LCD/STM32_template_proj/Drivers/STM32F1xx_HAL_Driver/Inc\stm32f1xx_ll_bus.h **** __STATIC_INLINE uint32_t LL_AHB1_GRP1_IsEnabledClock(uint32_t Periphs)
 311:C:/Users/nace/OneDrive/Desktop/STM32/Projects_nace/NUCLEO_LL_Project_LCD/STM32_template_proj/Drivers/STM32F1xx_HAL_Driver/Inc\stm32f1xx_ll_bus.h **** {
 312:C:/Users/nace/OneDrive/Desktop/STM32/Projects_nace/NUCLEO_LL_Project_LCD/STM32_template_proj/Drivers/STM32F1xx_HAL_Driver/Inc\stm32f1xx_ll_bus.h ****   return (READ_BIT(RCC->AHBENR, Periphs) == Periphs);
 313:C:/Users/nace/OneDrive/Desktop/STM32/Projects_nace/NUCLEO_LL_Project_LCD/STM32_template_proj/Drivers/STM32F1xx_HAL_Driver/Inc\stm32f1xx_ll_bus.h **** }
 314:C:/Users/nace/OneDrive/Desktop/STM32/Projects_nace/NUCLEO_LL_Project_LCD/STM32_template_proj/Drivers/STM32F1xx_HAL_Driver/Inc\stm32f1xx_ll_bus.h **** 
 315:C:/Users/nace/OneDrive/Desktop/STM32/Projects_nace/NUCLEO_LL_Project_LCD/STM32_template_proj/Drivers/STM32F1xx_HAL_Driver/Inc\stm32f1xx_ll_bus.h **** /**
 316:C:/Users/nace/OneDrive/Desktop/STM32/Projects_nace/NUCLEO_LL_Project_LCD/STM32_template_proj/Drivers/STM32F1xx_HAL_Driver/Inc\stm32f1xx_ll_bus.h ****   * @brief  Disable AHB1 peripherals clock.
 317:C:/Users/nace/OneDrive/Desktop/STM32/Projects_nace/NUCLEO_LL_Project_LCD/STM32_template_proj/Drivers/STM32F1xx_HAL_Driver/Inc\stm32f1xx_ll_bus.h ****   * @rmtoll AHBENR       CRCEN         LL_AHB1_GRP1_DisableClock\n
 318:C:/Users/nace/OneDrive/Desktop/STM32/Projects_nace/NUCLEO_LL_Project_LCD/STM32_template_proj/Drivers/STM32F1xx_HAL_Driver/Inc\stm32f1xx_ll_bus.h ****   *         AHBENR       DMA1EN        LL_AHB1_GRP1_DisableClock\n
 319:C:/Users/nace/OneDrive/Desktop/STM32/Projects_nace/NUCLEO_LL_Project_LCD/STM32_template_proj/Drivers/STM32F1xx_HAL_Driver/Inc\stm32f1xx_ll_bus.h ****   *         AHBENR       DMA2EN        LL_AHB1_GRP1_DisableClock\n
 320:C:/Users/nace/OneDrive/Desktop/STM32/Projects_nace/NUCLEO_LL_Project_LCD/STM32_template_proj/Drivers/STM32F1xx_HAL_Driver/Inc\stm32f1xx_ll_bus.h ****   *         AHBENR       ETHMACEN      LL_AHB1_GRP1_DisableClock\n
 321:C:/Users/nace/OneDrive/Desktop/STM32/Projects_nace/NUCLEO_LL_Project_LCD/STM32_template_proj/Drivers/STM32F1xx_HAL_Driver/Inc\stm32f1xx_ll_bus.h ****   *         AHBENR       ETHMACRXEN    LL_AHB1_GRP1_DisableClock\n
 322:C:/Users/nace/OneDrive/Desktop/STM32/Projects_nace/NUCLEO_LL_Project_LCD/STM32_template_proj/Drivers/STM32F1xx_HAL_Driver/Inc\stm32f1xx_ll_bus.h ****   *         AHBENR       ETHMACTXEN    LL_AHB1_GRP1_DisableClock\n
 323:C:/Users/nace/OneDrive/Desktop/STM32/Projects_nace/NUCLEO_LL_Project_LCD/STM32_template_proj/Drivers/STM32F1xx_HAL_Driver/Inc\stm32f1xx_ll_bus.h ****   *         AHBENR       FLITFEN       LL_AHB1_GRP1_DisableClock\n
 324:C:/Users/nace/OneDrive/Desktop/STM32/Projects_nace/NUCLEO_LL_Project_LCD/STM32_template_proj/Drivers/STM32F1xx_HAL_Driver/Inc\stm32f1xx_ll_bus.h ****   *         AHBENR       FSMCEN        LL_AHB1_GRP1_DisableClock\n
 325:C:/Users/nace/OneDrive/Desktop/STM32/Projects_nace/NUCLEO_LL_Project_LCD/STM32_template_proj/Drivers/STM32F1xx_HAL_Driver/Inc\stm32f1xx_ll_bus.h ****   *         AHBENR       OTGFSEN       LL_AHB1_GRP1_DisableClock\n
 326:C:/Users/nace/OneDrive/Desktop/STM32/Projects_nace/NUCLEO_LL_Project_LCD/STM32_template_proj/Drivers/STM32F1xx_HAL_Driver/Inc\stm32f1xx_ll_bus.h ****   *         AHBENR       SDIOEN        LL_AHB1_GRP1_DisableClock\n
 327:C:/Users/nace/OneDrive/Desktop/STM32/Projects_nace/NUCLEO_LL_Project_LCD/STM32_template_proj/Drivers/STM32F1xx_HAL_Driver/Inc\stm32f1xx_ll_bus.h ****   *         AHBENR       SRAMEN        LL_AHB1_GRP1_DisableClock
 328:C:/Users/nace/OneDrive/Desktop/STM32/Projects_nace/NUCLEO_LL_Project_LCD/STM32_template_proj/Drivers/STM32F1xx_HAL_Driver/Inc\stm32f1xx_ll_bus.h ****   * @param  Periphs This parameter can be a combination of the following values:
 329:C:/Users/nace/OneDrive/Desktop/STM32/Projects_nace/NUCLEO_LL_Project_LCD/STM32_template_proj/Drivers/STM32F1xx_HAL_Driver/Inc\stm32f1xx_ll_bus.h ****   *         @arg @ref LL_AHB1_GRP1_PERIPH_CRC
 330:C:/Users/nace/OneDrive/Desktop/STM32/Projects_nace/NUCLEO_LL_Project_LCD/STM32_template_proj/Drivers/STM32F1xx_HAL_Driver/Inc\stm32f1xx_ll_bus.h ****   *         @arg @ref LL_AHB1_GRP1_PERIPH_DMA1
 331:C:/Users/nace/OneDrive/Desktop/STM32/Projects_nace/NUCLEO_LL_Project_LCD/STM32_template_proj/Drivers/STM32F1xx_HAL_Driver/Inc\stm32f1xx_ll_bus.h ****   *         @arg @ref LL_AHB1_GRP1_PERIPH_DMA2 (*)
 332:C:/Users/nace/OneDrive/Desktop/STM32/Projects_nace/NUCLEO_LL_Project_LCD/STM32_template_proj/Drivers/STM32F1xx_HAL_Driver/Inc\stm32f1xx_ll_bus.h ****   *         @arg @ref LL_AHB1_GRP1_PERIPH_ETHMAC (*)
 333:C:/Users/nace/OneDrive/Desktop/STM32/Projects_nace/NUCLEO_LL_Project_LCD/STM32_template_proj/Drivers/STM32F1xx_HAL_Driver/Inc\stm32f1xx_ll_bus.h ****   *         @arg @ref LL_AHB1_GRP1_PERIPH_ETHMACRX (*)
 334:C:/Users/nace/OneDrive/Desktop/STM32/Projects_nace/NUCLEO_LL_Project_LCD/STM32_template_proj/Drivers/STM32F1xx_HAL_Driver/Inc\stm32f1xx_ll_bus.h ****   *         @arg @ref LL_AHB1_GRP1_PERIPH_ETHMACTX (*)
 335:C:/Users/nace/OneDrive/Desktop/STM32/Projects_nace/NUCLEO_LL_Project_LCD/STM32_template_proj/Drivers/STM32F1xx_HAL_Driver/Inc\stm32f1xx_ll_bus.h ****   *         @arg @ref LL_AHB1_GRP1_PERIPH_FLASH
 336:C:/Users/nace/OneDrive/Desktop/STM32/Projects_nace/NUCLEO_LL_Project_LCD/STM32_template_proj/Drivers/STM32F1xx_HAL_Driver/Inc\stm32f1xx_ll_bus.h ****   *         @arg @ref LL_AHB1_GRP1_PERIPH_FSMC (*)
 337:C:/Users/nace/OneDrive/Desktop/STM32/Projects_nace/NUCLEO_LL_Project_LCD/STM32_template_proj/Drivers/STM32F1xx_HAL_Driver/Inc\stm32f1xx_ll_bus.h ****   *         @arg @ref LL_AHB1_GRP1_PERIPH_OTGFS (*)
 338:C:/Users/nace/OneDrive/Desktop/STM32/Projects_nace/NUCLEO_LL_Project_LCD/STM32_template_proj/Drivers/STM32F1xx_HAL_Driver/Inc\stm32f1xx_ll_bus.h ****   *         @arg @ref LL_AHB1_GRP1_PERIPH_SDIO (*)
 339:C:/Users/nace/OneDrive/Desktop/STM32/Projects_nace/NUCLEO_LL_Project_LCD/STM32_template_proj/Drivers/STM32F1xx_HAL_Driver/Inc\stm32f1xx_ll_bus.h ****   *         @arg @ref LL_AHB1_GRP1_PERIPH_SRAM
 340:C:/Users/nace/OneDrive/Desktop/STM32/Projects_nace/NUCLEO_LL_Project_LCD/STM32_template_proj/Drivers/STM32F1xx_HAL_Driver/Inc\stm32f1xx_ll_bus.h ****   *
 341:C:/Users/nace/OneDrive/Desktop/STM32/Projects_nace/NUCLEO_LL_Project_LCD/STM32_template_proj/Drivers/STM32F1xx_HAL_Driver/Inc\stm32f1xx_ll_bus.h ****   *         (*) value not defined in all devices.
 342:C:/Users/nace/OneDrive/Desktop/STM32/Projects_nace/NUCLEO_LL_Project_LCD/STM32_template_proj/Drivers/STM32F1xx_HAL_Driver/Inc\stm32f1xx_ll_bus.h ****   * @retval None
 343:C:/Users/nace/OneDrive/Desktop/STM32/Projects_nace/NUCLEO_LL_Project_LCD/STM32_template_proj/Drivers/STM32F1xx_HAL_Driver/Inc\stm32f1xx_ll_bus.h **** */
 344:C:/Users/nace/OneDrive/Desktop/STM32/Projects_nace/NUCLEO_LL_Project_LCD/STM32_template_proj/Drivers/STM32F1xx_HAL_Driver/Inc\stm32f1xx_ll_bus.h **** __STATIC_INLINE void LL_AHB1_GRP1_DisableClock(uint32_t Periphs)
 345:C:/Users/nace/OneDrive/Desktop/STM32/Projects_nace/NUCLEO_LL_Project_LCD/STM32_template_proj/Drivers/STM32F1xx_HAL_Driver/Inc\stm32f1xx_ll_bus.h **** {
 346:C:/Users/nace/OneDrive/Desktop/STM32/Projects_nace/NUCLEO_LL_Project_LCD/STM32_template_proj/Drivers/STM32F1xx_HAL_Driver/Inc\stm32f1xx_ll_bus.h ****   CLEAR_BIT(RCC->AHBENR, Periphs);
 347:C:/Users/nace/OneDrive/Desktop/STM32/Projects_nace/NUCLEO_LL_Project_LCD/STM32_template_proj/Drivers/STM32F1xx_HAL_Driver/Inc\stm32f1xx_ll_bus.h **** }
 348:C:/Users/nace/OneDrive/Desktop/STM32/Projects_nace/NUCLEO_LL_Project_LCD/STM32_template_proj/Drivers/STM32F1xx_HAL_Driver/Inc\stm32f1xx_ll_bus.h **** 
 349:C:/Users/nace/OneDrive/Desktop/STM32/Projects_nace/NUCLEO_LL_Project_LCD/STM32_template_proj/Drivers/STM32F1xx_HAL_Driver/Inc\stm32f1xx_ll_bus.h **** #if defined(RCC_AHBRSTR_SUPPORT)
 350:C:/Users/nace/OneDrive/Desktop/STM32/Projects_nace/NUCLEO_LL_Project_LCD/STM32_template_proj/Drivers/STM32F1xx_HAL_Driver/Inc\stm32f1xx_ll_bus.h **** /**
 351:C:/Users/nace/OneDrive/Desktop/STM32/Projects_nace/NUCLEO_LL_Project_LCD/STM32_template_proj/Drivers/STM32F1xx_HAL_Driver/Inc\stm32f1xx_ll_bus.h ****   * @brief  Force AHB1 peripherals reset.
 352:C:/Users/nace/OneDrive/Desktop/STM32/Projects_nace/NUCLEO_LL_Project_LCD/STM32_template_proj/Drivers/STM32F1xx_HAL_Driver/Inc\stm32f1xx_ll_bus.h ****   * @rmtoll AHBRSTR      ETHMACRST     LL_AHB1_GRP1_ForceReset\n
 353:C:/Users/nace/OneDrive/Desktop/STM32/Projects_nace/NUCLEO_LL_Project_LCD/STM32_template_proj/Drivers/STM32F1xx_HAL_Driver/Inc\stm32f1xx_ll_bus.h ****   *         AHBRSTR      OTGFSRST      LL_AHB1_GRP1_ForceReset
 354:C:/Users/nace/OneDrive/Desktop/STM32/Projects_nace/NUCLEO_LL_Project_LCD/STM32_template_proj/Drivers/STM32F1xx_HAL_Driver/Inc\stm32f1xx_ll_bus.h ****   * @param  Periphs This parameter can be a combination of the following values:
 355:C:/Users/nace/OneDrive/Desktop/STM32/Projects_nace/NUCLEO_LL_Project_LCD/STM32_template_proj/Drivers/STM32F1xx_HAL_Driver/Inc\stm32f1xx_ll_bus.h ****   *         @arg @ref LL_AHB1_GRP1_PERIPH_ALL
 356:C:/Users/nace/OneDrive/Desktop/STM32/Projects_nace/NUCLEO_LL_Project_LCD/STM32_template_proj/Drivers/STM32F1xx_HAL_Driver/Inc\stm32f1xx_ll_bus.h ****   *         @arg @ref LL_AHB1_GRP1_PERIPH_ETHMAC (*)
 357:C:/Users/nace/OneDrive/Desktop/STM32/Projects_nace/NUCLEO_LL_Project_LCD/STM32_template_proj/Drivers/STM32F1xx_HAL_Driver/Inc\stm32f1xx_ll_bus.h ****   *         @arg @ref LL_AHB1_GRP1_PERIPH_OTGFS (*)
 358:C:/Users/nace/OneDrive/Desktop/STM32/Projects_nace/NUCLEO_LL_Project_LCD/STM32_template_proj/Drivers/STM32F1xx_HAL_Driver/Inc\stm32f1xx_ll_bus.h ****   *
 359:C:/Users/nace/OneDrive/Desktop/STM32/Projects_nace/NUCLEO_LL_Project_LCD/STM32_template_proj/Drivers/STM32F1xx_HAL_Driver/Inc\stm32f1xx_ll_bus.h ****   *         (*) value not defined in all devices.
 360:C:/Users/nace/OneDrive/Desktop/STM32/Projects_nace/NUCLEO_LL_Project_LCD/STM32_template_proj/Drivers/STM32F1xx_HAL_Driver/Inc\stm32f1xx_ll_bus.h ****   * @retval None
 361:C:/Users/nace/OneDrive/Desktop/STM32/Projects_nace/NUCLEO_LL_Project_LCD/STM32_template_proj/Drivers/STM32F1xx_HAL_Driver/Inc\stm32f1xx_ll_bus.h **** */
 362:C:/Users/nace/OneDrive/Desktop/STM32/Projects_nace/NUCLEO_LL_Project_LCD/STM32_template_proj/Drivers/STM32F1xx_HAL_Driver/Inc\stm32f1xx_ll_bus.h **** __STATIC_INLINE void LL_AHB1_GRP1_ForceReset(uint32_t Periphs)
 363:C:/Users/nace/OneDrive/Desktop/STM32/Projects_nace/NUCLEO_LL_Project_LCD/STM32_template_proj/Drivers/STM32F1xx_HAL_Driver/Inc\stm32f1xx_ll_bus.h **** {
 364:C:/Users/nace/OneDrive/Desktop/STM32/Projects_nace/NUCLEO_LL_Project_LCD/STM32_template_proj/Drivers/STM32F1xx_HAL_Driver/Inc\stm32f1xx_ll_bus.h ****   SET_BIT(RCC->AHBRSTR, Periphs);
 365:C:/Users/nace/OneDrive/Desktop/STM32/Projects_nace/NUCLEO_LL_Project_LCD/STM32_template_proj/Drivers/STM32F1xx_HAL_Driver/Inc\stm32f1xx_ll_bus.h **** }
 366:C:/Users/nace/OneDrive/Desktop/STM32/Projects_nace/NUCLEO_LL_Project_LCD/STM32_template_proj/Drivers/STM32F1xx_HAL_Driver/Inc\stm32f1xx_ll_bus.h **** 
 367:C:/Users/nace/OneDrive/Desktop/STM32/Projects_nace/NUCLEO_LL_Project_LCD/STM32_template_proj/Drivers/STM32F1xx_HAL_Driver/Inc\stm32f1xx_ll_bus.h **** /**
 368:C:/Users/nace/OneDrive/Desktop/STM32/Projects_nace/NUCLEO_LL_Project_LCD/STM32_template_proj/Drivers/STM32F1xx_HAL_Driver/Inc\stm32f1xx_ll_bus.h ****   * @brief  Release AHB1 peripherals reset.
 369:C:/Users/nace/OneDrive/Desktop/STM32/Projects_nace/NUCLEO_LL_Project_LCD/STM32_template_proj/Drivers/STM32F1xx_HAL_Driver/Inc\stm32f1xx_ll_bus.h ****   * @rmtoll AHBRSTR      ETHMACRST     LL_AHB1_GRP1_ReleaseReset\n
 370:C:/Users/nace/OneDrive/Desktop/STM32/Projects_nace/NUCLEO_LL_Project_LCD/STM32_template_proj/Drivers/STM32F1xx_HAL_Driver/Inc\stm32f1xx_ll_bus.h ****   *         AHBRSTR      OTGFSRST      LL_AHB1_GRP1_ReleaseReset
 371:C:/Users/nace/OneDrive/Desktop/STM32/Projects_nace/NUCLEO_LL_Project_LCD/STM32_template_proj/Drivers/STM32F1xx_HAL_Driver/Inc\stm32f1xx_ll_bus.h ****   * @param  Periphs This parameter can be a combination of the following values:
 372:C:/Users/nace/OneDrive/Desktop/STM32/Projects_nace/NUCLEO_LL_Project_LCD/STM32_template_proj/Drivers/STM32F1xx_HAL_Driver/Inc\stm32f1xx_ll_bus.h ****   *         @arg @ref LL_AHB1_GRP1_PERIPH_ALL
 373:C:/Users/nace/OneDrive/Desktop/STM32/Projects_nace/NUCLEO_LL_Project_LCD/STM32_template_proj/Drivers/STM32F1xx_HAL_Driver/Inc\stm32f1xx_ll_bus.h ****   *         @arg @ref LL_AHB1_GRP1_PERIPH_ETHMAC (*)
 374:C:/Users/nace/OneDrive/Desktop/STM32/Projects_nace/NUCLEO_LL_Project_LCD/STM32_template_proj/Drivers/STM32F1xx_HAL_Driver/Inc\stm32f1xx_ll_bus.h ****   *         @arg @ref LL_AHB1_GRP1_PERIPH_OTGFS (*)
 375:C:/Users/nace/OneDrive/Desktop/STM32/Projects_nace/NUCLEO_LL_Project_LCD/STM32_template_proj/Drivers/STM32F1xx_HAL_Driver/Inc\stm32f1xx_ll_bus.h ****   *
 376:C:/Users/nace/OneDrive/Desktop/STM32/Projects_nace/NUCLEO_LL_Project_LCD/STM32_template_proj/Drivers/STM32F1xx_HAL_Driver/Inc\stm32f1xx_ll_bus.h ****   *         (*) value not defined in all devices.
 377:C:/Users/nace/OneDrive/Desktop/STM32/Projects_nace/NUCLEO_LL_Project_LCD/STM32_template_proj/Drivers/STM32F1xx_HAL_Driver/Inc\stm32f1xx_ll_bus.h ****   * @retval None
 378:C:/Users/nace/OneDrive/Desktop/STM32/Projects_nace/NUCLEO_LL_Project_LCD/STM32_template_proj/Drivers/STM32F1xx_HAL_Driver/Inc\stm32f1xx_ll_bus.h **** */
 379:C:/Users/nace/OneDrive/Desktop/STM32/Projects_nace/NUCLEO_LL_Project_LCD/STM32_template_proj/Drivers/STM32F1xx_HAL_Driver/Inc\stm32f1xx_ll_bus.h **** __STATIC_INLINE void LL_AHB1_GRP1_ReleaseReset(uint32_t Periphs)
 380:C:/Users/nace/OneDrive/Desktop/STM32/Projects_nace/NUCLEO_LL_Project_LCD/STM32_template_proj/Drivers/STM32F1xx_HAL_Driver/Inc\stm32f1xx_ll_bus.h **** {
 381:C:/Users/nace/OneDrive/Desktop/STM32/Projects_nace/NUCLEO_LL_Project_LCD/STM32_template_proj/Drivers/STM32F1xx_HAL_Driver/Inc\stm32f1xx_ll_bus.h ****   CLEAR_BIT(RCC->AHBRSTR, Periphs);
 382:C:/Users/nace/OneDrive/Desktop/STM32/Projects_nace/NUCLEO_LL_Project_LCD/STM32_template_proj/Drivers/STM32F1xx_HAL_Driver/Inc\stm32f1xx_ll_bus.h **** }
 383:C:/Users/nace/OneDrive/Desktop/STM32/Projects_nace/NUCLEO_LL_Project_LCD/STM32_template_proj/Drivers/STM32F1xx_HAL_Driver/Inc\stm32f1xx_ll_bus.h **** #endif /* RCC_AHBRSTR_SUPPORT */
 384:C:/Users/nace/OneDrive/Desktop/STM32/Projects_nace/NUCLEO_LL_Project_LCD/STM32_template_proj/Drivers/STM32F1xx_HAL_Driver/Inc\stm32f1xx_ll_bus.h **** 
 385:C:/Users/nace/OneDrive/Desktop/STM32/Projects_nace/NUCLEO_LL_Project_LCD/STM32_template_proj/Drivers/STM32F1xx_HAL_Driver/Inc\stm32f1xx_ll_bus.h **** /**
 386:C:/Users/nace/OneDrive/Desktop/STM32/Projects_nace/NUCLEO_LL_Project_LCD/STM32_template_proj/Drivers/STM32F1xx_HAL_Driver/Inc\stm32f1xx_ll_bus.h ****   * @}
 387:C:/Users/nace/OneDrive/Desktop/STM32/Projects_nace/NUCLEO_LL_Project_LCD/STM32_template_proj/Drivers/STM32F1xx_HAL_Driver/Inc\stm32f1xx_ll_bus.h ****   */
 388:C:/Users/nace/OneDrive/Desktop/STM32/Projects_nace/NUCLEO_LL_Project_LCD/STM32_template_proj/Drivers/STM32F1xx_HAL_Driver/Inc\stm32f1xx_ll_bus.h **** 
 389:C:/Users/nace/OneDrive/Desktop/STM32/Projects_nace/NUCLEO_LL_Project_LCD/STM32_template_proj/Drivers/STM32F1xx_HAL_Driver/Inc\stm32f1xx_ll_bus.h **** /** @defgroup BUS_LL_EF_APB1 APB1
 390:C:/Users/nace/OneDrive/Desktop/STM32/Projects_nace/NUCLEO_LL_Project_LCD/STM32_template_proj/Drivers/STM32F1xx_HAL_Driver/Inc\stm32f1xx_ll_bus.h ****   * @{
 391:C:/Users/nace/OneDrive/Desktop/STM32/Projects_nace/NUCLEO_LL_Project_LCD/STM32_template_proj/Drivers/STM32F1xx_HAL_Driver/Inc\stm32f1xx_ll_bus.h ****   */
 392:C:/Users/nace/OneDrive/Desktop/STM32/Projects_nace/NUCLEO_LL_Project_LCD/STM32_template_proj/Drivers/STM32F1xx_HAL_Driver/Inc\stm32f1xx_ll_bus.h **** 
 393:C:/Users/nace/OneDrive/Desktop/STM32/Projects_nace/NUCLEO_LL_Project_LCD/STM32_template_proj/Drivers/STM32F1xx_HAL_Driver/Inc\stm32f1xx_ll_bus.h **** /**
 394:C:/Users/nace/OneDrive/Desktop/STM32/Projects_nace/NUCLEO_LL_Project_LCD/STM32_template_proj/Drivers/STM32F1xx_HAL_Driver/Inc\stm32f1xx_ll_bus.h ****   * @brief  Enable APB1 peripherals clock.
 395:C:/Users/nace/OneDrive/Desktop/STM32/Projects_nace/NUCLEO_LL_Project_LCD/STM32_template_proj/Drivers/STM32F1xx_HAL_Driver/Inc\stm32f1xx_ll_bus.h ****   * @rmtoll APB1ENR      BKPEN         LL_APB1_GRP1_EnableClock\n
 396:C:/Users/nace/OneDrive/Desktop/STM32/Projects_nace/NUCLEO_LL_Project_LCD/STM32_template_proj/Drivers/STM32F1xx_HAL_Driver/Inc\stm32f1xx_ll_bus.h ****   *         APB1ENR      CAN1EN        LL_APB1_GRP1_EnableClock\n
 397:C:/Users/nace/OneDrive/Desktop/STM32/Projects_nace/NUCLEO_LL_Project_LCD/STM32_template_proj/Drivers/STM32F1xx_HAL_Driver/Inc\stm32f1xx_ll_bus.h ****   *         APB1ENR      CAN2EN        LL_APB1_GRP1_EnableClock\n
 398:C:/Users/nace/OneDrive/Desktop/STM32/Projects_nace/NUCLEO_LL_Project_LCD/STM32_template_proj/Drivers/STM32F1xx_HAL_Driver/Inc\stm32f1xx_ll_bus.h ****   *         APB1ENR      CECEN         LL_APB1_GRP1_EnableClock\n
 399:C:/Users/nace/OneDrive/Desktop/STM32/Projects_nace/NUCLEO_LL_Project_LCD/STM32_template_proj/Drivers/STM32F1xx_HAL_Driver/Inc\stm32f1xx_ll_bus.h ****   *         APB1ENR      DACEN         LL_APB1_GRP1_EnableClock\n
 400:C:/Users/nace/OneDrive/Desktop/STM32/Projects_nace/NUCLEO_LL_Project_LCD/STM32_template_proj/Drivers/STM32F1xx_HAL_Driver/Inc\stm32f1xx_ll_bus.h ****   *         APB1ENR      I2C1EN        LL_APB1_GRP1_EnableClock\n
 401:C:/Users/nace/OneDrive/Desktop/STM32/Projects_nace/NUCLEO_LL_Project_LCD/STM32_template_proj/Drivers/STM32F1xx_HAL_Driver/Inc\stm32f1xx_ll_bus.h ****   *         APB1ENR      I2C2EN        LL_APB1_GRP1_EnableClock\n
 402:C:/Users/nace/OneDrive/Desktop/STM32/Projects_nace/NUCLEO_LL_Project_LCD/STM32_template_proj/Drivers/STM32F1xx_HAL_Driver/Inc\stm32f1xx_ll_bus.h ****   *         APB1ENR      PWREN         LL_APB1_GRP1_EnableClock\n
 403:C:/Users/nace/OneDrive/Desktop/STM32/Projects_nace/NUCLEO_LL_Project_LCD/STM32_template_proj/Drivers/STM32F1xx_HAL_Driver/Inc\stm32f1xx_ll_bus.h ****   *         APB1ENR      SPI2EN        LL_APB1_GRP1_EnableClock\n
 404:C:/Users/nace/OneDrive/Desktop/STM32/Projects_nace/NUCLEO_LL_Project_LCD/STM32_template_proj/Drivers/STM32F1xx_HAL_Driver/Inc\stm32f1xx_ll_bus.h ****   *         APB1ENR      SPI3EN        LL_APB1_GRP1_EnableClock\n
 405:C:/Users/nace/OneDrive/Desktop/STM32/Projects_nace/NUCLEO_LL_Project_LCD/STM32_template_proj/Drivers/STM32F1xx_HAL_Driver/Inc\stm32f1xx_ll_bus.h ****   *         APB1ENR      TIM12EN       LL_APB1_GRP1_EnableClock\n
 406:C:/Users/nace/OneDrive/Desktop/STM32/Projects_nace/NUCLEO_LL_Project_LCD/STM32_template_proj/Drivers/STM32F1xx_HAL_Driver/Inc\stm32f1xx_ll_bus.h ****   *         APB1ENR      TIM13EN       LL_APB1_GRP1_EnableClock\n
 407:C:/Users/nace/OneDrive/Desktop/STM32/Projects_nace/NUCLEO_LL_Project_LCD/STM32_template_proj/Drivers/STM32F1xx_HAL_Driver/Inc\stm32f1xx_ll_bus.h ****   *         APB1ENR      TIM14EN       LL_APB1_GRP1_EnableClock\n
 408:C:/Users/nace/OneDrive/Desktop/STM32/Projects_nace/NUCLEO_LL_Project_LCD/STM32_template_proj/Drivers/STM32F1xx_HAL_Driver/Inc\stm32f1xx_ll_bus.h ****   *         APB1ENR      TIM2EN        LL_APB1_GRP1_EnableClock\n
 409:C:/Users/nace/OneDrive/Desktop/STM32/Projects_nace/NUCLEO_LL_Project_LCD/STM32_template_proj/Drivers/STM32F1xx_HAL_Driver/Inc\stm32f1xx_ll_bus.h ****   *         APB1ENR      TIM3EN        LL_APB1_GRP1_EnableClock\n
 410:C:/Users/nace/OneDrive/Desktop/STM32/Projects_nace/NUCLEO_LL_Project_LCD/STM32_template_proj/Drivers/STM32F1xx_HAL_Driver/Inc\stm32f1xx_ll_bus.h ****   *         APB1ENR      TIM4EN        LL_APB1_GRP1_EnableClock\n
 411:C:/Users/nace/OneDrive/Desktop/STM32/Projects_nace/NUCLEO_LL_Project_LCD/STM32_template_proj/Drivers/STM32F1xx_HAL_Driver/Inc\stm32f1xx_ll_bus.h ****   *         APB1ENR      TIM5EN        LL_APB1_GRP1_EnableClock\n
 412:C:/Users/nace/OneDrive/Desktop/STM32/Projects_nace/NUCLEO_LL_Project_LCD/STM32_template_proj/Drivers/STM32F1xx_HAL_Driver/Inc\stm32f1xx_ll_bus.h ****   *         APB1ENR      TIM6EN        LL_APB1_GRP1_EnableClock\n
 413:C:/Users/nace/OneDrive/Desktop/STM32/Projects_nace/NUCLEO_LL_Project_LCD/STM32_template_proj/Drivers/STM32F1xx_HAL_Driver/Inc\stm32f1xx_ll_bus.h ****   *         APB1ENR      TIM7EN        LL_APB1_GRP1_EnableClock\n
 414:C:/Users/nace/OneDrive/Desktop/STM32/Projects_nace/NUCLEO_LL_Project_LCD/STM32_template_proj/Drivers/STM32F1xx_HAL_Driver/Inc\stm32f1xx_ll_bus.h ****   *         APB1ENR      UART4EN       LL_APB1_GRP1_EnableClock\n
 415:C:/Users/nace/OneDrive/Desktop/STM32/Projects_nace/NUCLEO_LL_Project_LCD/STM32_template_proj/Drivers/STM32F1xx_HAL_Driver/Inc\stm32f1xx_ll_bus.h ****   *         APB1ENR      UART5EN       LL_APB1_GRP1_EnableClock\n
 416:C:/Users/nace/OneDrive/Desktop/STM32/Projects_nace/NUCLEO_LL_Project_LCD/STM32_template_proj/Drivers/STM32F1xx_HAL_Driver/Inc\stm32f1xx_ll_bus.h ****   *         APB1ENR      USART2EN      LL_APB1_GRP1_EnableClock\n
 417:C:/Users/nace/OneDrive/Desktop/STM32/Projects_nace/NUCLEO_LL_Project_LCD/STM32_template_proj/Drivers/STM32F1xx_HAL_Driver/Inc\stm32f1xx_ll_bus.h ****   *         APB1ENR      USART3EN      LL_APB1_GRP1_EnableClock\n
 418:C:/Users/nace/OneDrive/Desktop/STM32/Projects_nace/NUCLEO_LL_Project_LCD/STM32_template_proj/Drivers/STM32F1xx_HAL_Driver/Inc\stm32f1xx_ll_bus.h ****   *         APB1ENR      USBEN         LL_APB1_GRP1_EnableClock\n
 419:C:/Users/nace/OneDrive/Desktop/STM32/Projects_nace/NUCLEO_LL_Project_LCD/STM32_template_proj/Drivers/STM32F1xx_HAL_Driver/Inc\stm32f1xx_ll_bus.h ****   *         APB1ENR      WWDGEN        LL_APB1_GRP1_EnableClock
 420:C:/Users/nace/OneDrive/Desktop/STM32/Projects_nace/NUCLEO_LL_Project_LCD/STM32_template_proj/Drivers/STM32F1xx_HAL_Driver/Inc\stm32f1xx_ll_bus.h ****   * @param  Periphs This parameter can be a combination of the following values:
 421:C:/Users/nace/OneDrive/Desktop/STM32/Projects_nace/NUCLEO_LL_Project_LCD/STM32_template_proj/Drivers/STM32F1xx_HAL_Driver/Inc\stm32f1xx_ll_bus.h ****   *         @arg @ref LL_APB1_GRP1_PERIPH_BKP
 422:C:/Users/nace/OneDrive/Desktop/STM32/Projects_nace/NUCLEO_LL_Project_LCD/STM32_template_proj/Drivers/STM32F1xx_HAL_Driver/Inc\stm32f1xx_ll_bus.h ****   *         @arg @ref LL_APB1_GRP1_PERIPH_CAN1 (*)
 423:C:/Users/nace/OneDrive/Desktop/STM32/Projects_nace/NUCLEO_LL_Project_LCD/STM32_template_proj/Drivers/STM32F1xx_HAL_Driver/Inc\stm32f1xx_ll_bus.h ****   *         @arg @ref LL_APB1_GRP1_PERIPH_CAN2 (*)
 424:C:/Users/nace/OneDrive/Desktop/STM32/Projects_nace/NUCLEO_LL_Project_LCD/STM32_template_proj/Drivers/STM32F1xx_HAL_Driver/Inc\stm32f1xx_ll_bus.h ****   *         @arg @ref LL_APB1_GRP1_PERIPH_CEC (*)
 425:C:/Users/nace/OneDrive/Desktop/STM32/Projects_nace/NUCLEO_LL_Project_LCD/STM32_template_proj/Drivers/STM32F1xx_HAL_Driver/Inc\stm32f1xx_ll_bus.h ****   *         @arg @ref LL_APB1_GRP1_PERIPH_DAC1 (*)
 426:C:/Users/nace/OneDrive/Desktop/STM32/Projects_nace/NUCLEO_LL_Project_LCD/STM32_template_proj/Drivers/STM32F1xx_HAL_Driver/Inc\stm32f1xx_ll_bus.h ****   *         @arg @ref LL_APB1_GRP1_PERIPH_I2C1
 427:C:/Users/nace/OneDrive/Desktop/STM32/Projects_nace/NUCLEO_LL_Project_LCD/STM32_template_proj/Drivers/STM32F1xx_HAL_Driver/Inc\stm32f1xx_ll_bus.h ****   *         @arg @ref LL_APB1_GRP1_PERIPH_I2C2 (*)
 428:C:/Users/nace/OneDrive/Desktop/STM32/Projects_nace/NUCLEO_LL_Project_LCD/STM32_template_proj/Drivers/STM32F1xx_HAL_Driver/Inc\stm32f1xx_ll_bus.h ****   *         @arg @ref LL_APB1_GRP1_PERIPH_PWR
 429:C:/Users/nace/OneDrive/Desktop/STM32/Projects_nace/NUCLEO_LL_Project_LCD/STM32_template_proj/Drivers/STM32F1xx_HAL_Driver/Inc\stm32f1xx_ll_bus.h ****   *         @arg @ref LL_APB1_GRP1_PERIPH_SPI2 (*)
 430:C:/Users/nace/OneDrive/Desktop/STM32/Projects_nace/NUCLEO_LL_Project_LCD/STM32_template_proj/Drivers/STM32F1xx_HAL_Driver/Inc\stm32f1xx_ll_bus.h ****   *         @arg @ref LL_APB1_GRP1_PERIPH_SPI3 (*)
 431:C:/Users/nace/OneDrive/Desktop/STM32/Projects_nace/NUCLEO_LL_Project_LCD/STM32_template_proj/Drivers/STM32F1xx_HAL_Driver/Inc\stm32f1xx_ll_bus.h ****   *         @arg @ref LL_APB1_GRP1_PERIPH_TIM12 (*)
 432:C:/Users/nace/OneDrive/Desktop/STM32/Projects_nace/NUCLEO_LL_Project_LCD/STM32_template_proj/Drivers/STM32F1xx_HAL_Driver/Inc\stm32f1xx_ll_bus.h ****   *         @arg @ref LL_APB1_GRP1_PERIPH_TIM13 (*)
 433:C:/Users/nace/OneDrive/Desktop/STM32/Projects_nace/NUCLEO_LL_Project_LCD/STM32_template_proj/Drivers/STM32F1xx_HAL_Driver/Inc\stm32f1xx_ll_bus.h ****   *         @arg @ref LL_APB1_GRP1_PERIPH_TIM14 (*)
 434:C:/Users/nace/OneDrive/Desktop/STM32/Projects_nace/NUCLEO_LL_Project_LCD/STM32_template_proj/Drivers/STM32F1xx_HAL_Driver/Inc\stm32f1xx_ll_bus.h ****   *         @arg @ref LL_APB1_GRP1_PERIPH_TIM2
 435:C:/Users/nace/OneDrive/Desktop/STM32/Projects_nace/NUCLEO_LL_Project_LCD/STM32_template_proj/Drivers/STM32F1xx_HAL_Driver/Inc\stm32f1xx_ll_bus.h ****   *         @arg @ref LL_APB1_GRP1_PERIPH_TIM3
 436:C:/Users/nace/OneDrive/Desktop/STM32/Projects_nace/NUCLEO_LL_Project_LCD/STM32_template_proj/Drivers/STM32F1xx_HAL_Driver/Inc\stm32f1xx_ll_bus.h ****   *         @arg @ref LL_APB1_GRP1_PERIPH_TIM4 (*)
 437:C:/Users/nace/OneDrive/Desktop/STM32/Projects_nace/NUCLEO_LL_Project_LCD/STM32_template_proj/Drivers/STM32F1xx_HAL_Driver/Inc\stm32f1xx_ll_bus.h ****   *         @arg @ref LL_APB1_GRP1_PERIPH_TIM5 (*)
 438:C:/Users/nace/OneDrive/Desktop/STM32/Projects_nace/NUCLEO_LL_Project_LCD/STM32_template_proj/Drivers/STM32F1xx_HAL_Driver/Inc\stm32f1xx_ll_bus.h ****   *         @arg @ref LL_APB1_GRP1_PERIPH_TIM6 (*)
 439:C:/Users/nace/OneDrive/Desktop/STM32/Projects_nace/NUCLEO_LL_Project_LCD/STM32_template_proj/Drivers/STM32F1xx_HAL_Driver/Inc\stm32f1xx_ll_bus.h ****   *         @arg @ref LL_APB1_GRP1_PERIPH_TIM7 (*)
 440:C:/Users/nace/OneDrive/Desktop/STM32/Projects_nace/NUCLEO_LL_Project_LCD/STM32_template_proj/Drivers/STM32F1xx_HAL_Driver/Inc\stm32f1xx_ll_bus.h ****   *         @arg @ref LL_APB1_GRP1_PERIPH_UART4 (*)
 441:C:/Users/nace/OneDrive/Desktop/STM32/Projects_nace/NUCLEO_LL_Project_LCD/STM32_template_proj/Drivers/STM32F1xx_HAL_Driver/Inc\stm32f1xx_ll_bus.h ****   *         @arg @ref LL_APB1_GRP1_PERIPH_UART5 (*)
 442:C:/Users/nace/OneDrive/Desktop/STM32/Projects_nace/NUCLEO_LL_Project_LCD/STM32_template_proj/Drivers/STM32F1xx_HAL_Driver/Inc\stm32f1xx_ll_bus.h ****   *         @arg @ref LL_APB1_GRP1_PERIPH_USART2
 443:C:/Users/nace/OneDrive/Desktop/STM32/Projects_nace/NUCLEO_LL_Project_LCD/STM32_template_proj/Drivers/STM32F1xx_HAL_Driver/Inc\stm32f1xx_ll_bus.h ****   *         @arg @ref LL_APB1_GRP1_PERIPH_USART3 (*)
 444:C:/Users/nace/OneDrive/Desktop/STM32/Projects_nace/NUCLEO_LL_Project_LCD/STM32_template_proj/Drivers/STM32F1xx_HAL_Driver/Inc\stm32f1xx_ll_bus.h ****   *         @arg @ref LL_APB1_GRP1_PERIPH_USB (*)
 445:C:/Users/nace/OneDrive/Desktop/STM32/Projects_nace/NUCLEO_LL_Project_LCD/STM32_template_proj/Drivers/STM32F1xx_HAL_Driver/Inc\stm32f1xx_ll_bus.h ****   *         @arg @ref LL_APB1_GRP1_PERIPH_WWDG
 446:C:/Users/nace/OneDrive/Desktop/STM32/Projects_nace/NUCLEO_LL_Project_LCD/STM32_template_proj/Drivers/STM32F1xx_HAL_Driver/Inc\stm32f1xx_ll_bus.h ****   *
 447:C:/Users/nace/OneDrive/Desktop/STM32/Projects_nace/NUCLEO_LL_Project_LCD/STM32_template_proj/Drivers/STM32F1xx_HAL_Driver/Inc\stm32f1xx_ll_bus.h ****   *         (*) value not defined in all devices.
 448:C:/Users/nace/OneDrive/Desktop/STM32/Projects_nace/NUCLEO_LL_Project_LCD/STM32_template_proj/Drivers/STM32F1xx_HAL_Driver/Inc\stm32f1xx_ll_bus.h ****   * @retval None
 449:C:/Users/nace/OneDrive/Desktop/STM32/Projects_nace/NUCLEO_LL_Project_LCD/STM32_template_proj/Drivers/STM32F1xx_HAL_Driver/Inc\stm32f1xx_ll_bus.h **** */
 450:C:/Users/nace/OneDrive/Desktop/STM32/Projects_nace/NUCLEO_LL_Project_LCD/STM32_template_proj/Drivers/STM32F1xx_HAL_Driver/Inc\stm32f1xx_ll_bus.h **** __STATIC_INLINE void LL_APB1_GRP1_EnableClock(uint32_t Periphs)
  61              		.loc 2 450 22 view .LVU6
  62              	.LBB15:
 451:C:/Users/nace/OneDrive/Desktop/STM32/Projects_nace/NUCLEO_LL_Project_LCD/STM32_template_proj/Drivers/STM32F1xx_HAL_Driver/Inc\stm32f1xx_ll_bus.h **** {
 452:C:/Users/nace/OneDrive/Desktop/STM32/Projects_nace/NUCLEO_LL_Project_LCD/STM32_template_proj/Drivers/STM32F1xx_HAL_Driver/Inc\stm32f1xx_ll_bus.h ****   __IO uint32_t tmpreg;
  63              		.loc 2 452 3 view .LVU7
 453:C:/Users/nace/OneDrive/Desktop/STM32/Projects_nace/NUCLEO_LL_Project_LCD/STM32_template_proj/Drivers/STM32F1xx_HAL_Driver/Inc\stm32f1xx_ll_bus.h ****   SET_BIT(RCC->APB1ENR, Periphs);
  64              		.loc 2 453 3 view .LVU8
  65 001e 224B     		ldr	r3, .L3
  66 0020 DA69     		ldr	r2, [r3, #28]
  67 0022 42F40032 		orr	r2, r2, #131072
  68 0026 DA61     		str	r2, [r3, #28]
 454:C:/Users/nace/OneDrive/Desktop/STM32/Projects_nace/NUCLEO_LL_Project_LCD/STM32_template_proj/Drivers/STM32F1xx_HAL_Driver/Inc\stm32f1xx_ll_bus.h ****   /* Delay after an RCC peripheral clock enabling */
 455:C:/Users/nace/OneDrive/Desktop/STM32/Projects_nace/NUCLEO_LL_Project_LCD/STM32_template_proj/Drivers/STM32F1xx_HAL_Driver/Inc\stm32f1xx_ll_bus.h ****   tmpreg = READ_BIT(RCC->APB1ENR, Periphs);
  69              		.loc 2 455 3 view .LVU9
  70              		.loc 2 455 12 is_stmt 0 view .LVU10
  71 0028 DA69     		ldr	r2, [r3, #28]
  72 002a 02F40032 		and	r2, r2, #131072
  73              		.loc 2 455 10 view .LVU11
  74 002e 0192     		str	r2, [sp, #4]
 456:C:/Users/nace/OneDrive/Desktop/STM32/Projects_nace/NUCLEO_LL_Project_LCD/STM32_template_proj/Drivers/STM32F1xx_HAL_Driver/Inc\stm32f1xx_ll_bus.h ****   (void)tmpreg;
  75              		.loc 2 456 3 is_stmt 1 view .LVU12
  76 0030 019A     		ldr	r2, [sp, #4]
  77              	.LVL1:
  78              		.loc 2 456 3 is_stmt 0 view .LVU13
  79              	.LBE15:
  80              	.LBE14:
  16:C:/Users/nace/OneDrive/Desktop/STM32/Projects_nace/NUCLEO_LL_Project_LCD/STM32_template_proj/Core/Src\nt_usart.c ****   LL_APB2_GRP1_EnableClock(LL_APB2_GRP1_PERIPH_GPIOA);
  81              		.loc 1 16 3 is_stmt 1 view .LVU14
  82              	.LBB16:
  83              	.LBI16:
 457:C:/Users/nace/OneDrive/Desktop/STM32/Projects_nace/NUCLEO_LL_Project_LCD/STM32_template_proj/Drivers/STM32F1xx_HAL_Driver/Inc\stm32f1xx_ll_bus.h **** }
 458:C:/Users/nace/OneDrive/Desktop/STM32/Projects_nace/NUCLEO_LL_Project_LCD/STM32_template_proj/Drivers/STM32F1xx_HAL_Driver/Inc\stm32f1xx_ll_bus.h **** 
 459:C:/Users/nace/OneDrive/Desktop/STM32/Projects_nace/NUCLEO_LL_Project_LCD/STM32_template_proj/Drivers/STM32F1xx_HAL_Driver/Inc\stm32f1xx_ll_bus.h **** /**
 460:C:/Users/nace/OneDrive/Desktop/STM32/Projects_nace/NUCLEO_LL_Project_LCD/STM32_template_proj/Drivers/STM32F1xx_HAL_Driver/Inc\stm32f1xx_ll_bus.h ****   * @brief  Check if APB1 peripheral clock is enabled or not
 461:C:/Users/nace/OneDrive/Desktop/STM32/Projects_nace/NUCLEO_LL_Project_LCD/STM32_template_proj/Drivers/STM32F1xx_HAL_Driver/Inc\stm32f1xx_ll_bus.h ****   * @rmtoll APB1ENR      BKPEN         LL_APB1_GRP1_IsEnabledClock\n
 462:C:/Users/nace/OneDrive/Desktop/STM32/Projects_nace/NUCLEO_LL_Project_LCD/STM32_template_proj/Drivers/STM32F1xx_HAL_Driver/Inc\stm32f1xx_ll_bus.h ****   *         APB1ENR      CAN1EN        LL_APB1_GRP1_IsEnabledClock\n
 463:C:/Users/nace/OneDrive/Desktop/STM32/Projects_nace/NUCLEO_LL_Project_LCD/STM32_template_proj/Drivers/STM32F1xx_HAL_Driver/Inc\stm32f1xx_ll_bus.h ****   *         APB1ENR      CAN2EN        LL_APB1_GRP1_IsEnabledClock\n
 464:C:/Users/nace/OneDrive/Desktop/STM32/Projects_nace/NUCLEO_LL_Project_LCD/STM32_template_proj/Drivers/STM32F1xx_HAL_Driver/Inc\stm32f1xx_ll_bus.h ****   *         APB1ENR      CECEN         LL_APB1_GRP1_IsEnabledClock\n
 465:C:/Users/nace/OneDrive/Desktop/STM32/Projects_nace/NUCLEO_LL_Project_LCD/STM32_template_proj/Drivers/STM32F1xx_HAL_Driver/Inc\stm32f1xx_ll_bus.h ****   *         APB1ENR      DACEN         LL_APB1_GRP1_IsEnabledClock\n
 466:C:/Users/nace/OneDrive/Desktop/STM32/Projects_nace/NUCLEO_LL_Project_LCD/STM32_template_proj/Drivers/STM32F1xx_HAL_Driver/Inc\stm32f1xx_ll_bus.h ****   *         APB1ENR      I2C1EN        LL_APB1_GRP1_IsEnabledClock\n
 467:C:/Users/nace/OneDrive/Desktop/STM32/Projects_nace/NUCLEO_LL_Project_LCD/STM32_template_proj/Drivers/STM32F1xx_HAL_Driver/Inc\stm32f1xx_ll_bus.h ****   *         APB1ENR      I2C2EN        LL_APB1_GRP1_IsEnabledClock\n
 468:C:/Users/nace/OneDrive/Desktop/STM32/Projects_nace/NUCLEO_LL_Project_LCD/STM32_template_proj/Drivers/STM32F1xx_HAL_Driver/Inc\stm32f1xx_ll_bus.h ****   *         APB1ENR      PWREN         LL_APB1_GRP1_IsEnabledClock\n
 469:C:/Users/nace/OneDrive/Desktop/STM32/Projects_nace/NUCLEO_LL_Project_LCD/STM32_template_proj/Drivers/STM32F1xx_HAL_Driver/Inc\stm32f1xx_ll_bus.h ****   *         APB1ENR      SPI2EN        LL_APB1_GRP1_IsEnabledClock\n
 470:C:/Users/nace/OneDrive/Desktop/STM32/Projects_nace/NUCLEO_LL_Project_LCD/STM32_template_proj/Drivers/STM32F1xx_HAL_Driver/Inc\stm32f1xx_ll_bus.h ****   *         APB1ENR      SPI3EN        LL_APB1_GRP1_IsEnabledClock\n
 471:C:/Users/nace/OneDrive/Desktop/STM32/Projects_nace/NUCLEO_LL_Project_LCD/STM32_template_proj/Drivers/STM32F1xx_HAL_Driver/Inc\stm32f1xx_ll_bus.h ****   *         APB1ENR      TIM12EN       LL_APB1_GRP1_IsEnabledClock\n
 472:C:/Users/nace/OneDrive/Desktop/STM32/Projects_nace/NUCLEO_LL_Project_LCD/STM32_template_proj/Drivers/STM32F1xx_HAL_Driver/Inc\stm32f1xx_ll_bus.h ****   *         APB1ENR      TIM13EN       LL_APB1_GRP1_IsEnabledClock\n
 473:C:/Users/nace/OneDrive/Desktop/STM32/Projects_nace/NUCLEO_LL_Project_LCD/STM32_template_proj/Drivers/STM32F1xx_HAL_Driver/Inc\stm32f1xx_ll_bus.h ****   *         APB1ENR      TIM14EN       LL_APB1_GRP1_IsEnabledClock\n
 474:C:/Users/nace/OneDrive/Desktop/STM32/Projects_nace/NUCLEO_LL_Project_LCD/STM32_template_proj/Drivers/STM32F1xx_HAL_Driver/Inc\stm32f1xx_ll_bus.h ****   *         APB1ENR      TIM2EN        LL_APB1_GRP1_IsEnabledClock\n
 475:C:/Users/nace/OneDrive/Desktop/STM32/Projects_nace/NUCLEO_LL_Project_LCD/STM32_template_proj/Drivers/STM32F1xx_HAL_Driver/Inc\stm32f1xx_ll_bus.h ****   *         APB1ENR      TIM3EN        LL_APB1_GRP1_IsEnabledClock\n
 476:C:/Users/nace/OneDrive/Desktop/STM32/Projects_nace/NUCLEO_LL_Project_LCD/STM32_template_proj/Drivers/STM32F1xx_HAL_Driver/Inc\stm32f1xx_ll_bus.h ****   *         APB1ENR      TIM4EN        LL_APB1_GRP1_IsEnabledClock\n
 477:C:/Users/nace/OneDrive/Desktop/STM32/Projects_nace/NUCLEO_LL_Project_LCD/STM32_template_proj/Drivers/STM32F1xx_HAL_Driver/Inc\stm32f1xx_ll_bus.h ****   *         APB1ENR      TIM5EN        LL_APB1_GRP1_IsEnabledClock\n
 478:C:/Users/nace/OneDrive/Desktop/STM32/Projects_nace/NUCLEO_LL_Project_LCD/STM32_template_proj/Drivers/STM32F1xx_HAL_Driver/Inc\stm32f1xx_ll_bus.h ****   *         APB1ENR      TIM6EN        LL_APB1_GRP1_IsEnabledClock\n
 479:C:/Users/nace/OneDrive/Desktop/STM32/Projects_nace/NUCLEO_LL_Project_LCD/STM32_template_proj/Drivers/STM32F1xx_HAL_Driver/Inc\stm32f1xx_ll_bus.h ****   *         APB1ENR      TIM7EN        LL_APB1_GRP1_IsEnabledClock\n
 480:C:/Users/nace/OneDrive/Desktop/STM32/Projects_nace/NUCLEO_LL_Project_LCD/STM32_template_proj/Drivers/STM32F1xx_HAL_Driver/Inc\stm32f1xx_ll_bus.h ****   *         APB1ENR      UART4EN       LL_APB1_GRP1_IsEnabledClock\n
 481:C:/Users/nace/OneDrive/Desktop/STM32/Projects_nace/NUCLEO_LL_Project_LCD/STM32_template_proj/Drivers/STM32F1xx_HAL_Driver/Inc\stm32f1xx_ll_bus.h ****   *         APB1ENR      UART5EN       LL_APB1_GRP1_IsEnabledClock\n
 482:C:/Users/nace/OneDrive/Desktop/STM32/Projects_nace/NUCLEO_LL_Project_LCD/STM32_template_proj/Drivers/STM32F1xx_HAL_Driver/Inc\stm32f1xx_ll_bus.h ****   *         APB1ENR      USART2EN      LL_APB1_GRP1_IsEnabledClock\n
 483:C:/Users/nace/OneDrive/Desktop/STM32/Projects_nace/NUCLEO_LL_Project_LCD/STM32_template_proj/Drivers/STM32F1xx_HAL_Driver/Inc\stm32f1xx_ll_bus.h ****   *         APB1ENR      USART3EN      LL_APB1_GRP1_IsEnabledClock\n
 484:C:/Users/nace/OneDrive/Desktop/STM32/Projects_nace/NUCLEO_LL_Project_LCD/STM32_template_proj/Drivers/STM32F1xx_HAL_Driver/Inc\stm32f1xx_ll_bus.h ****   *         APB1ENR      USBEN         LL_APB1_GRP1_IsEnabledClock\n
 485:C:/Users/nace/OneDrive/Desktop/STM32/Projects_nace/NUCLEO_LL_Project_LCD/STM32_template_proj/Drivers/STM32F1xx_HAL_Driver/Inc\stm32f1xx_ll_bus.h ****   *         APB1ENR      WWDGEN        LL_APB1_GRP1_IsEnabledClock
 486:C:/Users/nace/OneDrive/Desktop/STM32/Projects_nace/NUCLEO_LL_Project_LCD/STM32_template_proj/Drivers/STM32F1xx_HAL_Driver/Inc\stm32f1xx_ll_bus.h ****   * @param  Periphs This parameter can be a combination of the following values:
 487:C:/Users/nace/OneDrive/Desktop/STM32/Projects_nace/NUCLEO_LL_Project_LCD/STM32_template_proj/Drivers/STM32F1xx_HAL_Driver/Inc\stm32f1xx_ll_bus.h ****   *         @arg @ref LL_APB1_GRP1_PERIPH_BKP
 488:C:/Users/nace/OneDrive/Desktop/STM32/Projects_nace/NUCLEO_LL_Project_LCD/STM32_template_proj/Drivers/STM32F1xx_HAL_Driver/Inc\stm32f1xx_ll_bus.h ****   *         @arg @ref LL_APB1_GRP1_PERIPH_CAN1 (*)
 489:C:/Users/nace/OneDrive/Desktop/STM32/Projects_nace/NUCLEO_LL_Project_LCD/STM32_template_proj/Drivers/STM32F1xx_HAL_Driver/Inc\stm32f1xx_ll_bus.h ****   *         @arg @ref LL_APB1_GRP1_PERIPH_CAN2 (*)
 490:C:/Users/nace/OneDrive/Desktop/STM32/Projects_nace/NUCLEO_LL_Project_LCD/STM32_template_proj/Drivers/STM32F1xx_HAL_Driver/Inc\stm32f1xx_ll_bus.h ****   *         @arg @ref LL_APB1_GRP1_PERIPH_CEC (*)
 491:C:/Users/nace/OneDrive/Desktop/STM32/Projects_nace/NUCLEO_LL_Project_LCD/STM32_template_proj/Drivers/STM32F1xx_HAL_Driver/Inc\stm32f1xx_ll_bus.h ****   *         @arg @ref LL_APB1_GRP1_PERIPH_DAC1 (*)
 492:C:/Users/nace/OneDrive/Desktop/STM32/Projects_nace/NUCLEO_LL_Project_LCD/STM32_template_proj/Drivers/STM32F1xx_HAL_Driver/Inc\stm32f1xx_ll_bus.h ****   *         @arg @ref LL_APB1_GRP1_PERIPH_I2C1
 493:C:/Users/nace/OneDrive/Desktop/STM32/Projects_nace/NUCLEO_LL_Project_LCD/STM32_template_proj/Drivers/STM32F1xx_HAL_Driver/Inc\stm32f1xx_ll_bus.h ****   *         @arg @ref LL_APB1_GRP1_PERIPH_I2C2 (*)
 494:C:/Users/nace/OneDrive/Desktop/STM32/Projects_nace/NUCLEO_LL_Project_LCD/STM32_template_proj/Drivers/STM32F1xx_HAL_Driver/Inc\stm32f1xx_ll_bus.h ****   *         @arg @ref LL_APB1_GRP1_PERIPH_PWR
 495:C:/Users/nace/OneDrive/Desktop/STM32/Projects_nace/NUCLEO_LL_Project_LCD/STM32_template_proj/Drivers/STM32F1xx_HAL_Driver/Inc\stm32f1xx_ll_bus.h ****   *         @arg @ref LL_APB1_GRP1_PERIPH_SPI2 (*)
 496:C:/Users/nace/OneDrive/Desktop/STM32/Projects_nace/NUCLEO_LL_Project_LCD/STM32_template_proj/Drivers/STM32F1xx_HAL_Driver/Inc\stm32f1xx_ll_bus.h ****   *         @arg @ref LL_APB1_GRP1_PERIPH_SPI3 (*)
 497:C:/Users/nace/OneDrive/Desktop/STM32/Projects_nace/NUCLEO_LL_Project_LCD/STM32_template_proj/Drivers/STM32F1xx_HAL_Driver/Inc\stm32f1xx_ll_bus.h ****   *         @arg @ref LL_APB1_GRP1_PERIPH_TIM12 (*)
 498:C:/Users/nace/OneDrive/Desktop/STM32/Projects_nace/NUCLEO_LL_Project_LCD/STM32_template_proj/Drivers/STM32F1xx_HAL_Driver/Inc\stm32f1xx_ll_bus.h ****   *         @arg @ref LL_APB1_GRP1_PERIPH_TIM13 (*)
 499:C:/Users/nace/OneDrive/Desktop/STM32/Projects_nace/NUCLEO_LL_Project_LCD/STM32_template_proj/Drivers/STM32F1xx_HAL_Driver/Inc\stm32f1xx_ll_bus.h ****   *         @arg @ref LL_APB1_GRP1_PERIPH_TIM14 (*)
 500:C:/Users/nace/OneDrive/Desktop/STM32/Projects_nace/NUCLEO_LL_Project_LCD/STM32_template_proj/Drivers/STM32F1xx_HAL_Driver/Inc\stm32f1xx_ll_bus.h ****   *         @arg @ref LL_APB1_GRP1_PERIPH_TIM2
 501:C:/Users/nace/OneDrive/Desktop/STM32/Projects_nace/NUCLEO_LL_Project_LCD/STM32_template_proj/Drivers/STM32F1xx_HAL_Driver/Inc\stm32f1xx_ll_bus.h ****   *         @arg @ref LL_APB1_GRP1_PERIPH_TIM3
 502:C:/Users/nace/OneDrive/Desktop/STM32/Projects_nace/NUCLEO_LL_Project_LCD/STM32_template_proj/Drivers/STM32F1xx_HAL_Driver/Inc\stm32f1xx_ll_bus.h ****   *         @arg @ref LL_APB1_GRP1_PERIPH_TIM4 (*)
 503:C:/Users/nace/OneDrive/Desktop/STM32/Projects_nace/NUCLEO_LL_Project_LCD/STM32_template_proj/Drivers/STM32F1xx_HAL_Driver/Inc\stm32f1xx_ll_bus.h ****   *         @arg @ref LL_APB1_GRP1_PERIPH_TIM5 (*)
 504:C:/Users/nace/OneDrive/Desktop/STM32/Projects_nace/NUCLEO_LL_Project_LCD/STM32_template_proj/Drivers/STM32F1xx_HAL_Driver/Inc\stm32f1xx_ll_bus.h ****   *         @arg @ref LL_APB1_GRP1_PERIPH_TIM6 (*)
 505:C:/Users/nace/OneDrive/Desktop/STM32/Projects_nace/NUCLEO_LL_Project_LCD/STM32_template_proj/Drivers/STM32F1xx_HAL_Driver/Inc\stm32f1xx_ll_bus.h ****   *         @arg @ref LL_APB1_GRP1_PERIPH_TIM7 (*)
 506:C:/Users/nace/OneDrive/Desktop/STM32/Projects_nace/NUCLEO_LL_Project_LCD/STM32_template_proj/Drivers/STM32F1xx_HAL_Driver/Inc\stm32f1xx_ll_bus.h ****   *         @arg @ref LL_APB1_GRP1_PERIPH_UART4 (*)
 507:C:/Users/nace/OneDrive/Desktop/STM32/Projects_nace/NUCLEO_LL_Project_LCD/STM32_template_proj/Drivers/STM32F1xx_HAL_Driver/Inc\stm32f1xx_ll_bus.h ****   *         @arg @ref LL_APB1_GRP1_PERIPH_UART5 (*)
 508:C:/Users/nace/OneDrive/Desktop/STM32/Projects_nace/NUCLEO_LL_Project_LCD/STM32_template_proj/Drivers/STM32F1xx_HAL_Driver/Inc\stm32f1xx_ll_bus.h ****   *         @arg @ref LL_APB1_GRP1_PERIPH_USART2
 509:C:/Users/nace/OneDrive/Desktop/STM32/Projects_nace/NUCLEO_LL_Project_LCD/STM32_template_proj/Drivers/STM32F1xx_HAL_Driver/Inc\stm32f1xx_ll_bus.h ****   *         @arg @ref LL_APB1_GRP1_PERIPH_USART3 (*)
 510:C:/Users/nace/OneDrive/Desktop/STM32/Projects_nace/NUCLEO_LL_Project_LCD/STM32_template_proj/Drivers/STM32F1xx_HAL_Driver/Inc\stm32f1xx_ll_bus.h ****   *         @arg @ref LL_APB1_GRP1_PERIPH_USB (*)
 511:C:/Users/nace/OneDrive/Desktop/STM32/Projects_nace/NUCLEO_LL_Project_LCD/STM32_template_proj/Drivers/STM32F1xx_HAL_Driver/Inc\stm32f1xx_ll_bus.h ****   *         @arg @ref LL_APB1_GRP1_PERIPH_WWDG
 512:C:/Users/nace/OneDrive/Desktop/STM32/Projects_nace/NUCLEO_LL_Project_LCD/STM32_template_proj/Drivers/STM32F1xx_HAL_Driver/Inc\stm32f1xx_ll_bus.h ****   *
 513:C:/Users/nace/OneDrive/Desktop/STM32/Projects_nace/NUCLEO_LL_Project_LCD/STM32_template_proj/Drivers/STM32F1xx_HAL_Driver/Inc\stm32f1xx_ll_bus.h ****   *         (*) value not defined in all devices.
 514:C:/Users/nace/OneDrive/Desktop/STM32/Projects_nace/NUCLEO_LL_Project_LCD/STM32_template_proj/Drivers/STM32F1xx_HAL_Driver/Inc\stm32f1xx_ll_bus.h ****   * @retval State of Periphs (1 or 0).
 515:C:/Users/nace/OneDrive/Desktop/STM32/Projects_nace/NUCLEO_LL_Project_LCD/STM32_template_proj/Drivers/STM32F1xx_HAL_Driver/Inc\stm32f1xx_ll_bus.h **** */
 516:C:/Users/nace/OneDrive/Desktop/STM32/Projects_nace/NUCLEO_LL_Project_LCD/STM32_template_proj/Drivers/STM32F1xx_HAL_Driver/Inc\stm32f1xx_ll_bus.h **** __STATIC_INLINE uint32_t LL_APB1_GRP1_IsEnabledClock(uint32_t Periphs)
 517:C:/Users/nace/OneDrive/Desktop/STM32/Projects_nace/NUCLEO_LL_Project_LCD/STM32_template_proj/Drivers/STM32F1xx_HAL_Driver/Inc\stm32f1xx_ll_bus.h **** {
 518:C:/Users/nace/OneDrive/Desktop/STM32/Projects_nace/NUCLEO_LL_Project_LCD/STM32_template_proj/Drivers/STM32F1xx_HAL_Driver/Inc\stm32f1xx_ll_bus.h ****   return (READ_BIT(RCC->APB1ENR, Periphs) == Periphs);
 519:C:/Users/nace/OneDrive/Desktop/STM32/Projects_nace/NUCLEO_LL_Project_LCD/STM32_template_proj/Drivers/STM32F1xx_HAL_Driver/Inc\stm32f1xx_ll_bus.h **** }
 520:C:/Users/nace/OneDrive/Desktop/STM32/Projects_nace/NUCLEO_LL_Project_LCD/STM32_template_proj/Drivers/STM32F1xx_HAL_Driver/Inc\stm32f1xx_ll_bus.h **** 
 521:C:/Users/nace/OneDrive/Desktop/STM32/Projects_nace/NUCLEO_LL_Project_LCD/STM32_template_proj/Drivers/STM32F1xx_HAL_Driver/Inc\stm32f1xx_ll_bus.h **** /**
 522:C:/Users/nace/OneDrive/Desktop/STM32/Projects_nace/NUCLEO_LL_Project_LCD/STM32_template_proj/Drivers/STM32F1xx_HAL_Driver/Inc\stm32f1xx_ll_bus.h ****   * @brief  Disable APB1 peripherals clock.
 523:C:/Users/nace/OneDrive/Desktop/STM32/Projects_nace/NUCLEO_LL_Project_LCD/STM32_template_proj/Drivers/STM32F1xx_HAL_Driver/Inc\stm32f1xx_ll_bus.h ****   * @rmtoll APB1ENR      BKPEN         LL_APB1_GRP1_DisableClock\n
 524:C:/Users/nace/OneDrive/Desktop/STM32/Projects_nace/NUCLEO_LL_Project_LCD/STM32_template_proj/Drivers/STM32F1xx_HAL_Driver/Inc\stm32f1xx_ll_bus.h ****   *         APB1ENR      CAN1EN        LL_APB1_GRP1_DisableClock\n
 525:C:/Users/nace/OneDrive/Desktop/STM32/Projects_nace/NUCLEO_LL_Project_LCD/STM32_template_proj/Drivers/STM32F1xx_HAL_Driver/Inc\stm32f1xx_ll_bus.h ****   *         APB1ENR      CAN2EN        LL_APB1_GRP1_DisableClock\n
 526:C:/Users/nace/OneDrive/Desktop/STM32/Projects_nace/NUCLEO_LL_Project_LCD/STM32_template_proj/Drivers/STM32F1xx_HAL_Driver/Inc\stm32f1xx_ll_bus.h ****   *         APB1ENR      CECEN         LL_APB1_GRP1_DisableClock\n
 527:C:/Users/nace/OneDrive/Desktop/STM32/Projects_nace/NUCLEO_LL_Project_LCD/STM32_template_proj/Drivers/STM32F1xx_HAL_Driver/Inc\stm32f1xx_ll_bus.h ****   *         APB1ENR      DACEN         LL_APB1_GRP1_DisableClock\n
 528:C:/Users/nace/OneDrive/Desktop/STM32/Projects_nace/NUCLEO_LL_Project_LCD/STM32_template_proj/Drivers/STM32F1xx_HAL_Driver/Inc\stm32f1xx_ll_bus.h ****   *         APB1ENR      I2C1EN        LL_APB1_GRP1_DisableClock\n
 529:C:/Users/nace/OneDrive/Desktop/STM32/Projects_nace/NUCLEO_LL_Project_LCD/STM32_template_proj/Drivers/STM32F1xx_HAL_Driver/Inc\stm32f1xx_ll_bus.h ****   *         APB1ENR      I2C2EN        LL_APB1_GRP1_DisableClock\n
 530:C:/Users/nace/OneDrive/Desktop/STM32/Projects_nace/NUCLEO_LL_Project_LCD/STM32_template_proj/Drivers/STM32F1xx_HAL_Driver/Inc\stm32f1xx_ll_bus.h ****   *         APB1ENR      PWREN         LL_APB1_GRP1_DisableClock\n
 531:C:/Users/nace/OneDrive/Desktop/STM32/Projects_nace/NUCLEO_LL_Project_LCD/STM32_template_proj/Drivers/STM32F1xx_HAL_Driver/Inc\stm32f1xx_ll_bus.h ****   *         APB1ENR      SPI2EN        LL_APB1_GRP1_DisableClock\n
 532:C:/Users/nace/OneDrive/Desktop/STM32/Projects_nace/NUCLEO_LL_Project_LCD/STM32_template_proj/Drivers/STM32F1xx_HAL_Driver/Inc\stm32f1xx_ll_bus.h ****   *         APB1ENR      SPI3EN        LL_APB1_GRP1_DisableClock\n
 533:C:/Users/nace/OneDrive/Desktop/STM32/Projects_nace/NUCLEO_LL_Project_LCD/STM32_template_proj/Drivers/STM32F1xx_HAL_Driver/Inc\stm32f1xx_ll_bus.h ****   *         APB1ENR      TIM12EN       LL_APB1_GRP1_DisableClock\n
 534:C:/Users/nace/OneDrive/Desktop/STM32/Projects_nace/NUCLEO_LL_Project_LCD/STM32_template_proj/Drivers/STM32F1xx_HAL_Driver/Inc\stm32f1xx_ll_bus.h ****   *         APB1ENR      TIM13EN       LL_APB1_GRP1_DisableClock\n
 535:C:/Users/nace/OneDrive/Desktop/STM32/Projects_nace/NUCLEO_LL_Project_LCD/STM32_template_proj/Drivers/STM32F1xx_HAL_Driver/Inc\stm32f1xx_ll_bus.h ****   *         APB1ENR      TIM14EN       LL_APB1_GRP1_DisableClock\n
 536:C:/Users/nace/OneDrive/Desktop/STM32/Projects_nace/NUCLEO_LL_Project_LCD/STM32_template_proj/Drivers/STM32F1xx_HAL_Driver/Inc\stm32f1xx_ll_bus.h ****   *         APB1ENR      TIM2EN        LL_APB1_GRP1_DisableClock\n
 537:C:/Users/nace/OneDrive/Desktop/STM32/Projects_nace/NUCLEO_LL_Project_LCD/STM32_template_proj/Drivers/STM32F1xx_HAL_Driver/Inc\stm32f1xx_ll_bus.h ****   *         APB1ENR      TIM3EN        LL_APB1_GRP1_DisableClock\n
 538:C:/Users/nace/OneDrive/Desktop/STM32/Projects_nace/NUCLEO_LL_Project_LCD/STM32_template_proj/Drivers/STM32F1xx_HAL_Driver/Inc\stm32f1xx_ll_bus.h ****   *         APB1ENR      TIM4EN        LL_APB1_GRP1_DisableClock\n
 539:C:/Users/nace/OneDrive/Desktop/STM32/Projects_nace/NUCLEO_LL_Project_LCD/STM32_template_proj/Drivers/STM32F1xx_HAL_Driver/Inc\stm32f1xx_ll_bus.h ****   *         APB1ENR      TIM5EN        LL_APB1_GRP1_DisableClock\n
 540:C:/Users/nace/OneDrive/Desktop/STM32/Projects_nace/NUCLEO_LL_Project_LCD/STM32_template_proj/Drivers/STM32F1xx_HAL_Driver/Inc\stm32f1xx_ll_bus.h ****   *         APB1ENR      TIM6EN        LL_APB1_GRP1_DisableClock\n
 541:C:/Users/nace/OneDrive/Desktop/STM32/Projects_nace/NUCLEO_LL_Project_LCD/STM32_template_proj/Drivers/STM32F1xx_HAL_Driver/Inc\stm32f1xx_ll_bus.h ****   *         APB1ENR      TIM7EN        LL_APB1_GRP1_DisableClock\n
 542:C:/Users/nace/OneDrive/Desktop/STM32/Projects_nace/NUCLEO_LL_Project_LCD/STM32_template_proj/Drivers/STM32F1xx_HAL_Driver/Inc\stm32f1xx_ll_bus.h ****   *         APB1ENR      UART4EN       LL_APB1_GRP1_DisableClock\n
 543:C:/Users/nace/OneDrive/Desktop/STM32/Projects_nace/NUCLEO_LL_Project_LCD/STM32_template_proj/Drivers/STM32F1xx_HAL_Driver/Inc\stm32f1xx_ll_bus.h ****   *         APB1ENR      UART5EN       LL_APB1_GRP1_DisableClock\n
 544:C:/Users/nace/OneDrive/Desktop/STM32/Projects_nace/NUCLEO_LL_Project_LCD/STM32_template_proj/Drivers/STM32F1xx_HAL_Driver/Inc\stm32f1xx_ll_bus.h ****   *         APB1ENR      USART2EN      LL_APB1_GRP1_DisableClock\n
 545:C:/Users/nace/OneDrive/Desktop/STM32/Projects_nace/NUCLEO_LL_Project_LCD/STM32_template_proj/Drivers/STM32F1xx_HAL_Driver/Inc\stm32f1xx_ll_bus.h ****   *         APB1ENR      USART3EN      LL_APB1_GRP1_DisableClock\n
 546:C:/Users/nace/OneDrive/Desktop/STM32/Projects_nace/NUCLEO_LL_Project_LCD/STM32_template_proj/Drivers/STM32F1xx_HAL_Driver/Inc\stm32f1xx_ll_bus.h ****   *         APB1ENR      USBEN         LL_APB1_GRP1_DisableClock\n
 547:C:/Users/nace/OneDrive/Desktop/STM32/Projects_nace/NUCLEO_LL_Project_LCD/STM32_template_proj/Drivers/STM32F1xx_HAL_Driver/Inc\stm32f1xx_ll_bus.h ****   *         APB1ENR      WWDGEN        LL_APB1_GRP1_DisableClock
 548:C:/Users/nace/OneDrive/Desktop/STM32/Projects_nace/NUCLEO_LL_Project_LCD/STM32_template_proj/Drivers/STM32F1xx_HAL_Driver/Inc\stm32f1xx_ll_bus.h ****   * @param  Periphs This parameter can be a combination of the following values:
 549:C:/Users/nace/OneDrive/Desktop/STM32/Projects_nace/NUCLEO_LL_Project_LCD/STM32_template_proj/Drivers/STM32F1xx_HAL_Driver/Inc\stm32f1xx_ll_bus.h ****   *         @arg @ref LL_APB1_GRP1_PERIPH_BKP
 550:C:/Users/nace/OneDrive/Desktop/STM32/Projects_nace/NUCLEO_LL_Project_LCD/STM32_template_proj/Drivers/STM32F1xx_HAL_Driver/Inc\stm32f1xx_ll_bus.h ****   *         @arg @ref LL_APB1_GRP1_PERIPH_CAN1 (*)
 551:C:/Users/nace/OneDrive/Desktop/STM32/Projects_nace/NUCLEO_LL_Project_LCD/STM32_template_proj/Drivers/STM32F1xx_HAL_Driver/Inc\stm32f1xx_ll_bus.h ****   *         @arg @ref LL_APB1_GRP1_PERIPH_CAN2 (*)
 552:C:/Users/nace/OneDrive/Desktop/STM32/Projects_nace/NUCLEO_LL_Project_LCD/STM32_template_proj/Drivers/STM32F1xx_HAL_Driver/Inc\stm32f1xx_ll_bus.h ****   *         @arg @ref LL_APB1_GRP1_PERIPH_CEC (*)
 553:C:/Users/nace/OneDrive/Desktop/STM32/Projects_nace/NUCLEO_LL_Project_LCD/STM32_template_proj/Drivers/STM32F1xx_HAL_Driver/Inc\stm32f1xx_ll_bus.h ****   *         @arg @ref LL_APB1_GRP1_PERIPH_DAC1 (*)
 554:C:/Users/nace/OneDrive/Desktop/STM32/Projects_nace/NUCLEO_LL_Project_LCD/STM32_template_proj/Drivers/STM32F1xx_HAL_Driver/Inc\stm32f1xx_ll_bus.h ****   *         @arg @ref LL_APB1_GRP1_PERIPH_I2C1
 555:C:/Users/nace/OneDrive/Desktop/STM32/Projects_nace/NUCLEO_LL_Project_LCD/STM32_template_proj/Drivers/STM32F1xx_HAL_Driver/Inc\stm32f1xx_ll_bus.h ****   *         @arg @ref LL_APB1_GRP1_PERIPH_I2C2 (*)
 556:C:/Users/nace/OneDrive/Desktop/STM32/Projects_nace/NUCLEO_LL_Project_LCD/STM32_template_proj/Drivers/STM32F1xx_HAL_Driver/Inc\stm32f1xx_ll_bus.h ****   *         @arg @ref LL_APB1_GRP1_PERIPH_PWR
 557:C:/Users/nace/OneDrive/Desktop/STM32/Projects_nace/NUCLEO_LL_Project_LCD/STM32_template_proj/Drivers/STM32F1xx_HAL_Driver/Inc\stm32f1xx_ll_bus.h ****   *         @arg @ref LL_APB1_GRP1_PERIPH_SPI2 (*)
 558:C:/Users/nace/OneDrive/Desktop/STM32/Projects_nace/NUCLEO_LL_Project_LCD/STM32_template_proj/Drivers/STM32F1xx_HAL_Driver/Inc\stm32f1xx_ll_bus.h ****   *         @arg @ref LL_APB1_GRP1_PERIPH_SPI3 (*)
 559:C:/Users/nace/OneDrive/Desktop/STM32/Projects_nace/NUCLEO_LL_Project_LCD/STM32_template_proj/Drivers/STM32F1xx_HAL_Driver/Inc\stm32f1xx_ll_bus.h ****   *         @arg @ref LL_APB1_GRP1_PERIPH_TIM12 (*)
 560:C:/Users/nace/OneDrive/Desktop/STM32/Projects_nace/NUCLEO_LL_Project_LCD/STM32_template_proj/Drivers/STM32F1xx_HAL_Driver/Inc\stm32f1xx_ll_bus.h ****   *         @arg @ref LL_APB1_GRP1_PERIPH_TIM13 (*)
 561:C:/Users/nace/OneDrive/Desktop/STM32/Projects_nace/NUCLEO_LL_Project_LCD/STM32_template_proj/Drivers/STM32F1xx_HAL_Driver/Inc\stm32f1xx_ll_bus.h ****   *         @arg @ref LL_APB1_GRP1_PERIPH_TIM14 (*)
 562:C:/Users/nace/OneDrive/Desktop/STM32/Projects_nace/NUCLEO_LL_Project_LCD/STM32_template_proj/Drivers/STM32F1xx_HAL_Driver/Inc\stm32f1xx_ll_bus.h ****   *         @arg @ref LL_APB1_GRP1_PERIPH_TIM2
 563:C:/Users/nace/OneDrive/Desktop/STM32/Projects_nace/NUCLEO_LL_Project_LCD/STM32_template_proj/Drivers/STM32F1xx_HAL_Driver/Inc\stm32f1xx_ll_bus.h ****   *         @arg @ref LL_APB1_GRP1_PERIPH_TIM3
 564:C:/Users/nace/OneDrive/Desktop/STM32/Projects_nace/NUCLEO_LL_Project_LCD/STM32_template_proj/Drivers/STM32F1xx_HAL_Driver/Inc\stm32f1xx_ll_bus.h ****   *         @arg @ref LL_APB1_GRP1_PERIPH_TIM4 (*)
 565:C:/Users/nace/OneDrive/Desktop/STM32/Projects_nace/NUCLEO_LL_Project_LCD/STM32_template_proj/Drivers/STM32F1xx_HAL_Driver/Inc\stm32f1xx_ll_bus.h ****   *         @arg @ref LL_APB1_GRP1_PERIPH_TIM5 (*)
 566:C:/Users/nace/OneDrive/Desktop/STM32/Projects_nace/NUCLEO_LL_Project_LCD/STM32_template_proj/Drivers/STM32F1xx_HAL_Driver/Inc\stm32f1xx_ll_bus.h ****   *         @arg @ref LL_APB1_GRP1_PERIPH_TIM6 (*)
 567:C:/Users/nace/OneDrive/Desktop/STM32/Projects_nace/NUCLEO_LL_Project_LCD/STM32_template_proj/Drivers/STM32F1xx_HAL_Driver/Inc\stm32f1xx_ll_bus.h ****   *         @arg @ref LL_APB1_GRP1_PERIPH_TIM7 (*)
 568:C:/Users/nace/OneDrive/Desktop/STM32/Projects_nace/NUCLEO_LL_Project_LCD/STM32_template_proj/Drivers/STM32F1xx_HAL_Driver/Inc\stm32f1xx_ll_bus.h ****   *         @arg @ref LL_APB1_GRP1_PERIPH_UART4 (*)
 569:C:/Users/nace/OneDrive/Desktop/STM32/Projects_nace/NUCLEO_LL_Project_LCD/STM32_template_proj/Drivers/STM32F1xx_HAL_Driver/Inc\stm32f1xx_ll_bus.h ****   *         @arg @ref LL_APB1_GRP1_PERIPH_UART5 (*)
 570:C:/Users/nace/OneDrive/Desktop/STM32/Projects_nace/NUCLEO_LL_Project_LCD/STM32_template_proj/Drivers/STM32F1xx_HAL_Driver/Inc\stm32f1xx_ll_bus.h ****   *         @arg @ref LL_APB1_GRP1_PERIPH_USART2
 571:C:/Users/nace/OneDrive/Desktop/STM32/Projects_nace/NUCLEO_LL_Project_LCD/STM32_template_proj/Drivers/STM32F1xx_HAL_Driver/Inc\stm32f1xx_ll_bus.h ****   *         @arg @ref LL_APB1_GRP1_PERIPH_USART3 (*)
 572:C:/Users/nace/OneDrive/Desktop/STM32/Projects_nace/NUCLEO_LL_Project_LCD/STM32_template_proj/Drivers/STM32F1xx_HAL_Driver/Inc\stm32f1xx_ll_bus.h ****   *         @arg @ref LL_APB1_GRP1_PERIPH_USB (*)
 573:C:/Users/nace/OneDrive/Desktop/STM32/Projects_nace/NUCLEO_LL_Project_LCD/STM32_template_proj/Drivers/STM32F1xx_HAL_Driver/Inc\stm32f1xx_ll_bus.h ****   *         @arg @ref LL_APB1_GRP1_PERIPH_WWDG
 574:C:/Users/nace/OneDrive/Desktop/STM32/Projects_nace/NUCLEO_LL_Project_LCD/STM32_template_proj/Drivers/STM32F1xx_HAL_Driver/Inc\stm32f1xx_ll_bus.h ****   *
 575:C:/Users/nace/OneDrive/Desktop/STM32/Projects_nace/NUCLEO_LL_Project_LCD/STM32_template_proj/Drivers/STM32F1xx_HAL_Driver/Inc\stm32f1xx_ll_bus.h ****   *         (*) value not defined in all devices.
 576:C:/Users/nace/OneDrive/Desktop/STM32/Projects_nace/NUCLEO_LL_Project_LCD/STM32_template_proj/Drivers/STM32F1xx_HAL_Driver/Inc\stm32f1xx_ll_bus.h ****   * @retval None
 577:C:/Users/nace/OneDrive/Desktop/STM32/Projects_nace/NUCLEO_LL_Project_LCD/STM32_template_proj/Drivers/STM32F1xx_HAL_Driver/Inc\stm32f1xx_ll_bus.h **** */
 578:C:/Users/nace/OneDrive/Desktop/STM32/Projects_nace/NUCLEO_LL_Project_LCD/STM32_template_proj/Drivers/STM32F1xx_HAL_Driver/Inc\stm32f1xx_ll_bus.h **** __STATIC_INLINE void LL_APB1_GRP1_DisableClock(uint32_t Periphs)
 579:C:/Users/nace/OneDrive/Desktop/STM32/Projects_nace/NUCLEO_LL_Project_LCD/STM32_template_proj/Drivers/STM32F1xx_HAL_Driver/Inc\stm32f1xx_ll_bus.h **** {
 580:C:/Users/nace/OneDrive/Desktop/STM32/Projects_nace/NUCLEO_LL_Project_LCD/STM32_template_proj/Drivers/STM32F1xx_HAL_Driver/Inc\stm32f1xx_ll_bus.h ****   CLEAR_BIT(RCC->APB1ENR, Periphs);
 581:C:/Users/nace/OneDrive/Desktop/STM32/Projects_nace/NUCLEO_LL_Project_LCD/STM32_template_proj/Drivers/STM32F1xx_HAL_Driver/Inc\stm32f1xx_ll_bus.h **** }
 582:C:/Users/nace/OneDrive/Desktop/STM32/Projects_nace/NUCLEO_LL_Project_LCD/STM32_template_proj/Drivers/STM32F1xx_HAL_Driver/Inc\stm32f1xx_ll_bus.h **** 
 583:C:/Users/nace/OneDrive/Desktop/STM32/Projects_nace/NUCLEO_LL_Project_LCD/STM32_template_proj/Drivers/STM32F1xx_HAL_Driver/Inc\stm32f1xx_ll_bus.h **** /**
 584:C:/Users/nace/OneDrive/Desktop/STM32/Projects_nace/NUCLEO_LL_Project_LCD/STM32_template_proj/Drivers/STM32F1xx_HAL_Driver/Inc\stm32f1xx_ll_bus.h ****   * @brief  Force APB1 peripherals reset.
 585:C:/Users/nace/OneDrive/Desktop/STM32/Projects_nace/NUCLEO_LL_Project_LCD/STM32_template_proj/Drivers/STM32F1xx_HAL_Driver/Inc\stm32f1xx_ll_bus.h ****   * @rmtoll APB1RSTR     BKPRST        LL_APB1_GRP1_ForceReset\n
 586:C:/Users/nace/OneDrive/Desktop/STM32/Projects_nace/NUCLEO_LL_Project_LCD/STM32_template_proj/Drivers/STM32F1xx_HAL_Driver/Inc\stm32f1xx_ll_bus.h ****   *         APB1RSTR     CAN1RST       LL_APB1_GRP1_ForceReset\n
 587:C:/Users/nace/OneDrive/Desktop/STM32/Projects_nace/NUCLEO_LL_Project_LCD/STM32_template_proj/Drivers/STM32F1xx_HAL_Driver/Inc\stm32f1xx_ll_bus.h ****   *         APB1RSTR     CAN2RST       LL_APB1_GRP1_ForceReset\n
 588:C:/Users/nace/OneDrive/Desktop/STM32/Projects_nace/NUCLEO_LL_Project_LCD/STM32_template_proj/Drivers/STM32F1xx_HAL_Driver/Inc\stm32f1xx_ll_bus.h ****   *         APB1RSTR     CECRST        LL_APB1_GRP1_ForceReset\n
 589:C:/Users/nace/OneDrive/Desktop/STM32/Projects_nace/NUCLEO_LL_Project_LCD/STM32_template_proj/Drivers/STM32F1xx_HAL_Driver/Inc\stm32f1xx_ll_bus.h ****   *         APB1RSTR     DACRST        LL_APB1_GRP1_ForceReset\n
 590:C:/Users/nace/OneDrive/Desktop/STM32/Projects_nace/NUCLEO_LL_Project_LCD/STM32_template_proj/Drivers/STM32F1xx_HAL_Driver/Inc\stm32f1xx_ll_bus.h ****   *         APB1RSTR     I2C1RST       LL_APB1_GRP1_ForceReset\n
 591:C:/Users/nace/OneDrive/Desktop/STM32/Projects_nace/NUCLEO_LL_Project_LCD/STM32_template_proj/Drivers/STM32F1xx_HAL_Driver/Inc\stm32f1xx_ll_bus.h ****   *         APB1RSTR     I2C2RST       LL_APB1_GRP1_ForceReset\n
 592:C:/Users/nace/OneDrive/Desktop/STM32/Projects_nace/NUCLEO_LL_Project_LCD/STM32_template_proj/Drivers/STM32F1xx_HAL_Driver/Inc\stm32f1xx_ll_bus.h ****   *         APB1RSTR     PWRRST        LL_APB1_GRP1_ForceReset\n
 593:C:/Users/nace/OneDrive/Desktop/STM32/Projects_nace/NUCLEO_LL_Project_LCD/STM32_template_proj/Drivers/STM32F1xx_HAL_Driver/Inc\stm32f1xx_ll_bus.h ****   *         APB1RSTR     SPI2RST       LL_APB1_GRP1_ForceReset\n
 594:C:/Users/nace/OneDrive/Desktop/STM32/Projects_nace/NUCLEO_LL_Project_LCD/STM32_template_proj/Drivers/STM32F1xx_HAL_Driver/Inc\stm32f1xx_ll_bus.h ****   *         APB1RSTR     SPI3RST       LL_APB1_GRP1_ForceReset\n
 595:C:/Users/nace/OneDrive/Desktop/STM32/Projects_nace/NUCLEO_LL_Project_LCD/STM32_template_proj/Drivers/STM32F1xx_HAL_Driver/Inc\stm32f1xx_ll_bus.h ****   *         APB1RSTR     TIM12RST      LL_APB1_GRP1_ForceReset\n
 596:C:/Users/nace/OneDrive/Desktop/STM32/Projects_nace/NUCLEO_LL_Project_LCD/STM32_template_proj/Drivers/STM32F1xx_HAL_Driver/Inc\stm32f1xx_ll_bus.h ****   *         APB1RSTR     TIM13RST      LL_APB1_GRP1_ForceReset\n
 597:C:/Users/nace/OneDrive/Desktop/STM32/Projects_nace/NUCLEO_LL_Project_LCD/STM32_template_proj/Drivers/STM32F1xx_HAL_Driver/Inc\stm32f1xx_ll_bus.h ****   *         APB1RSTR     TIM14RST      LL_APB1_GRP1_ForceReset\n
 598:C:/Users/nace/OneDrive/Desktop/STM32/Projects_nace/NUCLEO_LL_Project_LCD/STM32_template_proj/Drivers/STM32F1xx_HAL_Driver/Inc\stm32f1xx_ll_bus.h ****   *         APB1RSTR     TIM2RST       LL_APB1_GRP1_ForceReset\n
 599:C:/Users/nace/OneDrive/Desktop/STM32/Projects_nace/NUCLEO_LL_Project_LCD/STM32_template_proj/Drivers/STM32F1xx_HAL_Driver/Inc\stm32f1xx_ll_bus.h ****   *         APB1RSTR     TIM3RST       LL_APB1_GRP1_ForceReset\n
 600:C:/Users/nace/OneDrive/Desktop/STM32/Projects_nace/NUCLEO_LL_Project_LCD/STM32_template_proj/Drivers/STM32F1xx_HAL_Driver/Inc\stm32f1xx_ll_bus.h ****   *         APB1RSTR     TIM4RST       LL_APB1_GRP1_ForceReset\n
 601:C:/Users/nace/OneDrive/Desktop/STM32/Projects_nace/NUCLEO_LL_Project_LCD/STM32_template_proj/Drivers/STM32F1xx_HAL_Driver/Inc\stm32f1xx_ll_bus.h ****   *         APB1RSTR     TIM5RST       LL_APB1_GRP1_ForceReset\n
 602:C:/Users/nace/OneDrive/Desktop/STM32/Projects_nace/NUCLEO_LL_Project_LCD/STM32_template_proj/Drivers/STM32F1xx_HAL_Driver/Inc\stm32f1xx_ll_bus.h ****   *         APB1RSTR     TIM6RST       LL_APB1_GRP1_ForceReset\n
 603:C:/Users/nace/OneDrive/Desktop/STM32/Projects_nace/NUCLEO_LL_Project_LCD/STM32_template_proj/Drivers/STM32F1xx_HAL_Driver/Inc\stm32f1xx_ll_bus.h ****   *         APB1RSTR     TIM7RST       LL_APB1_GRP1_ForceReset\n
 604:C:/Users/nace/OneDrive/Desktop/STM32/Projects_nace/NUCLEO_LL_Project_LCD/STM32_template_proj/Drivers/STM32F1xx_HAL_Driver/Inc\stm32f1xx_ll_bus.h ****   *         APB1RSTR     UART4RST      LL_APB1_GRP1_ForceReset\n
 605:C:/Users/nace/OneDrive/Desktop/STM32/Projects_nace/NUCLEO_LL_Project_LCD/STM32_template_proj/Drivers/STM32F1xx_HAL_Driver/Inc\stm32f1xx_ll_bus.h ****   *         APB1RSTR     UART5RST      LL_APB1_GRP1_ForceReset\n
 606:C:/Users/nace/OneDrive/Desktop/STM32/Projects_nace/NUCLEO_LL_Project_LCD/STM32_template_proj/Drivers/STM32F1xx_HAL_Driver/Inc\stm32f1xx_ll_bus.h ****   *         APB1RSTR     USART2RST     LL_APB1_GRP1_ForceReset\n
 607:C:/Users/nace/OneDrive/Desktop/STM32/Projects_nace/NUCLEO_LL_Project_LCD/STM32_template_proj/Drivers/STM32F1xx_HAL_Driver/Inc\stm32f1xx_ll_bus.h ****   *         APB1RSTR     USART3RST     LL_APB1_GRP1_ForceReset\n
 608:C:/Users/nace/OneDrive/Desktop/STM32/Projects_nace/NUCLEO_LL_Project_LCD/STM32_template_proj/Drivers/STM32F1xx_HAL_Driver/Inc\stm32f1xx_ll_bus.h ****   *         APB1RSTR     USBRST        LL_APB1_GRP1_ForceReset\n
 609:C:/Users/nace/OneDrive/Desktop/STM32/Projects_nace/NUCLEO_LL_Project_LCD/STM32_template_proj/Drivers/STM32F1xx_HAL_Driver/Inc\stm32f1xx_ll_bus.h ****   *         APB1RSTR     WWDGRST       LL_APB1_GRP1_ForceReset
 610:C:/Users/nace/OneDrive/Desktop/STM32/Projects_nace/NUCLEO_LL_Project_LCD/STM32_template_proj/Drivers/STM32F1xx_HAL_Driver/Inc\stm32f1xx_ll_bus.h ****   * @param  Periphs This parameter can be a combination of the following values:
 611:C:/Users/nace/OneDrive/Desktop/STM32/Projects_nace/NUCLEO_LL_Project_LCD/STM32_template_proj/Drivers/STM32F1xx_HAL_Driver/Inc\stm32f1xx_ll_bus.h ****   *         @arg @ref LL_APB1_GRP1_PERIPH_ALL
 612:C:/Users/nace/OneDrive/Desktop/STM32/Projects_nace/NUCLEO_LL_Project_LCD/STM32_template_proj/Drivers/STM32F1xx_HAL_Driver/Inc\stm32f1xx_ll_bus.h ****   *         @arg @ref LL_APB1_GRP1_PERIPH_BKP
 613:C:/Users/nace/OneDrive/Desktop/STM32/Projects_nace/NUCLEO_LL_Project_LCD/STM32_template_proj/Drivers/STM32F1xx_HAL_Driver/Inc\stm32f1xx_ll_bus.h ****   *         @arg @ref LL_APB1_GRP1_PERIPH_CAN1 (*)
 614:C:/Users/nace/OneDrive/Desktop/STM32/Projects_nace/NUCLEO_LL_Project_LCD/STM32_template_proj/Drivers/STM32F1xx_HAL_Driver/Inc\stm32f1xx_ll_bus.h ****   *         @arg @ref LL_APB1_GRP1_PERIPH_CAN2 (*)
 615:C:/Users/nace/OneDrive/Desktop/STM32/Projects_nace/NUCLEO_LL_Project_LCD/STM32_template_proj/Drivers/STM32F1xx_HAL_Driver/Inc\stm32f1xx_ll_bus.h ****   *         @arg @ref LL_APB1_GRP1_PERIPH_CEC (*)
 616:C:/Users/nace/OneDrive/Desktop/STM32/Projects_nace/NUCLEO_LL_Project_LCD/STM32_template_proj/Drivers/STM32F1xx_HAL_Driver/Inc\stm32f1xx_ll_bus.h ****   *         @arg @ref LL_APB1_GRP1_PERIPH_DAC1 (*)
 617:C:/Users/nace/OneDrive/Desktop/STM32/Projects_nace/NUCLEO_LL_Project_LCD/STM32_template_proj/Drivers/STM32F1xx_HAL_Driver/Inc\stm32f1xx_ll_bus.h ****   *         @arg @ref LL_APB1_GRP1_PERIPH_I2C1
 618:C:/Users/nace/OneDrive/Desktop/STM32/Projects_nace/NUCLEO_LL_Project_LCD/STM32_template_proj/Drivers/STM32F1xx_HAL_Driver/Inc\stm32f1xx_ll_bus.h ****   *         @arg @ref LL_APB1_GRP1_PERIPH_I2C2 (*)
 619:C:/Users/nace/OneDrive/Desktop/STM32/Projects_nace/NUCLEO_LL_Project_LCD/STM32_template_proj/Drivers/STM32F1xx_HAL_Driver/Inc\stm32f1xx_ll_bus.h ****   *         @arg @ref LL_APB1_GRP1_PERIPH_PWR
 620:C:/Users/nace/OneDrive/Desktop/STM32/Projects_nace/NUCLEO_LL_Project_LCD/STM32_template_proj/Drivers/STM32F1xx_HAL_Driver/Inc\stm32f1xx_ll_bus.h ****   *         @arg @ref LL_APB1_GRP1_PERIPH_SPI2 (*)
 621:C:/Users/nace/OneDrive/Desktop/STM32/Projects_nace/NUCLEO_LL_Project_LCD/STM32_template_proj/Drivers/STM32F1xx_HAL_Driver/Inc\stm32f1xx_ll_bus.h ****   *         @arg @ref LL_APB1_GRP1_PERIPH_SPI3 (*)
 622:C:/Users/nace/OneDrive/Desktop/STM32/Projects_nace/NUCLEO_LL_Project_LCD/STM32_template_proj/Drivers/STM32F1xx_HAL_Driver/Inc\stm32f1xx_ll_bus.h ****   *         @arg @ref LL_APB1_GRP1_PERIPH_TIM12 (*)
 623:C:/Users/nace/OneDrive/Desktop/STM32/Projects_nace/NUCLEO_LL_Project_LCD/STM32_template_proj/Drivers/STM32F1xx_HAL_Driver/Inc\stm32f1xx_ll_bus.h ****   *         @arg @ref LL_APB1_GRP1_PERIPH_TIM13 (*)
 624:C:/Users/nace/OneDrive/Desktop/STM32/Projects_nace/NUCLEO_LL_Project_LCD/STM32_template_proj/Drivers/STM32F1xx_HAL_Driver/Inc\stm32f1xx_ll_bus.h ****   *         @arg @ref LL_APB1_GRP1_PERIPH_TIM14 (*)
 625:C:/Users/nace/OneDrive/Desktop/STM32/Projects_nace/NUCLEO_LL_Project_LCD/STM32_template_proj/Drivers/STM32F1xx_HAL_Driver/Inc\stm32f1xx_ll_bus.h ****   *         @arg @ref LL_APB1_GRP1_PERIPH_TIM2
 626:C:/Users/nace/OneDrive/Desktop/STM32/Projects_nace/NUCLEO_LL_Project_LCD/STM32_template_proj/Drivers/STM32F1xx_HAL_Driver/Inc\stm32f1xx_ll_bus.h ****   *         @arg @ref LL_APB1_GRP1_PERIPH_TIM3
 627:C:/Users/nace/OneDrive/Desktop/STM32/Projects_nace/NUCLEO_LL_Project_LCD/STM32_template_proj/Drivers/STM32F1xx_HAL_Driver/Inc\stm32f1xx_ll_bus.h ****   *         @arg @ref LL_APB1_GRP1_PERIPH_TIM4 (*)
 628:C:/Users/nace/OneDrive/Desktop/STM32/Projects_nace/NUCLEO_LL_Project_LCD/STM32_template_proj/Drivers/STM32F1xx_HAL_Driver/Inc\stm32f1xx_ll_bus.h ****   *         @arg @ref LL_APB1_GRP1_PERIPH_TIM5 (*)
 629:C:/Users/nace/OneDrive/Desktop/STM32/Projects_nace/NUCLEO_LL_Project_LCD/STM32_template_proj/Drivers/STM32F1xx_HAL_Driver/Inc\stm32f1xx_ll_bus.h ****   *         @arg @ref LL_APB1_GRP1_PERIPH_TIM6 (*)
 630:C:/Users/nace/OneDrive/Desktop/STM32/Projects_nace/NUCLEO_LL_Project_LCD/STM32_template_proj/Drivers/STM32F1xx_HAL_Driver/Inc\stm32f1xx_ll_bus.h ****   *         @arg @ref LL_APB1_GRP1_PERIPH_TIM7 (*)
 631:C:/Users/nace/OneDrive/Desktop/STM32/Projects_nace/NUCLEO_LL_Project_LCD/STM32_template_proj/Drivers/STM32F1xx_HAL_Driver/Inc\stm32f1xx_ll_bus.h ****   *         @arg @ref LL_APB1_GRP1_PERIPH_UART4 (*)
 632:C:/Users/nace/OneDrive/Desktop/STM32/Projects_nace/NUCLEO_LL_Project_LCD/STM32_template_proj/Drivers/STM32F1xx_HAL_Driver/Inc\stm32f1xx_ll_bus.h ****   *         @arg @ref LL_APB1_GRP1_PERIPH_UART5 (*)
 633:C:/Users/nace/OneDrive/Desktop/STM32/Projects_nace/NUCLEO_LL_Project_LCD/STM32_template_proj/Drivers/STM32F1xx_HAL_Driver/Inc\stm32f1xx_ll_bus.h ****   *         @arg @ref LL_APB1_GRP1_PERIPH_USART2
 634:C:/Users/nace/OneDrive/Desktop/STM32/Projects_nace/NUCLEO_LL_Project_LCD/STM32_template_proj/Drivers/STM32F1xx_HAL_Driver/Inc\stm32f1xx_ll_bus.h ****   *         @arg @ref LL_APB1_GRP1_PERIPH_USART3 (*)
 635:C:/Users/nace/OneDrive/Desktop/STM32/Projects_nace/NUCLEO_LL_Project_LCD/STM32_template_proj/Drivers/STM32F1xx_HAL_Driver/Inc\stm32f1xx_ll_bus.h ****   *         @arg @ref LL_APB1_GRP1_PERIPH_USB (*)
 636:C:/Users/nace/OneDrive/Desktop/STM32/Projects_nace/NUCLEO_LL_Project_LCD/STM32_template_proj/Drivers/STM32F1xx_HAL_Driver/Inc\stm32f1xx_ll_bus.h ****   *         @arg @ref LL_APB1_GRP1_PERIPH_WWDG
 637:C:/Users/nace/OneDrive/Desktop/STM32/Projects_nace/NUCLEO_LL_Project_LCD/STM32_template_proj/Drivers/STM32F1xx_HAL_Driver/Inc\stm32f1xx_ll_bus.h ****   *
 638:C:/Users/nace/OneDrive/Desktop/STM32/Projects_nace/NUCLEO_LL_Project_LCD/STM32_template_proj/Drivers/STM32F1xx_HAL_Driver/Inc\stm32f1xx_ll_bus.h ****   *         (*) value not defined in all devices.
 639:C:/Users/nace/OneDrive/Desktop/STM32/Projects_nace/NUCLEO_LL_Project_LCD/STM32_template_proj/Drivers/STM32F1xx_HAL_Driver/Inc\stm32f1xx_ll_bus.h ****   * @retval None
 640:C:/Users/nace/OneDrive/Desktop/STM32/Projects_nace/NUCLEO_LL_Project_LCD/STM32_template_proj/Drivers/STM32F1xx_HAL_Driver/Inc\stm32f1xx_ll_bus.h **** */
 641:C:/Users/nace/OneDrive/Desktop/STM32/Projects_nace/NUCLEO_LL_Project_LCD/STM32_template_proj/Drivers/STM32F1xx_HAL_Driver/Inc\stm32f1xx_ll_bus.h **** __STATIC_INLINE void LL_APB1_GRP1_ForceReset(uint32_t Periphs)
 642:C:/Users/nace/OneDrive/Desktop/STM32/Projects_nace/NUCLEO_LL_Project_LCD/STM32_template_proj/Drivers/STM32F1xx_HAL_Driver/Inc\stm32f1xx_ll_bus.h **** {
 643:C:/Users/nace/OneDrive/Desktop/STM32/Projects_nace/NUCLEO_LL_Project_LCD/STM32_template_proj/Drivers/STM32F1xx_HAL_Driver/Inc\stm32f1xx_ll_bus.h ****   SET_BIT(RCC->APB1RSTR, Periphs);
 644:C:/Users/nace/OneDrive/Desktop/STM32/Projects_nace/NUCLEO_LL_Project_LCD/STM32_template_proj/Drivers/STM32F1xx_HAL_Driver/Inc\stm32f1xx_ll_bus.h **** }
 645:C:/Users/nace/OneDrive/Desktop/STM32/Projects_nace/NUCLEO_LL_Project_LCD/STM32_template_proj/Drivers/STM32F1xx_HAL_Driver/Inc\stm32f1xx_ll_bus.h **** 
 646:C:/Users/nace/OneDrive/Desktop/STM32/Projects_nace/NUCLEO_LL_Project_LCD/STM32_template_proj/Drivers/STM32F1xx_HAL_Driver/Inc\stm32f1xx_ll_bus.h **** /**
 647:C:/Users/nace/OneDrive/Desktop/STM32/Projects_nace/NUCLEO_LL_Project_LCD/STM32_template_proj/Drivers/STM32F1xx_HAL_Driver/Inc\stm32f1xx_ll_bus.h ****   * @brief  Release APB1 peripherals reset.
 648:C:/Users/nace/OneDrive/Desktop/STM32/Projects_nace/NUCLEO_LL_Project_LCD/STM32_template_proj/Drivers/STM32F1xx_HAL_Driver/Inc\stm32f1xx_ll_bus.h ****   * @rmtoll APB1RSTR     BKPRST        LL_APB1_GRP1_ReleaseReset\n
 649:C:/Users/nace/OneDrive/Desktop/STM32/Projects_nace/NUCLEO_LL_Project_LCD/STM32_template_proj/Drivers/STM32F1xx_HAL_Driver/Inc\stm32f1xx_ll_bus.h ****   *         APB1RSTR     CAN1RST       LL_APB1_GRP1_ReleaseReset\n
 650:C:/Users/nace/OneDrive/Desktop/STM32/Projects_nace/NUCLEO_LL_Project_LCD/STM32_template_proj/Drivers/STM32F1xx_HAL_Driver/Inc\stm32f1xx_ll_bus.h ****   *         APB1RSTR     CAN2RST       LL_APB1_GRP1_ReleaseReset\n
 651:C:/Users/nace/OneDrive/Desktop/STM32/Projects_nace/NUCLEO_LL_Project_LCD/STM32_template_proj/Drivers/STM32F1xx_HAL_Driver/Inc\stm32f1xx_ll_bus.h ****   *         APB1RSTR     CECRST        LL_APB1_GRP1_ReleaseReset\n
 652:C:/Users/nace/OneDrive/Desktop/STM32/Projects_nace/NUCLEO_LL_Project_LCD/STM32_template_proj/Drivers/STM32F1xx_HAL_Driver/Inc\stm32f1xx_ll_bus.h ****   *         APB1RSTR     DACRST        LL_APB1_GRP1_ReleaseReset\n
 653:C:/Users/nace/OneDrive/Desktop/STM32/Projects_nace/NUCLEO_LL_Project_LCD/STM32_template_proj/Drivers/STM32F1xx_HAL_Driver/Inc\stm32f1xx_ll_bus.h ****   *         APB1RSTR     I2C1RST       LL_APB1_GRP1_ReleaseReset\n
 654:C:/Users/nace/OneDrive/Desktop/STM32/Projects_nace/NUCLEO_LL_Project_LCD/STM32_template_proj/Drivers/STM32F1xx_HAL_Driver/Inc\stm32f1xx_ll_bus.h ****   *         APB1RSTR     I2C2RST       LL_APB1_GRP1_ReleaseReset\n
 655:C:/Users/nace/OneDrive/Desktop/STM32/Projects_nace/NUCLEO_LL_Project_LCD/STM32_template_proj/Drivers/STM32F1xx_HAL_Driver/Inc\stm32f1xx_ll_bus.h ****   *         APB1RSTR     PWRRST        LL_APB1_GRP1_ReleaseReset\n
 656:C:/Users/nace/OneDrive/Desktop/STM32/Projects_nace/NUCLEO_LL_Project_LCD/STM32_template_proj/Drivers/STM32F1xx_HAL_Driver/Inc\stm32f1xx_ll_bus.h ****   *         APB1RSTR     SPI2RST       LL_APB1_GRP1_ReleaseReset\n
 657:C:/Users/nace/OneDrive/Desktop/STM32/Projects_nace/NUCLEO_LL_Project_LCD/STM32_template_proj/Drivers/STM32F1xx_HAL_Driver/Inc\stm32f1xx_ll_bus.h ****   *         APB1RSTR     SPI3RST       LL_APB1_GRP1_ReleaseReset\n
 658:C:/Users/nace/OneDrive/Desktop/STM32/Projects_nace/NUCLEO_LL_Project_LCD/STM32_template_proj/Drivers/STM32F1xx_HAL_Driver/Inc\stm32f1xx_ll_bus.h ****   *         APB1RSTR     TIM12RST      LL_APB1_GRP1_ReleaseReset\n
 659:C:/Users/nace/OneDrive/Desktop/STM32/Projects_nace/NUCLEO_LL_Project_LCD/STM32_template_proj/Drivers/STM32F1xx_HAL_Driver/Inc\stm32f1xx_ll_bus.h ****   *         APB1RSTR     TIM13RST      LL_APB1_GRP1_ReleaseReset\n
 660:C:/Users/nace/OneDrive/Desktop/STM32/Projects_nace/NUCLEO_LL_Project_LCD/STM32_template_proj/Drivers/STM32F1xx_HAL_Driver/Inc\stm32f1xx_ll_bus.h ****   *         APB1RSTR     TIM14RST      LL_APB1_GRP1_ReleaseReset\n
 661:C:/Users/nace/OneDrive/Desktop/STM32/Projects_nace/NUCLEO_LL_Project_LCD/STM32_template_proj/Drivers/STM32F1xx_HAL_Driver/Inc\stm32f1xx_ll_bus.h ****   *         APB1RSTR     TIM2RST       LL_APB1_GRP1_ReleaseReset\n
 662:C:/Users/nace/OneDrive/Desktop/STM32/Projects_nace/NUCLEO_LL_Project_LCD/STM32_template_proj/Drivers/STM32F1xx_HAL_Driver/Inc\stm32f1xx_ll_bus.h ****   *         APB1RSTR     TIM3RST       LL_APB1_GRP1_ReleaseReset\n
 663:C:/Users/nace/OneDrive/Desktop/STM32/Projects_nace/NUCLEO_LL_Project_LCD/STM32_template_proj/Drivers/STM32F1xx_HAL_Driver/Inc\stm32f1xx_ll_bus.h ****   *         APB1RSTR     TIM4RST       LL_APB1_GRP1_ReleaseReset\n
 664:C:/Users/nace/OneDrive/Desktop/STM32/Projects_nace/NUCLEO_LL_Project_LCD/STM32_template_proj/Drivers/STM32F1xx_HAL_Driver/Inc\stm32f1xx_ll_bus.h ****   *         APB1RSTR     TIM5RST       LL_APB1_GRP1_ReleaseReset\n
 665:C:/Users/nace/OneDrive/Desktop/STM32/Projects_nace/NUCLEO_LL_Project_LCD/STM32_template_proj/Drivers/STM32F1xx_HAL_Driver/Inc\stm32f1xx_ll_bus.h ****   *         APB1RSTR     TIM6RST       LL_APB1_GRP1_ReleaseReset\n
 666:C:/Users/nace/OneDrive/Desktop/STM32/Projects_nace/NUCLEO_LL_Project_LCD/STM32_template_proj/Drivers/STM32F1xx_HAL_Driver/Inc\stm32f1xx_ll_bus.h ****   *         APB1RSTR     TIM7RST       LL_APB1_GRP1_ReleaseReset\n
 667:C:/Users/nace/OneDrive/Desktop/STM32/Projects_nace/NUCLEO_LL_Project_LCD/STM32_template_proj/Drivers/STM32F1xx_HAL_Driver/Inc\stm32f1xx_ll_bus.h ****   *         APB1RSTR     UART4RST      LL_APB1_GRP1_ReleaseReset\n
 668:C:/Users/nace/OneDrive/Desktop/STM32/Projects_nace/NUCLEO_LL_Project_LCD/STM32_template_proj/Drivers/STM32F1xx_HAL_Driver/Inc\stm32f1xx_ll_bus.h ****   *         APB1RSTR     UART5RST      LL_APB1_GRP1_ReleaseReset\n
 669:C:/Users/nace/OneDrive/Desktop/STM32/Projects_nace/NUCLEO_LL_Project_LCD/STM32_template_proj/Drivers/STM32F1xx_HAL_Driver/Inc\stm32f1xx_ll_bus.h ****   *         APB1RSTR     USART2RST     LL_APB1_GRP1_ReleaseReset\n
 670:C:/Users/nace/OneDrive/Desktop/STM32/Projects_nace/NUCLEO_LL_Project_LCD/STM32_template_proj/Drivers/STM32F1xx_HAL_Driver/Inc\stm32f1xx_ll_bus.h ****   *         APB1RSTR     USART3RST     LL_APB1_GRP1_ReleaseReset\n
 671:C:/Users/nace/OneDrive/Desktop/STM32/Projects_nace/NUCLEO_LL_Project_LCD/STM32_template_proj/Drivers/STM32F1xx_HAL_Driver/Inc\stm32f1xx_ll_bus.h ****   *         APB1RSTR     USBRST        LL_APB1_GRP1_ReleaseReset\n
 672:C:/Users/nace/OneDrive/Desktop/STM32/Projects_nace/NUCLEO_LL_Project_LCD/STM32_template_proj/Drivers/STM32F1xx_HAL_Driver/Inc\stm32f1xx_ll_bus.h ****   *         APB1RSTR     WWDGRST       LL_APB1_GRP1_ReleaseReset
 673:C:/Users/nace/OneDrive/Desktop/STM32/Projects_nace/NUCLEO_LL_Project_LCD/STM32_template_proj/Drivers/STM32F1xx_HAL_Driver/Inc\stm32f1xx_ll_bus.h ****   * @param  Periphs This parameter can be a combination of the following values:
 674:C:/Users/nace/OneDrive/Desktop/STM32/Projects_nace/NUCLEO_LL_Project_LCD/STM32_template_proj/Drivers/STM32F1xx_HAL_Driver/Inc\stm32f1xx_ll_bus.h ****   *         @arg @ref LL_APB1_GRP1_PERIPH_ALL
 675:C:/Users/nace/OneDrive/Desktop/STM32/Projects_nace/NUCLEO_LL_Project_LCD/STM32_template_proj/Drivers/STM32F1xx_HAL_Driver/Inc\stm32f1xx_ll_bus.h ****   *         @arg @ref LL_APB1_GRP1_PERIPH_BKP
 676:C:/Users/nace/OneDrive/Desktop/STM32/Projects_nace/NUCLEO_LL_Project_LCD/STM32_template_proj/Drivers/STM32F1xx_HAL_Driver/Inc\stm32f1xx_ll_bus.h ****   *         @arg @ref LL_APB1_GRP1_PERIPH_CAN1 (*)
 677:C:/Users/nace/OneDrive/Desktop/STM32/Projects_nace/NUCLEO_LL_Project_LCD/STM32_template_proj/Drivers/STM32F1xx_HAL_Driver/Inc\stm32f1xx_ll_bus.h ****   *         @arg @ref LL_APB1_GRP1_PERIPH_CAN2 (*)
 678:C:/Users/nace/OneDrive/Desktop/STM32/Projects_nace/NUCLEO_LL_Project_LCD/STM32_template_proj/Drivers/STM32F1xx_HAL_Driver/Inc\stm32f1xx_ll_bus.h ****   *         @arg @ref LL_APB1_GRP1_PERIPH_CEC (*)
 679:C:/Users/nace/OneDrive/Desktop/STM32/Projects_nace/NUCLEO_LL_Project_LCD/STM32_template_proj/Drivers/STM32F1xx_HAL_Driver/Inc\stm32f1xx_ll_bus.h ****   *         @arg @ref LL_APB1_GRP1_PERIPH_DAC1 (*)
 680:C:/Users/nace/OneDrive/Desktop/STM32/Projects_nace/NUCLEO_LL_Project_LCD/STM32_template_proj/Drivers/STM32F1xx_HAL_Driver/Inc\stm32f1xx_ll_bus.h ****   *         @arg @ref LL_APB1_GRP1_PERIPH_I2C1
 681:C:/Users/nace/OneDrive/Desktop/STM32/Projects_nace/NUCLEO_LL_Project_LCD/STM32_template_proj/Drivers/STM32F1xx_HAL_Driver/Inc\stm32f1xx_ll_bus.h ****   *         @arg @ref LL_APB1_GRP1_PERIPH_I2C2 (*)
 682:C:/Users/nace/OneDrive/Desktop/STM32/Projects_nace/NUCLEO_LL_Project_LCD/STM32_template_proj/Drivers/STM32F1xx_HAL_Driver/Inc\stm32f1xx_ll_bus.h ****   *         @arg @ref LL_APB1_GRP1_PERIPH_PWR
 683:C:/Users/nace/OneDrive/Desktop/STM32/Projects_nace/NUCLEO_LL_Project_LCD/STM32_template_proj/Drivers/STM32F1xx_HAL_Driver/Inc\stm32f1xx_ll_bus.h ****   *         @arg @ref LL_APB1_GRP1_PERIPH_SPI2 (*)
 684:C:/Users/nace/OneDrive/Desktop/STM32/Projects_nace/NUCLEO_LL_Project_LCD/STM32_template_proj/Drivers/STM32F1xx_HAL_Driver/Inc\stm32f1xx_ll_bus.h ****   *         @arg @ref LL_APB1_GRP1_PERIPH_SPI3 (*)
 685:C:/Users/nace/OneDrive/Desktop/STM32/Projects_nace/NUCLEO_LL_Project_LCD/STM32_template_proj/Drivers/STM32F1xx_HAL_Driver/Inc\stm32f1xx_ll_bus.h ****   *         @arg @ref LL_APB1_GRP1_PERIPH_TIM12 (*)
 686:C:/Users/nace/OneDrive/Desktop/STM32/Projects_nace/NUCLEO_LL_Project_LCD/STM32_template_proj/Drivers/STM32F1xx_HAL_Driver/Inc\stm32f1xx_ll_bus.h ****   *         @arg @ref LL_APB1_GRP1_PERIPH_TIM13 (*)
 687:C:/Users/nace/OneDrive/Desktop/STM32/Projects_nace/NUCLEO_LL_Project_LCD/STM32_template_proj/Drivers/STM32F1xx_HAL_Driver/Inc\stm32f1xx_ll_bus.h ****   *         @arg @ref LL_APB1_GRP1_PERIPH_TIM14 (*)
 688:C:/Users/nace/OneDrive/Desktop/STM32/Projects_nace/NUCLEO_LL_Project_LCD/STM32_template_proj/Drivers/STM32F1xx_HAL_Driver/Inc\stm32f1xx_ll_bus.h ****   *         @arg @ref LL_APB1_GRP1_PERIPH_TIM2
 689:C:/Users/nace/OneDrive/Desktop/STM32/Projects_nace/NUCLEO_LL_Project_LCD/STM32_template_proj/Drivers/STM32F1xx_HAL_Driver/Inc\stm32f1xx_ll_bus.h ****   *         @arg @ref LL_APB1_GRP1_PERIPH_TIM3
 690:C:/Users/nace/OneDrive/Desktop/STM32/Projects_nace/NUCLEO_LL_Project_LCD/STM32_template_proj/Drivers/STM32F1xx_HAL_Driver/Inc\stm32f1xx_ll_bus.h ****   *         @arg @ref LL_APB1_GRP1_PERIPH_TIM4 (*)
 691:C:/Users/nace/OneDrive/Desktop/STM32/Projects_nace/NUCLEO_LL_Project_LCD/STM32_template_proj/Drivers/STM32F1xx_HAL_Driver/Inc\stm32f1xx_ll_bus.h ****   *         @arg @ref LL_APB1_GRP1_PERIPH_TIM5 (*)
 692:C:/Users/nace/OneDrive/Desktop/STM32/Projects_nace/NUCLEO_LL_Project_LCD/STM32_template_proj/Drivers/STM32F1xx_HAL_Driver/Inc\stm32f1xx_ll_bus.h ****   *         @arg @ref LL_APB1_GRP1_PERIPH_TIM6 (*)
 693:C:/Users/nace/OneDrive/Desktop/STM32/Projects_nace/NUCLEO_LL_Project_LCD/STM32_template_proj/Drivers/STM32F1xx_HAL_Driver/Inc\stm32f1xx_ll_bus.h ****   *         @arg @ref LL_APB1_GRP1_PERIPH_TIM7 (*)
 694:C:/Users/nace/OneDrive/Desktop/STM32/Projects_nace/NUCLEO_LL_Project_LCD/STM32_template_proj/Drivers/STM32F1xx_HAL_Driver/Inc\stm32f1xx_ll_bus.h ****   *         @arg @ref LL_APB1_GRP1_PERIPH_UART4 (*)
 695:C:/Users/nace/OneDrive/Desktop/STM32/Projects_nace/NUCLEO_LL_Project_LCD/STM32_template_proj/Drivers/STM32F1xx_HAL_Driver/Inc\stm32f1xx_ll_bus.h ****   *         @arg @ref LL_APB1_GRP1_PERIPH_UART5 (*)
 696:C:/Users/nace/OneDrive/Desktop/STM32/Projects_nace/NUCLEO_LL_Project_LCD/STM32_template_proj/Drivers/STM32F1xx_HAL_Driver/Inc\stm32f1xx_ll_bus.h ****   *         @arg @ref LL_APB1_GRP1_PERIPH_USART2
 697:C:/Users/nace/OneDrive/Desktop/STM32/Projects_nace/NUCLEO_LL_Project_LCD/STM32_template_proj/Drivers/STM32F1xx_HAL_Driver/Inc\stm32f1xx_ll_bus.h ****   *         @arg @ref LL_APB1_GRP1_PERIPH_USART3 (*)
 698:C:/Users/nace/OneDrive/Desktop/STM32/Projects_nace/NUCLEO_LL_Project_LCD/STM32_template_proj/Drivers/STM32F1xx_HAL_Driver/Inc\stm32f1xx_ll_bus.h ****   *         @arg @ref LL_APB1_GRP1_PERIPH_USB (*)
 699:C:/Users/nace/OneDrive/Desktop/STM32/Projects_nace/NUCLEO_LL_Project_LCD/STM32_template_proj/Drivers/STM32F1xx_HAL_Driver/Inc\stm32f1xx_ll_bus.h ****   *         @arg @ref LL_APB1_GRP1_PERIPH_WWDG
 700:C:/Users/nace/OneDrive/Desktop/STM32/Projects_nace/NUCLEO_LL_Project_LCD/STM32_template_proj/Drivers/STM32F1xx_HAL_Driver/Inc\stm32f1xx_ll_bus.h ****   *
 701:C:/Users/nace/OneDrive/Desktop/STM32/Projects_nace/NUCLEO_LL_Project_LCD/STM32_template_proj/Drivers/STM32F1xx_HAL_Driver/Inc\stm32f1xx_ll_bus.h ****   *         (*) value not defined in all devices.
 702:C:/Users/nace/OneDrive/Desktop/STM32/Projects_nace/NUCLEO_LL_Project_LCD/STM32_template_proj/Drivers/STM32F1xx_HAL_Driver/Inc\stm32f1xx_ll_bus.h ****   * @retval None
 703:C:/Users/nace/OneDrive/Desktop/STM32/Projects_nace/NUCLEO_LL_Project_LCD/STM32_template_proj/Drivers/STM32F1xx_HAL_Driver/Inc\stm32f1xx_ll_bus.h **** */
 704:C:/Users/nace/OneDrive/Desktop/STM32/Projects_nace/NUCLEO_LL_Project_LCD/STM32_template_proj/Drivers/STM32F1xx_HAL_Driver/Inc\stm32f1xx_ll_bus.h **** __STATIC_INLINE void LL_APB1_GRP1_ReleaseReset(uint32_t Periphs)
 705:C:/Users/nace/OneDrive/Desktop/STM32/Projects_nace/NUCLEO_LL_Project_LCD/STM32_template_proj/Drivers/STM32F1xx_HAL_Driver/Inc\stm32f1xx_ll_bus.h **** {
 706:C:/Users/nace/OneDrive/Desktop/STM32/Projects_nace/NUCLEO_LL_Project_LCD/STM32_template_proj/Drivers/STM32F1xx_HAL_Driver/Inc\stm32f1xx_ll_bus.h ****   CLEAR_BIT(RCC->APB1RSTR, Periphs);
 707:C:/Users/nace/OneDrive/Desktop/STM32/Projects_nace/NUCLEO_LL_Project_LCD/STM32_template_proj/Drivers/STM32F1xx_HAL_Driver/Inc\stm32f1xx_ll_bus.h **** }
 708:C:/Users/nace/OneDrive/Desktop/STM32/Projects_nace/NUCLEO_LL_Project_LCD/STM32_template_proj/Drivers/STM32F1xx_HAL_Driver/Inc\stm32f1xx_ll_bus.h **** 
 709:C:/Users/nace/OneDrive/Desktop/STM32/Projects_nace/NUCLEO_LL_Project_LCD/STM32_template_proj/Drivers/STM32F1xx_HAL_Driver/Inc\stm32f1xx_ll_bus.h **** /**
 710:C:/Users/nace/OneDrive/Desktop/STM32/Projects_nace/NUCLEO_LL_Project_LCD/STM32_template_proj/Drivers/STM32F1xx_HAL_Driver/Inc\stm32f1xx_ll_bus.h ****   * @}
 711:C:/Users/nace/OneDrive/Desktop/STM32/Projects_nace/NUCLEO_LL_Project_LCD/STM32_template_proj/Drivers/STM32F1xx_HAL_Driver/Inc\stm32f1xx_ll_bus.h ****   */
 712:C:/Users/nace/OneDrive/Desktop/STM32/Projects_nace/NUCLEO_LL_Project_LCD/STM32_template_proj/Drivers/STM32F1xx_HAL_Driver/Inc\stm32f1xx_ll_bus.h **** 
 713:C:/Users/nace/OneDrive/Desktop/STM32/Projects_nace/NUCLEO_LL_Project_LCD/STM32_template_proj/Drivers/STM32F1xx_HAL_Driver/Inc\stm32f1xx_ll_bus.h **** /** @defgroup BUS_LL_EF_APB2 APB2
 714:C:/Users/nace/OneDrive/Desktop/STM32/Projects_nace/NUCLEO_LL_Project_LCD/STM32_template_proj/Drivers/STM32F1xx_HAL_Driver/Inc\stm32f1xx_ll_bus.h ****   * @{
 715:C:/Users/nace/OneDrive/Desktop/STM32/Projects_nace/NUCLEO_LL_Project_LCD/STM32_template_proj/Drivers/STM32F1xx_HAL_Driver/Inc\stm32f1xx_ll_bus.h ****   */
 716:C:/Users/nace/OneDrive/Desktop/STM32/Projects_nace/NUCLEO_LL_Project_LCD/STM32_template_proj/Drivers/STM32F1xx_HAL_Driver/Inc\stm32f1xx_ll_bus.h **** 
 717:C:/Users/nace/OneDrive/Desktop/STM32/Projects_nace/NUCLEO_LL_Project_LCD/STM32_template_proj/Drivers/STM32F1xx_HAL_Driver/Inc\stm32f1xx_ll_bus.h **** /**
 718:C:/Users/nace/OneDrive/Desktop/STM32/Projects_nace/NUCLEO_LL_Project_LCD/STM32_template_proj/Drivers/STM32F1xx_HAL_Driver/Inc\stm32f1xx_ll_bus.h ****   * @brief  Enable APB2 peripherals clock.
 719:C:/Users/nace/OneDrive/Desktop/STM32/Projects_nace/NUCLEO_LL_Project_LCD/STM32_template_proj/Drivers/STM32F1xx_HAL_Driver/Inc\stm32f1xx_ll_bus.h ****   * @rmtoll APB2ENR      ADC1EN        LL_APB2_GRP1_EnableClock\n
 720:C:/Users/nace/OneDrive/Desktop/STM32/Projects_nace/NUCLEO_LL_Project_LCD/STM32_template_proj/Drivers/STM32F1xx_HAL_Driver/Inc\stm32f1xx_ll_bus.h ****   *         APB2ENR      ADC2EN        LL_APB2_GRP1_EnableClock\n
 721:C:/Users/nace/OneDrive/Desktop/STM32/Projects_nace/NUCLEO_LL_Project_LCD/STM32_template_proj/Drivers/STM32F1xx_HAL_Driver/Inc\stm32f1xx_ll_bus.h ****   *         APB2ENR      ADC3EN        LL_APB2_GRP1_EnableClock\n
 722:C:/Users/nace/OneDrive/Desktop/STM32/Projects_nace/NUCLEO_LL_Project_LCD/STM32_template_proj/Drivers/STM32F1xx_HAL_Driver/Inc\stm32f1xx_ll_bus.h ****   *         APB2ENR      AFIOEN        LL_APB2_GRP1_EnableClock\n
 723:C:/Users/nace/OneDrive/Desktop/STM32/Projects_nace/NUCLEO_LL_Project_LCD/STM32_template_proj/Drivers/STM32F1xx_HAL_Driver/Inc\stm32f1xx_ll_bus.h ****   *         APB2ENR      IOPAEN        LL_APB2_GRP1_EnableClock\n
 724:C:/Users/nace/OneDrive/Desktop/STM32/Projects_nace/NUCLEO_LL_Project_LCD/STM32_template_proj/Drivers/STM32F1xx_HAL_Driver/Inc\stm32f1xx_ll_bus.h ****   *         APB2ENR      IOPBEN        LL_APB2_GRP1_EnableClock\n
 725:C:/Users/nace/OneDrive/Desktop/STM32/Projects_nace/NUCLEO_LL_Project_LCD/STM32_template_proj/Drivers/STM32F1xx_HAL_Driver/Inc\stm32f1xx_ll_bus.h ****   *         APB2ENR      IOPCEN        LL_APB2_GRP1_EnableClock\n
 726:C:/Users/nace/OneDrive/Desktop/STM32/Projects_nace/NUCLEO_LL_Project_LCD/STM32_template_proj/Drivers/STM32F1xx_HAL_Driver/Inc\stm32f1xx_ll_bus.h ****   *         APB2ENR      IOPDEN        LL_APB2_GRP1_EnableClock\n
 727:C:/Users/nace/OneDrive/Desktop/STM32/Projects_nace/NUCLEO_LL_Project_LCD/STM32_template_proj/Drivers/STM32F1xx_HAL_Driver/Inc\stm32f1xx_ll_bus.h ****   *         APB2ENR      IOPEEN        LL_APB2_GRP1_EnableClock\n
 728:C:/Users/nace/OneDrive/Desktop/STM32/Projects_nace/NUCLEO_LL_Project_LCD/STM32_template_proj/Drivers/STM32F1xx_HAL_Driver/Inc\stm32f1xx_ll_bus.h ****   *         APB2ENR      IOPFEN        LL_APB2_GRP1_EnableClock\n
 729:C:/Users/nace/OneDrive/Desktop/STM32/Projects_nace/NUCLEO_LL_Project_LCD/STM32_template_proj/Drivers/STM32F1xx_HAL_Driver/Inc\stm32f1xx_ll_bus.h ****   *         APB2ENR      IOPGEN        LL_APB2_GRP1_EnableClock\n
 730:C:/Users/nace/OneDrive/Desktop/STM32/Projects_nace/NUCLEO_LL_Project_LCD/STM32_template_proj/Drivers/STM32F1xx_HAL_Driver/Inc\stm32f1xx_ll_bus.h ****   *         APB2ENR      SPI1EN        LL_APB2_GRP1_EnableClock\n
 731:C:/Users/nace/OneDrive/Desktop/STM32/Projects_nace/NUCLEO_LL_Project_LCD/STM32_template_proj/Drivers/STM32F1xx_HAL_Driver/Inc\stm32f1xx_ll_bus.h ****   *         APB2ENR      TIM10EN       LL_APB2_GRP1_EnableClock\n
 732:C:/Users/nace/OneDrive/Desktop/STM32/Projects_nace/NUCLEO_LL_Project_LCD/STM32_template_proj/Drivers/STM32F1xx_HAL_Driver/Inc\stm32f1xx_ll_bus.h ****   *         APB2ENR      TIM11EN       LL_APB2_GRP1_EnableClock\n
 733:C:/Users/nace/OneDrive/Desktop/STM32/Projects_nace/NUCLEO_LL_Project_LCD/STM32_template_proj/Drivers/STM32F1xx_HAL_Driver/Inc\stm32f1xx_ll_bus.h ****   *         APB2ENR      TIM15EN       LL_APB2_GRP1_EnableClock\n
 734:C:/Users/nace/OneDrive/Desktop/STM32/Projects_nace/NUCLEO_LL_Project_LCD/STM32_template_proj/Drivers/STM32F1xx_HAL_Driver/Inc\stm32f1xx_ll_bus.h ****   *         APB2ENR      TIM16EN       LL_APB2_GRP1_EnableClock\n
 735:C:/Users/nace/OneDrive/Desktop/STM32/Projects_nace/NUCLEO_LL_Project_LCD/STM32_template_proj/Drivers/STM32F1xx_HAL_Driver/Inc\stm32f1xx_ll_bus.h ****   *         APB2ENR      TIM17EN       LL_APB2_GRP1_EnableClock\n
 736:C:/Users/nace/OneDrive/Desktop/STM32/Projects_nace/NUCLEO_LL_Project_LCD/STM32_template_proj/Drivers/STM32F1xx_HAL_Driver/Inc\stm32f1xx_ll_bus.h ****   *         APB2ENR      TIM1EN        LL_APB2_GRP1_EnableClock\n
 737:C:/Users/nace/OneDrive/Desktop/STM32/Projects_nace/NUCLEO_LL_Project_LCD/STM32_template_proj/Drivers/STM32F1xx_HAL_Driver/Inc\stm32f1xx_ll_bus.h ****   *         APB2ENR      TIM8EN        LL_APB2_GRP1_EnableClock\n
 738:C:/Users/nace/OneDrive/Desktop/STM32/Projects_nace/NUCLEO_LL_Project_LCD/STM32_template_proj/Drivers/STM32F1xx_HAL_Driver/Inc\stm32f1xx_ll_bus.h ****   *         APB2ENR      TIM9EN        LL_APB2_GRP1_EnableClock\n
 739:C:/Users/nace/OneDrive/Desktop/STM32/Projects_nace/NUCLEO_LL_Project_LCD/STM32_template_proj/Drivers/STM32F1xx_HAL_Driver/Inc\stm32f1xx_ll_bus.h ****   *         APB2ENR      USART1EN      LL_APB2_GRP1_EnableClock
 740:C:/Users/nace/OneDrive/Desktop/STM32/Projects_nace/NUCLEO_LL_Project_LCD/STM32_template_proj/Drivers/STM32F1xx_HAL_Driver/Inc\stm32f1xx_ll_bus.h ****   * @param  Periphs This parameter can be a combination of the following values:
 741:C:/Users/nace/OneDrive/Desktop/STM32/Projects_nace/NUCLEO_LL_Project_LCD/STM32_template_proj/Drivers/STM32F1xx_HAL_Driver/Inc\stm32f1xx_ll_bus.h ****   *         @arg @ref LL_APB2_GRP1_PERIPH_ADC1
 742:C:/Users/nace/OneDrive/Desktop/STM32/Projects_nace/NUCLEO_LL_Project_LCD/STM32_template_proj/Drivers/STM32F1xx_HAL_Driver/Inc\stm32f1xx_ll_bus.h ****   *         @arg @ref LL_APB2_GRP1_PERIPH_ADC2 (*)
 743:C:/Users/nace/OneDrive/Desktop/STM32/Projects_nace/NUCLEO_LL_Project_LCD/STM32_template_proj/Drivers/STM32F1xx_HAL_Driver/Inc\stm32f1xx_ll_bus.h ****   *         @arg @ref LL_APB2_GRP1_PERIPH_ADC3 (*)
 744:C:/Users/nace/OneDrive/Desktop/STM32/Projects_nace/NUCLEO_LL_Project_LCD/STM32_template_proj/Drivers/STM32F1xx_HAL_Driver/Inc\stm32f1xx_ll_bus.h ****   *         @arg @ref LL_APB2_GRP1_PERIPH_AFIO
 745:C:/Users/nace/OneDrive/Desktop/STM32/Projects_nace/NUCLEO_LL_Project_LCD/STM32_template_proj/Drivers/STM32F1xx_HAL_Driver/Inc\stm32f1xx_ll_bus.h ****   *         @arg @ref LL_APB2_GRP1_PERIPH_GPIOA
 746:C:/Users/nace/OneDrive/Desktop/STM32/Projects_nace/NUCLEO_LL_Project_LCD/STM32_template_proj/Drivers/STM32F1xx_HAL_Driver/Inc\stm32f1xx_ll_bus.h ****   *         @arg @ref LL_APB2_GRP1_PERIPH_GPIOB
 747:C:/Users/nace/OneDrive/Desktop/STM32/Projects_nace/NUCLEO_LL_Project_LCD/STM32_template_proj/Drivers/STM32F1xx_HAL_Driver/Inc\stm32f1xx_ll_bus.h ****   *         @arg @ref LL_APB2_GRP1_PERIPH_GPIOC
 748:C:/Users/nace/OneDrive/Desktop/STM32/Projects_nace/NUCLEO_LL_Project_LCD/STM32_template_proj/Drivers/STM32F1xx_HAL_Driver/Inc\stm32f1xx_ll_bus.h ****   *         @arg @ref LL_APB2_GRP1_PERIPH_GPIOD
 749:C:/Users/nace/OneDrive/Desktop/STM32/Projects_nace/NUCLEO_LL_Project_LCD/STM32_template_proj/Drivers/STM32F1xx_HAL_Driver/Inc\stm32f1xx_ll_bus.h ****   *         @arg @ref LL_APB2_GRP1_PERIPH_GPIOE (*)
 750:C:/Users/nace/OneDrive/Desktop/STM32/Projects_nace/NUCLEO_LL_Project_LCD/STM32_template_proj/Drivers/STM32F1xx_HAL_Driver/Inc\stm32f1xx_ll_bus.h ****   *         @arg @ref LL_APB2_GRP1_PERIPH_GPIOF (*)
 751:C:/Users/nace/OneDrive/Desktop/STM32/Projects_nace/NUCLEO_LL_Project_LCD/STM32_template_proj/Drivers/STM32F1xx_HAL_Driver/Inc\stm32f1xx_ll_bus.h ****   *         @arg @ref LL_APB2_GRP1_PERIPH_GPIOG (*)
 752:C:/Users/nace/OneDrive/Desktop/STM32/Projects_nace/NUCLEO_LL_Project_LCD/STM32_template_proj/Drivers/STM32F1xx_HAL_Driver/Inc\stm32f1xx_ll_bus.h ****   *         @arg @ref LL_APB2_GRP1_PERIPH_SPI1
 753:C:/Users/nace/OneDrive/Desktop/STM32/Projects_nace/NUCLEO_LL_Project_LCD/STM32_template_proj/Drivers/STM32F1xx_HAL_Driver/Inc\stm32f1xx_ll_bus.h ****   *         @arg @ref LL_APB2_GRP1_PERIPH_TIM10 (*)
 754:C:/Users/nace/OneDrive/Desktop/STM32/Projects_nace/NUCLEO_LL_Project_LCD/STM32_template_proj/Drivers/STM32F1xx_HAL_Driver/Inc\stm32f1xx_ll_bus.h ****   *         @arg @ref LL_APB2_GRP1_PERIPH_TIM11 (*)
 755:C:/Users/nace/OneDrive/Desktop/STM32/Projects_nace/NUCLEO_LL_Project_LCD/STM32_template_proj/Drivers/STM32F1xx_HAL_Driver/Inc\stm32f1xx_ll_bus.h ****   *         @arg @ref LL_APB2_GRP1_PERIPH_TIM15 (*)
 756:C:/Users/nace/OneDrive/Desktop/STM32/Projects_nace/NUCLEO_LL_Project_LCD/STM32_template_proj/Drivers/STM32F1xx_HAL_Driver/Inc\stm32f1xx_ll_bus.h ****   *         @arg @ref LL_APB2_GRP1_PERIPH_TIM16 (*)
 757:C:/Users/nace/OneDrive/Desktop/STM32/Projects_nace/NUCLEO_LL_Project_LCD/STM32_template_proj/Drivers/STM32F1xx_HAL_Driver/Inc\stm32f1xx_ll_bus.h ****   *         @arg @ref LL_APB2_GRP1_PERIPH_TIM17 (*)
 758:C:/Users/nace/OneDrive/Desktop/STM32/Projects_nace/NUCLEO_LL_Project_LCD/STM32_template_proj/Drivers/STM32F1xx_HAL_Driver/Inc\stm32f1xx_ll_bus.h ****   *         @arg @ref LL_APB2_GRP1_PERIPH_TIM1
 759:C:/Users/nace/OneDrive/Desktop/STM32/Projects_nace/NUCLEO_LL_Project_LCD/STM32_template_proj/Drivers/STM32F1xx_HAL_Driver/Inc\stm32f1xx_ll_bus.h ****   *         @arg @ref LL_APB2_GRP1_PERIPH_TIM8 (*)
 760:C:/Users/nace/OneDrive/Desktop/STM32/Projects_nace/NUCLEO_LL_Project_LCD/STM32_template_proj/Drivers/STM32F1xx_HAL_Driver/Inc\stm32f1xx_ll_bus.h ****   *         @arg @ref LL_APB2_GRP1_PERIPH_TIM9 (*)
 761:C:/Users/nace/OneDrive/Desktop/STM32/Projects_nace/NUCLEO_LL_Project_LCD/STM32_template_proj/Drivers/STM32F1xx_HAL_Driver/Inc\stm32f1xx_ll_bus.h ****   *         @arg @ref LL_APB2_GRP1_PERIPH_USART1
 762:C:/Users/nace/OneDrive/Desktop/STM32/Projects_nace/NUCLEO_LL_Project_LCD/STM32_template_proj/Drivers/STM32F1xx_HAL_Driver/Inc\stm32f1xx_ll_bus.h ****   *
 763:C:/Users/nace/OneDrive/Desktop/STM32/Projects_nace/NUCLEO_LL_Project_LCD/STM32_template_proj/Drivers/STM32F1xx_HAL_Driver/Inc\stm32f1xx_ll_bus.h ****   *         (*) value not defined in all devices.
 764:C:/Users/nace/OneDrive/Desktop/STM32/Projects_nace/NUCLEO_LL_Project_LCD/STM32_template_proj/Drivers/STM32F1xx_HAL_Driver/Inc\stm32f1xx_ll_bus.h ****   * @retval None
 765:C:/Users/nace/OneDrive/Desktop/STM32/Projects_nace/NUCLEO_LL_Project_LCD/STM32_template_proj/Drivers/STM32F1xx_HAL_Driver/Inc\stm32f1xx_ll_bus.h **** */
 766:C:/Users/nace/OneDrive/Desktop/STM32/Projects_nace/NUCLEO_LL_Project_LCD/STM32_template_proj/Drivers/STM32F1xx_HAL_Driver/Inc\stm32f1xx_ll_bus.h **** __STATIC_INLINE void LL_APB2_GRP1_EnableClock(uint32_t Periphs)
  84              		.loc 2 766 22 view .LVU15
  85              	.LBB17:
 767:C:/Users/nace/OneDrive/Desktop/STM32/Projects_nace/NUCLEO_LL_Project_LCD/STM32_template_proj/Drivers/STM32F1xx_HAL_Driver/Inc\stm32f1xx_ll_bus.h **** {
 768:C:/Users/nace/OneDrive/Desktop/STM32/Projects_nace/NUCLEO_LL_Project_LCD/STM32_template_proj/Drivers/STM32F1xx_HAL_Driver/Inc\stm32f1xx_ll_bus.h ****   __IO uint32_t tmpreg;
  86              		.loc 2 768 3 view .LVU16
 769:C:/Users/nace/OneDrive/Desktop/STM32/Projects_nace/NUCLEO_LL_Project_LCD/STM32_template_proj/Drivers/STM32F1xx_HAL_Driver/Inc\stm32f1xx_ll_bus.h ****   SET_BIT(RCC->APB2ENR, Periphs);
  87              		.loc 2 769 3 view .LVU17
  88 0032 9A69     		ldr	r2, [r3, #24]
  89 0034 42F00402 		orr	r2, r2, #4
  90 0038 9A61     		str	r2, [r3, #24]
 770:C:/Users/nace/OneDrive/Desktop/STM32/Projects_nace/NUCLEO_LL_Project_LCD/STM32_template_proj/Drivers/STM32F1xx_HAL_Driver/Inc\stm32f1xx_ll_bus.h ****   /* Delay after an RCC peripheral clock enabling */
 771:C:/Users/nace/OneDrive/Desktop/STM32/Projects_nace/NUCLEO_LL_Project_LCD/STM32_template_proj/Drivers/STM32F1xx_HAL_Driver/Inc\stm32f1xx_ll_bus.h ****   tmpreg = READ_BIT(RCC->APB2ENR, Periphs);
  91              		.loc 2 771 3 view .LVU18
  92              		.loc 2 771 12 is_stmt 0 view .LVU19
  93 003a 9B69     		ldr	r3, [r3, #24]
  94 003c 03F00403 		and	r3, r3, #4
  95              		.loc 2 771 10 view .LVU20
  96 0040 0093     		str	r3, [sp]
 772:C:/Users/nace/OneDrive/Desktop/STM32/Projects_nace/NUCLEO_LL_Project_LCD/STM32_template_proj/Drivers/STM32F1xx_HAL_Driver/Inc\stm32f1xx_ll_bus.h ****   (void)tmpreg;
  97              		.loc 2 772 3 is_stmt 1 view .LVU21
  98 0042 009B     		ldr	r3, [sp]
  99              	.LVL2:
 100              		.loc 2 772 3 is_stmt 0 view .LVU22
 101              	.LBE17:
 102              	.LBE16:
  17:C:/Users/nace/OneDrive/Desktop/STM32/Projects_nace/NUCLEO_LL_Project_LCD/STM32_template_proj/Core/Src\nt_usart.c ****  
  18:C:/Users/nace/OneDrive/Desktop/STM32/Projects_nace/NUCLEO_LL_Project_LCD/STM32_template_proj/Core/Src\nt_usart.c ****   //PA2   ------> USART2_TX
  19:C:/Users/nace/OneDrive/Desktop/STM32/Projects_nace/NUCLEO_LL_Project_LCD/STM32_template_proj/Core/Src\nt_usart.c ****   //PA3   ------> USART2_RX
  20:C:/Users/nace/OneDrive/Desktop/STM32/Projects_nace/NUCLEO_LL_Project_LCD/STM32_template_proj/Core/Src\nt_usart.c ****   
  21:C:/Users/nace/OneDrive/Desktop/STM32/Projects_nace/NUCLEO_LL_Project_LCD/STM32_template_proj/Core/Src\nt_usart.c ****   GPIO_InitStruct.Pin = LL_GPIO_PIN_2;
 103              		.loc 1 21 3 is_stmt 1 view .LVU23
 104              		.loc 1 21 23 is_stmt 0 view .LVU24
 105 0044 40F20443 		movw	r3, #1028
 106 0048 0293     		str	r3, [sp, #8]
  22:C:/Users/nace/OneDrive/Desktop/STM32/Projects_nace/NUCLEO_LL_Project_LCD/STM32_template_proj/Core/Src\nt_usart.c ****   GPIO_InitStruct.Mode = LL_GPIO_MODE_ALTERNATE;
 107              		.loc 1 22 3 is_stmt 1 view .LVU25
 108              		.loc 1 22 24 is_stmt 0 view .LVU26
 109 004a 0926     		movs	r6, #9
 110 004c 0396     		str	r6, [sp, #12]
  23:C:/Users/nace/OneDrive/Desktop/STM32/Projects_nace/NUCLEO_LL_Project_LCD/STM32_template_proj/Core/Src\nt_usart.c ****   GPIO_InitStruct.Speed = LL_GPIO_SPEED_FREQ_LOW;
 111              		.loc 1 23 3 is_stmt 1 view .LVU27
 112              		.loc 1 23 25 is_stmt 0 view .LVU28
 113 004e 0223     		movs	r3, #2
 114 0050 0493     		str	r3, [sp, #16]
  24:C:/Users/nace/OneDrive/Desktop/STM32/Projects_nace/NUCLEO_LL_Project_LCD/STM32_template_proj/Core/Src\nt_usart.c ****   GPIO_InitStruct.OutputType = LL_GPIO_OUTPUT_PUSHPULL;
 115              		.loc 1 24 3 is_stmt 1 view .LVU29
  25:C:/Users/nace/OneDrive/Desktop/STM32/Projects_nace/NUCLEO_LL_Project_LCD/STM32_template_proj/Core/Src\nt_usart.c ****   LL_GPIO_Init(GPIOA, &GPIO_InitStruct);
 116              		.loc 1 25 3 view .LVU30
 117 0052 164D     		ldr	r5, .L3+4
 118 0054 02A9     		add	r1, sp, #8
 119 0056 2846     		mov	r0, r5
 120 0058 FFF7FEFF 		bl	LL_GPIO_Init
 121              	.LVL3:
  26:C:/Users/nace/OneDrive/Desktop/STM32/Projects_nace/NUCLEO_LL_Project_LCD/STM32_template_proj/Core/Src\nt_usart.c **** 
  27:C:/Users/nace/OneDrive/Desktop/STM32/Projects_nace/NUCLEO_LL_Project_LCD/STM32_template_proj/Core/Src\nt_usart.c ****   GPIO_InitStruct.Pin = LL_GPIO_PIN_3;
 122              		.loc 1 27 3 view .LVU31
 123              		.loc 1 27 23 is_stmt 0 view .LVU32
 124 005c 40F60803 		movw	r3, #2056
 125 0060 0293     		str	r3, [sp, #8]
  28:C:/Users/nace/OneDrive/Desktop/STM32/Projects_nace/NUCLEO_LL_Project_LCD/STM32_template_proj/Core/Src\nt_usart.c ****   GPIO_InitStruct.Mode = LL_GPIO_MODE_ALTERNATE;
 126              		.loc 1 28 3 is_stmt 1 view .LVU33
 127              		.loc 1 28 24 is_stmt 0 view .LVU34
 128 0062 0396     		str	r6, [sp, #12]
  29:C:/Users/nace/OneDrive/Desktop/STM32/Projects_nace/NUCLEO_LL_Project_LCD/STM32_template_proj/Core/Src\nt_usart.c ****   LL_GPIO_Init(GPIOA, &GPIO_InitStruct);
 129              		.loc 1 29 3 is_stmt 1 view .LVU35
 130 0064 02A9     		add	r1, sp, #8
 131 0066 2846     		mov	r0, r5
 132 0068 FFF7FEFF 		bl	LL_GPIO_Init
 133              	.LVL4:
  30:C:/Users/nace/OneDrive/Desktop/STM32/Projects_nace/NUCLEO_LL_Project_LCD/STM32_template_proj/Core/Src\nt_usart.c **** 
  31:C:/Users/nace/OneDrive/Desktop/STM32/Projects_nace/NUCLEO_LL_Project_LCD/STM32_template_proj/Core/Src\nt_usart.c **** 
  32:C:/Users/nace/OneDrive/Desktop/STM32/Projects_nace/NUCLEO_LL_Project_LCD/STM32_template_proj/Core/Src\nt_usart.c ****   USART_InitStruct.BaudRate = 115200;
 134              		.loc 1 32 3 view .LVU36
 135              		.loc 1 32 29 is_stmt 0 view .LVU37
 136 006c 4FF4E133 		mov	r3, #115200
 137 0070 0793     		str	r3, [sp, #28]
  33:C:/Users/nace/OneDrive/Desktop/STM32/Projects_nace/NUCLEO_LL_Project_LCD/STM32_template_proj/Core/Src\nt_usart.c ****   USART_InitStruct.DataWidth = LL_USART_DATAWIDTH_8B;
 138              		.loc 1 33 3 is_stmt 1 view .LVU38
 139              		.loc 1 33 30 is_stmt 0 view .LVU39
 140 0072 0894     		str	r4, [sp, #32]
  34:C:/Users/nace/OneDrive/Desktop/STM32/Projects_nace/NUCLEO_LL_Project_LCD/STM32_template_proj/Core/Src\nt_usart.c ****   USART_InitStruct.StopBits = LL_USART_STOPBITS_1;
 141              		.loc 1 34 3 is_stmt 1 view .LVU40
 142              		.loc 1 34 29 is_stmt 0 view .LVU41
 143 0074 0994     		str	r4, [sp, #36]
  35:C:/Users/nace/OneDrive/Desktop/STM32/Projects_nace/NUCLEO_LL_Project_LCD/STM32_template_proj/Core/Src\nt_usart.c ****   USART_InitStruct.Parity = LL_USART_PARITY_NONE;
 144              		.loc 1 35 3 is_stmt 1 view .LVU42
 145              		.loc 1 35 27 is_stmt 0 view .LVU43
 146 0076 0A94     		str	r4, [sp, #40]
  36:C:/Users/nace/OneDrive/Desktop/STM32/Projects_nace/NUCLEO_LL_Project_LCD/STM32_template_proj/Core/Src\nt_usart.c ****   USART_InitStruct.TransferDirection = LL_USART_DIRECTION_TX_RX;
 147              		.loc 1 36 3 is_stmt 1 view .LVU44
 148              		.loc 1 36 38 is_stmt 0 view .LVU45
 149 0078 0C23     		movs	r3, #12
 150 007a 0B93     		str	r3, [sp, #44]
  37:C:/Users/nace/OneDrive/Desktop/STM32/Projects_nace/NUCLEO_LL_Project_LCD/STM32_template_proj/Core/Src\nt_usart.c ****   USART_InitStruct.HardwareFlowControl = LL_USART_HWCONTROL_NONE;
 151              		.loc 1 37 3 is_stmt 1 view .LVU46
 152              		.loc 1 37 40 is_stmt 0 view .LVU47
 153 007c 0C94     		str	r4, [sp, #48]
  38:C:/Users/nace/OneDrive/Desktop/STM32/Projects_nace/NUCLEO_LL_Project_LCD/STM32_template_proj/Core/Src\nt_usart.c ****   USART_InitStruct.OverSampling = LL_USART_OVERSAMPLING_16;
 154              		.loc 1 38 3 is_stmt 1 view .LVU48
 155              		.loc 1 38 33 is_stmt 0 view .LVU49
 156 007e 0D94     		str	r4, [sp, #52]
  39:C:/Users/nace/OneDrive/Desktop/STM32/Projects_nace/NUCLEO_LL_Project_LCD/STM32_template_proj/Core/Src\nt_usart.c ****   LL_USART_Init(USART2, &USART_InitStruct);
 157              		.loc 1 39 3 is_stmt 1 view .LVU50
 158 0080 0B4C     		ldr	r4, .L3+8
 159 0082 07A9     		add	r1, sp, #28
 160 0084 2046     		mov	r0, r4
 161 0086 FFF7FEFF 		bl	LL_USART_Init
 162              	.LVL5:
  40:C:/Users/nace/OneDrive/Desktop/STM32/Projects_nace/NUCLEO_LL_Project_LCD/STM32_template_proj/Core/Src\nt_usart.c ****   LL_USART_ConfigAsyncMode(USART2);
 163              		.loc 1 40 3 view .LVU51
 164              	.LBB18:
 165              	.LBI18:
 166              		.file 3 "C:/Users/nace/OneDrive/Desktop/STM32/Projects_nace/NUCLEO_LL_Project_LCD/STM32_template_p
   1:C:/Users/nace/OneDrive/Desktop/STM32/Projects_nace/NUCLEO_LL_Project_LCD/STM32_template_proj/Drivers/STM32F1xx_HAL_Driver/Inc\stm32f1xx_ll_usart.h **** /**
   2:C:/Users/nace/OneDrive/Desktop/STM32/Projects_nace/NUCLEO_LL_Project_LCD/STM32_template_proj/Drivers/STM32F1xx_HAL_Driver/Inc\stm32f1xx_ll_usart.h ****   ******************************************************************************
   3:C:/Users/nace/OneDrive/Desktop/STM32/Projects_nace/NUCLEO_LL_Project_LCD/STM32_template_proj/Drivers/STM32F1xx_HAL_Driver/Inc\stm32f1xx_ll_usart.h ****   * @file    stm32f1xx_ll_usart.h
   4:C:/Users/nace/OneDrive/Desktop/STM32/Projects_nace/NUCLEO_LL_Project_LCD/STM32_template_proj/Drivers/STM32F1xx_HAL_Driver/Inc\stm32f1xx_ll_usart.h ****   * @author  MCD Application Team
   5:C:/Users/nace/OneDrive/Desktop/STM32/Projects_nace/NUCLEO_LL_Project_LCD/STM32_template_proj/Drivers/STM32F1xx_HAL_Driver/Inc\stm32f1xx_ll_usart.h ****   * @brief   Header file of USART LL module.
   6:C:/Users/nace/OneDrive/Desktop/STM32/Projects_nace/NUCLEO_LL_Project_LCD/STM32_template_proj/Drivers/STM32F1xx_HAL_Driver/Inc\stm32f1xx_ll_usart.h ****   ******************************************************************************
   7:C:/Users/nace/OneDrive/Desktop/STM32/Projects_nace/NUCLEO_LL_Project_LCD/STM32_template_proj/Drivers/STM32F1xx_HAL_Driver/Inc\stm32f1xx_ll_usart.h ****   * @attention
   8:C:/Users/nace/OneDrive/Desktop/STM32/Projects_nace/NUCLEO_LL_Project_LCD/STM32_template_proj/Drivers/STM32F1xx_HAL_Driver/Inc\stm32f1xx_ll_usart.h ****   *
   9:C:/Users/nace/OneDrive/Desktop/STM32/Projects_nace/NUCLEO_LL_Project_LCD/STM32_template_proj/Drivers/STM32F1xx_HAL_Driver/Inc\stm32f1xx_ll_usart.h ****   * Copyright (c) 2016 STMicroelectronics.
  10:C:/Users/nace/OneDrive/Desktop/STM32/Projects_nace/NUCLEO_LL_Project_LCD/STM32_template_proj/Drivers/STM32F1xx_HAL_Driver/Inc\stm32f1xx_ll_usart.h ****   * All rights reserved.
  11:C:/Users/nace/OneDrive/Desktop/STM32/Projects_nace/NUCLEO_LL_Project_LCD/STM32_template_proj/Drivers/STM32F1xx_HAL_Driver/Inc\stm32f1xx_ll_usart.h ****   *
  12:C:/Users/nace/OneDrive/Desktop/STM32/Projects_nace/NUCLEO_LL_Project_LCD/STM32_template_proj/Drivers/STM32F1xx_HAL_Driver/Inc\stm32f1xx_ll_usart.h ****   * This software is licensed under terms that can be found in the LICENSE file
  13:C:/Users/nace/OneDrive/Desktop/STM32/Projects_nace/NUCLEO_LL_Project_LCD/STM32_template_proj/Drivers/STM32F1xx_HAL_Driver/Inc\stm32f1xx_ll_usart.h ****   * in the root directory of this software component.
  14:C:/Users/nace/OneDrive/Desktop/STM32/Projects_nace/NUCLEO_LL_Project_LCD/STM32_template_proj/Drivers/STM32F1xx_HAL_Driver/Inc\stm32f1xx_ll_usart.h ****   * If no LICENSE file comes with this software, it is provided AS-IS.
  15:C:/Users/nace/OneDrive/Desktop/STM32/Projects_nace/NUCLEO_LL_Project_LCD/STM32_template_proj/Drivers/STM32F1xx_HAL_Driver/Inc\stm32f1xx_ll_usart.h ****   *
  16:C:/Users/nace/OneDrive/Desktop/STM32/Projects_nace/NUCLEO_LL_Project_LCD/STM32_template_proj/Drivers/STM32F1xx_HAL_Driver/Inc\stm32f1xx_ll_usart.h ****   ******************************************************************************
  17:C:/Users/nace/OneDrive/Desktop/STM32/Projects_nace/NUCLEO_LL_Project_LCD/STM32_template_proj/Drivers/STM32F1xx_HAL_Driver/Inc\stm32f1xx_ll_usart.h ****   */
  18:C:/Users/nace/OneDrive/Desktop/STM32/Projects_nace/NUCLEO_LL_Project_LCD/STM32_template_proj/Drivers/STM32F1xx_HAL_Driver/Inc\stm32f1xx_ll_usart.h **** 
  19:C:/Users/nace/OneDrive/Desktop/STM32/Projects_nace/NUCLEO_LL_Project_LCD/STM32_template_proj/Drivers/STM32F1xx_HAL_Driver/Inc\stm32f1xx_ll_usart.h **** /* Define to prevent recursive inclusion -------------------------------------*/
  20:C:/Users/nace/OneDrive/Desktop/STM32/Projects_nace/NUCLEO_LL_Project_LCD/STM32_template_proj/Drivers/STM32F1xx_HAL_Driver/Inc\stm32f1xx_ll_usart.h **** #ifndef __STM32F1xx_LL_USART_H
  21:C:/Users/nace/OneDrive/Desktop/STM32/Projects_nace/NUCLEO_LL_Project_LCD/STM32_template_proj/Drivers/STM32F1xx_HAL_Driver/Inc\stm32f1xx_ll_usart.h **** #define __STM32F1xx_LL_USART_H
  22:C:/Users/nace/OneDrive/Desktop/STM32/Projects_nace/NUCLEO_LL_Project_LCD/STM32_template_proj/Drivers/STM32F1xx_HAL_Driver/Inc\stm32f1xx_ll_usart.h **** 
  23:C:/Users/nace/OneDrive/Desktop/STM32/Projects_nace/NUCLEO_LL_Project_LCD/STM32_template_proj/Drivers/STM32F1xx_HAL_Driver/Inc\stm32f1xx_ll_usart.h **** #ifdef __cplusplus
  24:C:/Users/nace/OneDrive/Desktop/STM32/Projects_nace/NUCLEO_LL_Project_LCD/STM32_template_proj/Drivers/STM32F1xx_HAL_Driver/Inc\stm32f1xx_ll_usart.h **** extern "C" {
  25:C:/Users/nace/OneDrive/Desktop/STM32/Projects_nace/NUCLEO_LL_Project_LCD/STM32_template_proj/Drivers/STM32F1xx_HAL_Driver/Inc\stm32f1xx_ll_usart.h **** #endif
  26:C:/Users/nace/OneDrive/Desktop/STM32/Projects_nace/NUCLEO_LL_Project_LCD/STM32_template_proj/Drivers/STM32F1xx_HAL_Driver/Inc\stm32f1xx_ll_usart.h **** 
  27:C:/Users/nace/OneDrive/Desktop/STM32/Projects_nace/NUCLEO_LL_Project_LCD/STM32_template_proj/Drivers/STM32F1xx_HAL_Driver/Inc\stm32f1xx_ll_usart.h **** /* Includes ------------------------------------------------------------------*/
  28:C:/Users/nace/OneDrive/Desktop/STM32/Projects_nace/NUCLEO_LL_Project_LCD/STM32_template_proj/Drivers/STM32F1xx_HAL_Driver/Inc\stm32f1xx_ll_usart.h **** #include "stm32f1xx.h"
  29:C:/Users/nace/OneDrive/Desktop/STM32/Projects_nace/NUCLEO_LL_Project_LCD/STM32_template_proj/Drivers/STM32F1xx_HAL_Driver/Inc\stm32f1xx_ll_usart.h **** 
  30:C:/Users/nace/OneDrive/Desktop/STM32/Projects_nace/NUCLEO_LL_Project_LCD/STM32_template_proj/Drivers/STM32F1xx_HAL_Driver/Inc\stm32f1xx_ll_usart.h **** /** @addtogroup STM32F1xx_LL_Driver
  31:C:/Users/nace/OneDrive/Desktop/STM32/Projects_nace/NUCLEO_LL_Project_LCD/STM32_template_proj/Drivers/STM32F1xx_HAL_Driver/Inc\stm32f1xx_ll_usart.h ****   * @{
  32:C:/Users/nace/OneDrive/Desktop/STM32/Projects_nace/NUCLEO_LL_Project_LCD/STM32_template_proj/Drivers/STM32F1xx_HAL_Driver/Inc\stm32f1xx_ll_usart.h ****   */
  33:C:/Users/nace/OneDrive/Desktop/STM32/Projects_nace/NUCLEO_LL_Project_LCD/STM32_template_proj/Drivers/STM32F1xx_HAL_Driver/Inc\stm32f1xx_ll_usart.h **** 
  34:C:/Users/nace/OneDrive/Desktop/STM32/Projects_nace/NUCLEO_LL_Project_LCD/STM32_template_proj/Drivers/STM32F1xx_HAL_Driver/Inc\stm32f1xx_ll_usart.h **** #if defined (USART1) || defined (USART2) || defined (USART3) || defined (UART4) || defined (UART5)
  35:C:/Users/nace/OneDrive/Desktop/STM32/Projects_nace/NUCLEO_LL_Project_LCD/STM32_template_proj/Drivers/STM32F1xx_HAL_Driver/Inc\stm32f1xx_ll_usart.h **** 
  36:C:/Users/nace/OneDrive/Desktop/STM32/Projects_nace/NUCLEO_LL_Project_LCD/STM32_template_proj/Drivers/STM32F1xx_HAL_Driver/Inc\stm32f1xx_ll_usart.h **** /** @defgroup USART_LL USART
  37:C:/Users/nace/OneDrive/Desktop/STM32/Projects_nace/NUCLEO_LL_Project_LCD/STM32_template_proj/Drivers/STM32F1xx_HAL_Driver/Inc\stm32f1xx_ll_usart.h ****   * @{
  38:C:/Users/nace/OneDrive/Desktop/STM32/Projects_nace/NUCLEO_LL_Project_LCD/STM32_template_proj/Drivers/STM32F1xx_HAL_Driver/Inc\stm32f1xx_ll_usart.h ****   */
  39:C:/Users/nace/OneDrive/Desktop/STM32/Projects_nace/NUCLEO_LL_Project_LCD/STM32_template_proj/Drivers/STM32F1xx_HAL_Driver/Inc\stm32f1xx_ll_usart.h **** 
  40:C:/Users/nace/OneDrive/Desktop/STM32/Projects_nace/NUCLEO_LL_Project_LCD/STM32_template_proj/Drivers/STM32F1xx_HAL_Driver/Inc\stm32f1xx_ll_usart.h **** /* Private types -------------------------------------------------------------*/
  41:C:/Users/nace/OneDrive/Desktop/STM32/Projects_nace/NUCLEO_LL_Project_LCD/STM32_template_proj/Drivers/STM32F1xx_HAL_Driver/Inc\stm32f1xx_ll_usart.h **** /* Private variables ---------------------------------------------------------*/
  42:C:/Users/nace/OneDrive/Desktop/STM32/Projects_nace/NUCLEO_LL_Project_LCD/STM32_template_proj/Drivers/STM32F1xx_HAL_Driver/Inc\stm32f1xx_ll_usart.h **** 
  43:C:/Users/nace/OneDrive/Desktop/STM32/Projects_nace/NUCLEO_LL_Project_LCD/STM32_template_proj/Drivers/STM32F1xx_HAL_Driver/Inc\stm32f1xx_ll_usart.h **** /* Private constants ---------------------------------------------------------*/
  44:C:/Users/nace/OneDrive/Desktop/STM32/Projects_nace/NUCLEO_LL_Project_LCD/STM32_template_proj/Drivers/STM32F1xx_HAL_Driver/Inc\stm32f1xx_ll_usart.h **** /** @defgroup USART_LL_Private_Constants USART Private Constants
  45:C:/Users/nace/OneDrive/Desktop/STM32/Projects_nace/NUCLEO_LL_Project_LCD/STM32_template_proj/Drivers/STM32F1xx_HAL_Driver/Inc\stm32f1xx_ll_usart.h ****   * @{
  46:C:/Users/nace/OneDrive/Desktop/STM32/Projects_nace/NUCLEO_LL_Project_LCD/STM32_template_proj/Drivers/STM32F1xx_HAL_Driver/Inc\stm32f1xx_ll_usart.h ****   */
  47:C:/Users/nace/OneDrive/Desktop/STM32/Projects_nace/NUCLEO_LL_Project_LCD/STM32_template_proj/Drivers/STM32F1xx_HAL_Driver/Inc\stm32f1xx_ll_usart.h **** 
  48:C:/Users/nace/OneDrive/Desktop/STM32/Projects_nace/NUCLEO_LL_Project_LCD/STM32_template_proj/Drivers/STM32F1xx_HAL_Driver/Inc\stm32f1xx_ll_usart.h **** /* Defines used for the bit position in the register and perform offsets*/
  49:C:/Users/nace/OneDrive/Desktop/STM32/Projects_nace/NUCLEO_LL_Project_LCD/STM32_template_proj/Drivers/STM32F1xx_HAL_Driver/Inc\stm32f1xx_ll_usart.h **** #define USART_POSITION_GTPR_GT                  USART_GTPR_GT_Pos
  50:C:/Users/nace/OneDrive/Desktop/STM32/Projects_nace/NUCLEO_LL_Project_LCD/STM32_template_proj/Drivers/STM32F1xx_HAL_Driver/Inc\stm32f1xx_ll_usart.h **** /**
  51:C:/Users/nace/OneDrive/Desktop/STM32/Projects_nace/NUCLEO_LL_Project_LCD/STM32_template_proj/Drivers/STM32F1xx_HAL_Driver/Inc\stm32f1xx_ll_usart.h ****   * @}
  52:C:/Users/nace/OneDrive/Desktop/STM32/Projects_nace/NUCLEO_LL_Project_LCD/STM32_template_proj/Drivers/STM32F1xx_HAL_Driver/Inc\stm32f1xx_ll_usart.h ****   */
  53:C:/Users/nace/OneDrive/Desktop/STM32/Projects_nace/NUCLEO_LL_Project_LCD/STM32_template_proj/Drivers/STM32F1xx_HAL_Driver/Inc\stm32f1xx_ll_usart.h **** 
  54:C:/Users/nace/OneDrive/Desktop/STM32/Projects_nace/NUCLEO_LL_Project_LCD/STM32_template_proj/Drivers/STM32F1xx_HAL_Driver/Inc\stm32f1xx_ll_usart.h **** /* Private macros ------------------------------------------------------------*/
  55:C:/Users/nace/OneDrive/Desktop/STM32/Projects_nace/NUCLEO_LL_Project_LCD/STM32_template_proj/Drivers/STM32F1xx_HAL_Driver/Inc\stm32f1xx_ll_usart.h **** #if defined(USE_FULL_LL_DRIVER)
  56:C:/Users/nace/OneDrive/Desktop/STM32/Projects_nace/NUCLEO_LL_Project_LCD/STM32_template_proj/Drivers/STM32F1xx_HAL_Driver/Inc\stm32f1xx_ll_usart.h **** /** @defgroup USART_LL_Private_Macros USART Private Macros
  57:C:/Users/nace/OneDrive/Desktop/STM32/Projects_nace/NUCLEO_LL_Project_LCD/STM32_template_proj/Drivers/STM32F1xx_HAL_Driver/Inc\stm32f1xx_ll_usart.h ****   * @{
  58:C:/Users/nace/OneDrive/Desktop/STM32/Projects_nace/NUCLEO_LL_Project_LCD/STM32_template_proj/Drivers/STM32F1xx_HAL_Driver/Inc\stm32f1xx_ll_usart.h ****   */
  59:C:/Users/nace/OneDrive/Desktop/STM32/Projects_nace/NUCLEO_LL_Project_LCD/STM32_template_proj/Drivers/STM32F1xx_HAL_Driver/Inc\stm32f1xx_ll_usart.h **** /**
  60:C:/Users/nace/OneDrive/Desktop/STM32/Projects_nace/NUCLEO_LL_Project_LCD/STM32_template_proj/Drivers/STM32F1xx_HAL_Driver/Inc\stm32f1xx_ll_usart.h ****   * @}
  61:C:/Users/nace/OneDrive/Desktop/STM32/Projects_nace/NUCLEO_LL_Project_LCD/STM32_template_proj/Drivers/STM32F1xx_HAL_Driver/Inc\stm32f1xx_ll_usart.h ****   */
  62:C:/Users/nace/OneDrive/Desktop/STM32/Projects_nace/NUCLEO_LL_Project_LCD/STM32_template_proj/Drivers/STM32F1xx_HAL_Driver/Inc\stm32f1xx_ll_usart.h **** #endif /*USE_FULL_LL_DRIVER*/
  63:C:/Users/nace/OneDrive/Desktop/STM32/Projects_nace/NUCLEO_LL_Project_LCD/STM32_template_proj/Drivers/STM32F1xx_HAL_Driver/Inc\stm32f1xx_ll_usart.h **** 
  64:C:/Users/nace/OneDrive/Desktop/STM32/Projects_nace/NUCLEO_LL_Project_LCD/STM32_template_proj/Drivers/STM32F1xx_HAL_Driver/Inc\stm32f1xx_ll_usart.h **** /* Exported types ------------------------------------------------------------*/
  65:C:/Users/nace/OneDrive/Desktop/STM32/Projects_nace/NUCLEO_LL_Project_LCD/STM32_template_proj/Drivers/STM32F1xx_HAL_Driver/Inc\stm32f1xx_ll_usart.h **** #if defined(USE_FULL_LL_DRIVER)
  66:C:/Users/nace/OneDrive/Desktop/STM32/Projects_nace/NUCLEO_LL_Project_LCD/STM32_template_proj/Drivers/STM32F1xx_HAL_Driver/Inc\stm32f1xx_ll_usart.h **** /** @defgroup USART_LL_ES_INIT USART Exported Init structures
  67:C:/Users/nace/OneDrive/Desktop/STM32/Projects_nace/NUCLEO_LL_Project_LCD/STM32_template_proj/Drivers/STM32F1xx_HAL_Driver/Inc\stm32f1xx_ll_usart.h ****   * @{
  68:C:/Users/nace/OneDrive/Desktop/STM32/Projects_nace/NUCLEO_LL_Project_LCD/STM32_template_proj/Drivers/STM32F1xx_HAL_Driver/Inc\stm32f1xx_ll_usart.h ****   */
  69:C:/Users/nace/OneDrive/Desktop/STM32/Projects_nace/NUCLEO_LL_Project_LCD/STM32_template_proj/Drivers/STM32F1xx_HAL_Driver/Inc\stm32f1xx_ll_usart.h **** 
  70:C:/Users/nace/OneDrive/Desktop/STM32/Projects_nace/NUCLEO_LL_Project_LCD/STM32_template_proj/Drivers/STM32F1xx_HAL_Driver/Inc\stm32f1xx_ll_usart.h **** /**
  71:C:/Users/nace/OneDrive/Desktop/STM32/Projects_nace/NUCLEO_LL_Project_LCD/STM32_template_proj/Drivers/STM32F1xx_HAL_Driver/Inc\stm32f1xx_ll_usart.h ****   * @brief LL USART Init Structure definition
  72:C:/Users/nace/OneDrive/Desktop/STM32/Projects_nace/NUCLEO_LL_Project_LCD/STM32_template_proj/Drivers/STM32F1xx_HAL_Driver/Inc\stm32f1xx_ll_usart.h ****   */
  73:C:/Users/nace/OneDrive/Desktop/STM32/Projects_nace/NUCLEO_LL_Project_LCD/STM32_template_proj/Drivers/STM32F1xx_HAL_Driver/Inc\stm32f1xx_ll_usart.h **** typedef struct
  74:C:/Users/nace/OneDrive/Desktop/STM32/Projects_nace/NUCLEO_LL_Project_LCD/STM32_template_proj/Drivers/STM32F1xx_HAL_Driver/Inc\stm32f1xx_ll_usart.h **** {
  75:C:/Users/nace/OneDrive/Desktop/STM32/Projects_nace/NUCLEO_LL_Project_LCD/STM32_template_proj/Drivers/STM32F1xx_HAL_Driver/Inc\stm32f1xx_ll_usart.h ****   uint32_t BaudRate;                  /*!< This field defines expected Usart communication baud rat
  76:C:/Users/nace/OneDrive/Desktop/STM32/Projects_nace/NUCLEO_LL_Project_LCD/STM32_template_proj/Drivers/STM32F1xx_HAL_Driver/Inc\stm32f1xx_ll_usart.h **** 
  77:C:/Users/nace/OneDrive/Desktop/STM32/Projects_nace/NUCLEO_LL_Project_LCD/STM32_template_proj/Drivers/STM32F1xx_HAL_Driver/Inc\stm32f1xx_ll_usart.h ****                                            This feature can be modified afterwards using unitary fu
  78:C:/Users/nace/OneDrive/Desktop/STM32/Projects_nace/NUCLEO_LL_Project_LCD/STM32_template_proj/Drivers/STM32F1xx_HAL_Driver/Inc\stm32f1xx_ll_usart.h **** 
  79:C:/Users/nace/OneDrive/Desktop/STM32/Projects_nace/NUCLEO_LL_Project_LCD/STM32_template_proj/Drivers/STM32F1xx_HAL_Driver/Inc\stm32f1xx_ll_usart.h ****   uint32_t DataWidth;                 /*!< Specifies the number of data bits transmitted or receive
  80:C:/Users/nace/OneDrive/Desktop/STM32/Projects_nace/NUCLEO_LL_Project_LCD/STM32_template_proj/Drivers/STM32F1xx_HAL_Driver/Inc\stm32f1xx_ll_usart.h ****                                            This parameter can be a value of @ref USART_LL_EC_DATAWI
  81:C:/Users/nace/OneDrive/Desktop/STM32/Projects_nace/NUCLEO_LL_Project_LCD/STM32_template_proj/Drivers/STM32F1xx_HAL_Driver/Inc\stm32f1xx_ll_usart.h **** 
  82:C:/Users/nace/OneDrive/Desktop/STM32/Projects_nace/NUCLEO_LL_Project_LCD/STM32_template_proj/Drivers/STM32F1xx_HAL_Driver/Inc\stm32f1xx_ll_usart.h ****                                            This feature can be modified afterwards using unitary fu
  83:C:/Users/nace/OneDrive/Desktop/STM32/Projects_nace/NUCLEO_LL_Project_LCD/STM32_template_proj/Drivers/STM32F1xx_HAL_Driver/Inc\stm32f1xx_ll_usart.h **** 
  84:C:/Users/nace/OneDrive/Desktop/STM32/Projects_nace/NUCLEO_LL_Project_LCD/STM32_template_proj/Drivers/STM32F1xx_HAL_Driver/Inc\stm32f1xx_ll_usart.h ****   uint32_t StopBits;                  /*!< Specifies the number of stop bits transmitted.
  85:C:/Users/nace/OneDrive/Desktop/STM32/Projects_nace/NUCLEO_LL_Project_LCD/STM32_template_proj/Drivers/STM32F1xx_HAL_Driver/Inc\stm32f1xx_ll_usart.h ****                                            This parameter can be a value of @ref USART_LL_EC_STOPBI
  86:C:/Users/nace/OneDrive/Desktop/STM32/Projects_nace/NUCLEO_LL_Project_LCD/STM32_template_proj/Drivers/STM32F1xx_HAL_Driver/Inc\stm32f1xx_ll_usart.h **** 
  87:C:/Users/nace/OneDrive/Desktop/STM32/Projects_nace/NUCLEO_LL_Project_LCD/STM32_template_proj/Drivers/STM32F1xx_HAL_Driver/Inc\stm32f1xx_ll_usart.h ****                                            This feature can be modified afterwards using unitary fu
  88:C:/Users/nace/OneDrive/Desktop/STM32/Projects_nace/NUCLEO_LL_Project_LCD/STM32_template_proj/Drivers/STM32F1xx_HAL_Driver/Inc\stm32f1xx_ll_usart.h **** 
  89:C:/Users/nace/OneDrive/Desktop/STM32/Projects_nace/NUCLEO_LL_Project_LCD/STM32_template_proj/Drivers/STM32F1xx_HAL_Driver/Inc\stm32f1xx_ll_usart.h ****   uint32_t Parity;                    /*!< Specifies the parity mode.
  90:C:/Users/nace/OneDrive/Desktop/STM32/Projects_nace/NUCLEO_LL_Project_LCD/STM32_template_proj/Drivers/STM32F1xx_HAL_Driver/Inc\stm32f1xx_ll_usart.h ****                                            This parameter can be a value of @ref USART_LL_EC_PARITY
  91:C:/Users/nace/OneDrive/Desktop/STM32/Projects_nace/NUCLEO_LL_Project_LCD/STM32_template_proj/Drivers/STM32F1xx_HAL_Driver/Inc\stm32f1xx_ll_usart.h **** 
  92:C:/Users/nace/OneDrive/Desktop/STM32/Projects_nace/NUCLEO_LL_Project_LCD/STM32_template_proj/Drivers/STM32F1xx_HAL_Driver/Inc\stm32f1xx_ll_usart.h ****                                            This feature can be modified afterwards using unitary fu
  93:C:/Users/nace/OneDrive/Desktop/STM32/Projects_nace/NUCLEO_LL_Project_LCD/STM32_template_proj/Drivers/STM32F1xx_HAL_Driver/Inc\stm32f1xx_ll_usart.h **** 
  94:C:/Users/nace/OneDrive/Desktop/STM32/Projects_nace/NUCLEO_LL_Project_LCD/STM32_template_proj/Drivers/STM32F1xx_HAL_Driver/Inc\stm32f1xx_ll_usart.h ****   uint32_t TransferDirection;         /*!< Specifies whether the Receive and/or Transmit mode is en
  95:C:/Users/nace/OneDrive/Desktop/STM32/Projects_nace/NUCLEO_LL_Project_LCD/STM32_template_proj/Drivers/STM32F1xx_HAL_Driver/Inc\stm32f1xx_ll_usart.h ****                                            This parameter can be a value of @ref USART_LL_EC_DIRECT
  96:C:/Users/nace/OneDrive/Desktop/STM32/Projects_nace/NUCLEO_LL_Project_LCD/STM32_template_proj/Drivers/STM32F1xx_HAL_Driver/Inc\stm32f1xx_ll_usart.h **** 
  97:C:/Users/nace/OneDrive/Desktop/STM32/Projects_nace/NUCLEO_LL_Project_LCD/STM32_template_proj/Drivers/STM32F1xx_HAL_Driver/Inc\stm32f1xx_ll_usart.h ****                                            This feature can be modified afterwards using unitary fu
  98:C:/Users/nace/OneDrive/Desktop/STM32/Projects_nace/NUCLEO_LL_Project_LCD/STM32_template_proj/Drivers/STM32F1xx_HAL_Driver/Inc\stm32f1xx_ll_usart.h **** 
  99:C:/Users/nace/OneDrive/Desktop/STM32/Projects_nace/NUCLEO_LL_Project_LCD/STM32_template_proj/Drivers/STM32F1xx_HAL_Driver/Inc\stm32f1xx_ll_usart.h ****   uint32_t HardwareFlowControl;       /*!< Specifies whether the hardware flow control mode is enab
 100:C:/Users/nace/OneDrive/Desktop/STM32/Projects_nace/NUCLEO_LL_Project_LCD/STM32_template_proj/Drivers/STM32F1xx_HAL_Driver/Inc\stm32f1xx_ll_usart.h ****                                            This parameter can be a value of @ref USART_LL_EC_HWCONT
 101:C:/Users/nace/OneDrive/Desktop/STM32/Projects_nace/NUCLEO_LL_Project_LCD/STM32_template_proj/Drivers/STM32F1xx_HAL_Driver/Inc\stm32f1xx_ll_usart.h **** 
 102:C:/Users/nace/OneDrive/Desktop/STM32/Projects_nace/NUCLEO_LL_Project_LCD/STM32_template_proj/Drivers/STM32F1xx_HAL_Driver/Inc\stm32f1xx_ll_usart.h ****                                            This feature can be modified afterwards using unitary fu
 103:C:/Users/nace/OneDrive/Desktop/STM32/Projects_nace/NUCLEO_LL_Project_LCD/STM32_template_proj/Drivers/STM32F1xx_HAL_Driver/Inc\stm32f1xx_ll_usart.h **** 
 104:C:/Users/nace/OneDrive/Desktop/STM32/Projects_nace/NUCLEO_LL_Project_LCD/STM32_template_proj/Drivers/STM32F1xx_HAL_Driver/Inc\stm32f1xx_ll_usart.h ****   uint32_t OverSampling;              /*!< Specifies whether USART oversampling mode is 16 or 8.
 105:C:/Users/nace/OneDrive/Desktop/STM32/Projects_nace/NUCLEO_LL_Project_LCD/STM32_template_proj/Drivers/STM32F1xx_HAL_Driver/Inc\stm32f1xx_ll_usart.h ****                                            This parameter can be a value of @ref USART_LL_EC_OVERSA
 106:C:/Users/nace/OneDrive/Desktop/STM32/Projects_nace/NUCLEO_LL_Project_LCD/STM32_template_proj/Drivers/STM32F1xx_HAL_Driver/Inc\stm32f1xx_ll_usart.h **** 
 107:C:/Users/nace/OneDrive/Desktop/STM32/Projects_nace/NUCLEO_LL_Project_LCD/STM32_template_proj/Drivers/STM32F1xx_HAL_Driver/Inc\stm32f1xx_ll_usart.h ****                                            This feature can be modified afterwards using unitary fu
 108:C:/Users/nace/OneDrive/Desktop/STM32/Projects_nace/NUCLEO_LL_Project_LCD/STM32_template_proj/Drivers/STM32F1xx_HAL_Driver/Inc\stm32f1xx_ll_usart.h **** 
 109:C:/Users/nace/OneDrive/Desktop/STM32/Projects_nace/NUCLEO_LL_Project_LCD/STM32_template_proj/Drivers/STM32F1xx_HAL_Driver/Inc\stm32f1xx_ll_usart.h **** } LL_USART_InitTypeDef;
 110:C:/Users/nace/OneDrive/Desktop/STM32/Projects_nace/NUCLEO_LL_Project_LCD/STM32_template_proj/Drivers/STM32F1xx_HAL_Driver/Inc\stm32f1xx_ll_usart.h **** 
 111:C:/Users/nace/OneDrive/Desktop/STM32/Projects_nace/NUCLEO_LL_Project_LCD/STM32_template_proj/Drivers/STM32F1xx_HAL_Driver/Inc\stm32f1xx_ll_usart.h **** /**
 112:C:/Users/nace/OneDrive/Desktop/STM32/Projects_nace/NUCLEO_LL_Project_LCD/STM32_template_proj/Drivers/STM32F1xx_HAL_Driver/Inc\stm32f1xx_ll_usart.h ****   * @brief LL USART Clock Init Structure definition
 113:C:/Users/nace/OneDrive/Desktop/STM32/Projects_nace/NUCLEO_LL_Project_LCD/STM32_template_proj/Drivers/STM32F1xx_HAL_Driver/Inc\stm32f1xx_ll_usart.h ****   */
 114:C:/Users/nace/OneDrive/Desktop/STM32/Projects_nace/NUCLEO_LL_Project_LCD/STM32_template_proj/Drivers/STM32F1xx_HAL_Driver/Inc\stm32f1xx_ll_usart.h **** typedef struct
 115:C:/Users/nace/OneDrive/Desktop/STM32/Projects_nace/NUCLEO_LL_Project_LCD/STM32_template_proj/Drivers/STM32F1xx_HAL_Driver/Inc\stm32f1xx_ll_usart.h **** {
 116:C:/Users/nace/OneDrive/Desktop/STM32/Projects_nace/NUCLEO_LL_Project_LCD/STM32_template_proj/Drivers/STM32F1xx_HAL_Driver/Inc\stm32f1xx_ll_usart.h ****   uint32_t ClockOutput;               /*!< Specifies whether the USART clock is enabled or disabled
 117:C:/Users/nace/OneDrive/Desktop/STM32/Projects_nace/NUCLEO_LL_Project_LCD/STM32_template_proj/Drivers/STM32F1xx_HAL_Driver/Inc\stm32f1xx_ll_usart.h ****                                            This parameter can be a value of @ref USART_LL_EC_CLOCK.
 118:C:/Users/nace/OneDrive/Desktop/STM32/Projects_nace/NUCLEO_LL_Project_LCD/STM32_template_proj/Drivers/STM32F1xx_HAL_Driver/Inc\stm32f1xx_ll_usart.h **** 
 119:C:/Users/nace/OneDrive/Desktop/STM32/Projects_nace/NUCLEO_LL_Project_LCD/STM32_template_proj/Drivers/STM32F1xx_HAL_Driver/Inc\stm32f1xx_ll_usart.h ****                                            USART HW configuration can be modified afterwards using 
 120:C:/Users/nace/OneDrive/Desktop/STM32/Projects_nace/NUCLEO_LL_Project_LCD/STM32_template_proj/Drivers/STM32F1xx_HAL_Driver/Inc\stm32f1xx_ll_usart.h ****                                            @ref LL_USART_EnableSCLKOutput() or @ref LL_USART_Disabl
 121:C:/Users/nace/OneDrive/Desktop/STM32/Projects_nace/NUCLEO_LL_Project_LCD/STM32_template_proj/Drivers/STM32F1xx_HAL_Driver/Inc\stm32f1xx_ll_usart.h ****                                            For more details, refer to description of this function.
 122:C:/Users/nace/OneDrive/Desktop/STM32/Projects_nace/NUCLEO_LL_Project_LCD/STM32_template_proj/Drivers/STM32F1xx_HAL_Driver/Inc\stm32f1xx_ll_usart.h **** 
 123:C:/Users/nace/OneDrive/Desktop/STM32/Projects_nace/NUCLEO_LL_Project_LCD/STM32_template_proj/Drivers/STM32F1xx_HAL_Driver/Inc\stm32f1xx_ll_usart.h ****   uint32_t ClockPolarity;             /*!< Specifies the steady state of the serial clock.
 124:C:/Users/nace/OneDrive/Desktop/STM32/Projects_nace/NUCLEO_LL_Project_LCD/STM32_template_proj/Drivers/STM32F1xx_HAL_Driver/Inc\stm32f1xx_ll_usart.h ****                                            This parameter can be a value of @ref USART_LL_EC_POLARI
 125:C:/Users/nace/OneDrive/Desktop/STM32/Projects_nace/NUCLEO_LL_Project_LCD/STM32_template_proj/Drivers/STM32F1xx_HAL_Driver/Inc\stm32f1xx_ll_usart.h **** 
 126:C:/Users/nace/OneDrive/Desktop/STM32/Projects_nace/NUCLEO_LL_Project_LCD/STM32_template_proj/Drivers/STM32F1xx_HAL_Driver/Inc\stm32f1xx_ll_usart.h ****                                            USART HW configuration can be modified afterwards using 
 127:C:/Users/nace/OneDrive/Desktop/STM32/Projects_nace/NUCLEO_LL_Project_LCD/STM32_template_proj/Drivers/STM32F1xx_HAL_Driver/Inc\stm32f1xx_ll_usart.h ****                                            For more details, refer to description of this function.
 128:C:/Users/nace/OneDrive/Desktop/STM32/Projects_nace/NUCLEO_LL_Project_LCD/STM32_template_proj/Drivers/STM32F1xx_HAL_Driver/Inc\stm32f1xx_ll_usart.h **** 
 129:C:/Users/nace/OneDrive/Desktop/STM32/Projects_nace/NUCLEO_LL_Project_LCD/STM32_template_proj/Drivers/STM32F1xx_HAL_Driver/Inc\stm32f1xx_ll_usart.h ****   uint32_t ClockPhase;                /*!< Specifies the clock transition on which the bit capture 
 130:C:/Users/nace/OneDrive/Desktop/STM32/Projects_nace/NUCLEO_LL_Project_LCD/STM32_template_proj/Drivers/STM32F1xx_HAL_Driver/Inc\stm32f1xx_ll_usart.h ****                                            This parameter can be a value of @ref USART_LL_EC_PHASE.
 131:C:/Users/nace/OneDrive/Desktop/STM32/Projects_nace/NUCLEO_LL_Project_LCD/STM32_template_proj/Drivers/STM32F1xx_HAL_Driver/Inc\stm32f1xx_ll_usart.h **** 
 132:C:/Users/nace/OneDrive/Desktop/STM32/Projects_nace/NUCLEO_LL_Project_LCD/STM32_template_proj/Drivers/STM32F1xx_HAL_Driver/Inc\stm32f1xx_ll_usart.h ****                                            USART HW configuration can be modified afterwards using 
 133:C:/Users/nace/OneDrive/Desktop/STM32/Projects_nace/NUCLEO_LL_Project_LCD/STM32_template_proj/Drivers/STM32F1xx_HAL_Driver/Inc\stm32f1xx_ll_usart.h ****                                            For more details, refer to description of this function.
 134:C:/Users/nace/OneDrive/Desktop/STM32/Projects_nace/NUCLEO_LL_Project_LCD/STM32_template_proj/Drivers/STM32F1xx_HAL_Driver/Inc\stm32f1xx_ll_usart.h **** 
 135:C:/Users/nace/OneDrive/Desktop/STM32/Projects_nace/NUCLEO_LL_Project_LCD/STM32_template_proj/Drivers/STM32F1xx_HAL_Driver/Inc\stm32f1xx_ll_usart.h ****   uint32_t LastBitClockPulse;         /*!< Specifies whether the clock pulse corresponding to the l
 136:C:/Users/nace/OneDrive/Desktop/STM32/Projects_nace/NUCLEO_LL_Project_LCD/STM32_template_proj/Drivers/STM32F1xx_HAL_Driver/Inc\stm32f1xx_ll_usart.h ****                                            data bit (MSB) has to be output on the SCLK pin in synch
 137:C:/Users/nace/OneDrive/Desktop/STM32/Projects_nace/NUCLEO_LL_Project_LCD/STM32_template_proj/Drivers/STM32F1xx_HAL_Driver/Inc\stm32f1xx_ll_usart.h ****                                            This parameter can be a value of @ref USART_LL_EC_LASTCL
 138:C:/Users/nace/OneDrive/Desktop/STM32/Projects_nace/NUCLEO_LL_Project_LCD/STM32_template_proj/Drivers/STM32F1xx_HAL_Driver/Inc\stm32f1xx_ll_usart.h **** 
 139:C:/Users/nace/OneDrive/Desktop/STM32/Projects_nace/NUCLEO_LL_Project_LCD/STM32_template_proj/Drivers/STM32F1xx_HAL_Driver/Inc\stm32f1xx_ll_usart.h ****                                            USART HW configuration can be modified afterwards using 
 140:C:/Users/nace/OneDrive/Desktop/STM32/Projects_nace/NUCLEO_LL_Project_LCD/STM32_template_proj/Drivers/STM32F1xx_HAL_Driver/Inc\stm32f1xx_ll_usart.h ****                                            For more details, refer to description of this function.
 141:C:/Users/nace/OneDrive/Desktop/STM32/Projects_nace/NUCLEO_LL_Project_LCD/STM32_template_proj/Drivers/STM32F1xx_HAL_Driver/Inc\stm32f1xx_ll_usart.h **** 
 142:C:/Users/nace/OneDrive/Desktop/STM32/Projects_nace/NUCLEO_LL_Project_LCD/STM32_template_proj/Drivers/STM32F1xx_HAL_Driver/Inc\stm32f1xx_ll_usart.h **** } LL_USART_ClockInitTypeDef;
 143:C:/Users/nace/OneDrive/Desktop/STM32/Projects_nace/NUCLEO_LL_Project_LCD/STM32_template_proj/Drivers/STM32F1xx_HAL_Driver/Inc\stm32f1xx_ll_usart.h **** 
 144:C:/Users/nace/OneDrive/Desktop/STM32/Projects_nace/NUCLEO_LL_Project_LCD/STM32_template_proj/Drivers/STM32F1xx_HAL_Driver/Inc\stm32f1xx_ll_usart.h **** /**
 145:C:/Users/nace/OneDrive/Desktop/STM32/Projects_nace/NUCLEO_LL_Project_LCD/STM32_template_proj/Drivers/STM32F1xx_HAL_Driver/Inc\stm32f1xx_ll_usart.h ****   * @}
 146:C:/Users/nace/OneDrive/Desktop/STM32/Projects_nace/NUCLEO_LL_Project_LCD/STM32_template_proj/Drivers/STM32F1xx_HAL_Driver/Inc\stm32f1xx_ll_usart.h ****   */
 147:C:/Users/nace/OneDrive/Desktop/STM32/Projects_nace/NUCLEO_LL_Project_LCD/STM32_template_proj/Drivers/STM32F1xx_HAL_Driver/Inc\stm32f1xx_ll_usart.h **** #endif /* USE_FULL_LL_DRIVER */
 148:C:/Users/nace/OneDrive/Desktop/STM32/Projects_nace/NUCLEO_LL_Project_LCD/STM32_template_proj/Drivers/STM32F1xx_HAL_Driver/Inc\stm32f1xx_ll_usart.h **** 
 149:C:/Users/nace/OneDrive/Desktop/STM32/Projects_nace/NUCLEO_LL_Project_LCD/STM32_template_proj/Drivers/STM32F1xx_HAL_Driver/Inc\stm32f1xx_ll_usart.h **** /* Exported constants --------------------------------------------------------*/
 150:C:/Users/nace/OneDrive/Desktop/STM32/Projects_nace/NUCLEO_LL_Project_LCD/STM32_template_proj/Drivers/STM32F1xx_HAL_Driver/Inc\stm32f1xx_ll_usart.h **** /** @defgroup USART_LL_Exported_Constants USART Exported Constants
 151:C:/Users/nace/OneDrive/Desktop/STM32/Projects_nace/NUCLEO_LL_Project_LCD/STM32_template_proj/Drivers/STM32F1xx_HAL_Driver/Inc\stm32f1xx_ll_usart.h ****   * @{
 152:C:/Users/nace/OneDrive/Desktop/STM32/Projects_nace/NUCLEO_LL_Project_LCD/STM32_template_proj/Drivers/STM32F1xx_HAL_Driver/Inc\stm32f1xx_ll_usart.h ****   */
 153:C:/Users/nace/OneDrive/Desktop/STM32/Projects_nace/NUCLEO_LL_Project_LCD/STM32_template_proj/Drivers/STM32F1xx_HAL_Driver/Inc\stm32f1xx_ll_usart.h **** 
 154:C:/Users/nace/OneDrive/Desktop/STM32/Projects_nace/NUCLEO_LL_Project_LCD/STM32_template_proj/Drivers/STM32F1xx_HAL_Driver/Inc\stm32f1xx_ll_usart.h **** /** @defgroup USART_LL_EC_GET_FLAG Get Flags Defines
 155:C:/Users/nace/OneDrive/Desktop/STM32/Projects_nace/NUCLEO_LL_Project_LCD/STM32_template_proj/Drivers/STM32F1xx_HAL_Driver/Inc\stm32f1xx_ll_usart.h ****   * @brief    Flags defines which can be used with LL_USART_ReadReg function
 156:C:/Users/nace/OneDrive/Desktop/STM32/Projects_nace/NUCLEO_LL_Project_LCD/STM32_template_proj/Drivers/STM32F1xx_HAL_Driver/Inc\stm32f1xx_ll_usart.h ****   * @{
 157:C:/Users/nace/OneDrive/Desktop/STM32/Projects_nace/NUCLEO_LL_Project_LCD/STM32_template_proj/Drivers/STM32F1xx_HAL_Driver/Inc\stm32f1xx_ll_usart.h ****   */
 158:C:/Users/nace/OneDrive/Desktop/STM32/Projects_nace/NUCLEO_LL_Project_LCD/STM32_template_proj/Drivers/STM32F1xx_HAL_Driver/Inc\stm32f1xx_ll_usart.h **** #define LL_USART_SR_PE                          USART_SR_PE                   /*!< Parity error fla
 159:C:/Users/nace/OneDrive/Desktop/STM32/Projects_nace/NUCLEO_LL_Project_LCD/STM32_template_proj/Drivers/STM32F1xx_HAL_Driver/Inc\stm32f1xx_ll_usart.h **** #define LL_USART_SR_FE                          USART_SR_FE                   /*!< Framing error fl
 160:C:/Users/nace/OneDrive/Desktop/STM32/Projects_nace/NUCLEO_LL_Project_LCD/STM32_template_proj/Drivers/STM32F1xx_HAL_Driver/Inc\stm32f1xx_ll_usart.h **** #define LL_USART_SR_NE                          USART_SR_NE                   /*!< Noise detected f
 161:C:/Users/nace/OneDrive/Desktop/STM32/Projects_nace/NUCLEO_LL_Project_LCD/STM32_template_proj/Drivers/STM32F1xx_HAL_Driver/Inc\stm32f1xx_ll_usart.h **** #define LL_USART_SR_ORE                         USART_SR_ORE                  /*!< Overrun error fl
 162:C:/Users/nace/OneDrive/Desktop/STM32/Projects_nace/NUCLEO_LL_Project_LCD/STM32_template_proj/Drivers/STM32F1xx_HAL_Driver/Inc\stm32f1xx_ll_usart.h **** #define LL_USART_SR_IDLE                        USART_SR_IDLE                 /*!< Idle line detect
 163:C:/Users/nace/OneDrive/Desktop/STM32/Projects_nace/NUCLEO_LL_Project_LCD/STM32_template_proj/Drivers/STM32F1xx_HAL_Driver/Inc\stm32f1xx_ll_usart.h **** #define LL_USART_SR_RXNE                        USART_SR_RXNE                 /*!< Read data regist
 164:C:/Users/nace/OneDrive/Desktop/STM32/Projects_nace/NUCLEO_LL_Project_LCD/STM32_template_proj/Drivers/STM32F1xx_HAL_Driver/Inc\stm32f1xx_ll_usart.h **** #define LL_USART_SR_TC                          USART_SR_TC                   /*!< Transmission com
 165:C:/Users/nace/OneDrive/Desktop/STM32/Projects_nace/NUCLEO_LL_Project_LCD/STM32_template_proj/Drivers/STM32F1xx_HAL_Driver/Inc\stm32f1xx_ll_usart.h **** #define LL_USART_SR_TXE                         USART_SR_TXE                  /*!< Transmit data re
 166:C:/Users/nace/OneDrive/Desktop/STM32/Projects_nace/NUCLEO_LL_Project_LCD/STM32_template_proj/Drivers/STM32F1xx_HAL_Driver/Inc\stm32f1xx_ll_usart.h **** #define LL_USART_SR_LBD                         USART_SR_LBD                  /*!< LIN break detect
 167:C:/Users/nace/OneDrive/Desktop/STM32/Projects_nace/NUCLEO_LL_Project_LCD/STM32_template_proj/Drivers/STM32F1xx_HAL_Driver/Inc\stm32f1xx_ll_usart.h **** #define LL_USART_SR_CTS                         USART_SR_CTS                  /*!< CTS flag */
 168:C:/Users/nace/OneDrive/Desktop/STM32/Projects_nace/NUCLEO_LL_Project_LCD/STM32_template_proj/Drivers/STM32F1xx_HAL_Driver/Inc\stm32f1xx_ll_usart.h **** /**
 169:C:/Users/nace/OneDrive/Desktop/STM32/Projects_nace/NUCLEO_LL_Project_LCD/STM32_template_proj/Drivers/STM32F1xx_HAL_Driver/Inc\stm32f1xx_ll_usart.h ****   * @}
 170:C:/Users/nace/OneDrive/Desktop/STM32/Projects_nace/NUCLEO_LL_Project_LCD/STM32_template_proj/Drivers/STM32F1xx_HAL_Driver/Inc\stm32f1xx_ll_usart.h ****   */
 171:C:/Users/nace/OneDrive/Desktop/STM32/Projects_nace/NUCLEO_LL_Project_LCD/STM32_template_proj/Drivers/STM32F1xx_HAL_Driver/Inc\stm32f1xx_ll_usart.h **** 
 172:C:/Users/nace/OneDrive/Desktop/STM32/Projects_nace/NUCLEO_LL_Project_LCD/STM32_template_proj/Drivers/STM32F1xx_HAL_Driver/Inc\stm32f1xx_ll_usart.h **** /** @defgroup USART_LL_EC_IT IT Defines
 173:C:/Users/nace/OneDrive/Desktop/STM32/Projects_nace/NUCLEO_LL_Project_LCD/STM32_template_proj/Drivers/STM32F1xx_HAL_Driver/Inc\stm32f1xx_ll_usart.h ****   * @brief    IT defines which can be used with LL_USART_ReadReg and  LL_USART_WriteReg functions
 174:C:/Users/nace/OneDrive/Desktop/STM32/Projects_nace/NUCLEO_LL_Project_LCD/STM32_template_proj/Drivers/STM32F1xx_HAL_Driver/Inc\stm32f1xx_ll_usart.h ****   * @{
 175:C:/Users/nace/OneDrive/Desktop/STM32/Projects_nace/NUCLEO_LL_Project_LCD/STM32_template_proj/Drivers/STM32F1xx_HAL_Driver/Inc\stm32f1xx_ll_usart.h ****   */
 176:C:/Users/nace/OneDrive/Desktop/STM32/Projects_nace/NUCLEO_LL_Project_LCD/STM32_template_proj/Drivers/STM32F1xx_HAL_Driver/Inc\stm32f1xx_ll_usart.h **** #define LL_USART_CR1_IDLEIE                     USART_CR1_IDLEIE              /*!< IDLE interrupt e
 177:C:/Users/nace/OneDrive/Desktop/STM32/Projects_nace/NUCLEO_LL_Project_LCD/STM32_template_proj/Drivers/STM32F1xx_HAL_Driver/Inc\stm32f1xx_ll_usart.h **** #define LL_USART_CR1_RXNEIE                     USART_CR1_RXNEIE              /*!< Read data regist
 178:C:/Users/nace/OneDrive/Desktop/STM32/Projects_nace/NUCLEO_LL_Project_LCD/STM32_template_proj/Drivers/STM32F1xx_HAL_Driver/Inc\stm32f1xx_ll_usart.h **** #define LL_USART_CR1_TCIE                       USART_CR1_TCIE                /*!< Transmission com
 179:C:/Users/nace/OneDrive/Desktop/STM32/Projects_nace/NUCLEO_LL_Project_LCD/STM32_template_proj/Drivers/STM32F1xx_HAL_Driver/Inc\stm32f1xx_ll_usart.h **** #define LL_USART_CR1_TXEIE                      USART_CR1_TXEIE               /*!< Transmit data re
 180:C:/Users/nace/OneDrive/Desktop/STM32/Projects_nace/NUCLEO_LL_Project_LCD/STM32_template_proj/Drivers/STM32F1xx_HAL_Driver/Inc\stm32f1xx_ll_usart.h **** #define LL_USART_CR1_PEIE                       USART_CR1_PEIE                /*!< Parity error */
 181:C:/Users/nace/OneDrive/Desktop/STM32/Projects_nace/NUCLEO_LL_Project_LCD/STM32_template_proj/Drivers/STM32F1xx_HAL_Driver/Inc\stm32f1xx_ll_usart.h **** #define LL_USART_CR2_LBDIE                      USART_CR2_LBDIE               /*!< LIN break detect
 182:C:/Users/nace/OneDrive/Desktop/STM32/Projects_nace/NUCLEO_LL_Project_LCD/STM32_template_proj/Drivers/STM32F1xx_HAL_Driver/Inc\stm32f1xx_ll_usart.h **** #define LL_USART_CR3_EIE                        USART_CR3_EIE                 /*!< Error interrupt 
 183:C:/Users/nace/OneDrive/Desktop/STM32/Projects_nace/NUCLEO_LL_Project_LCD/STM32_template_proj/Drivers/STM32F1xx_HAL_Driver/Inc\stm32f1xx_ll_usart.h **** #define LL_USART_CR3_CTSIE                      USART_CR3_CTSIE               /*!< CTS interrupt en
 184:C:/Users/nace/OneDrive/Desktop/STM32/Projects_nace/NUCLEO_LL_Project_LCD/STM32_template_proj/Drivers/STM32F1xx_HAL_Driver/Inc\stm32f1xx_ll_usart.h **** /**
 185:C:/Users/nace/OneDrive/Desktop/STM32/Projects_nace/NUCLEO_LL_Project_LCD/STM32_template_proj/Drivers/STM32F1xx_HAL_Driver/Inc\stm32f1xx_ll_usart.h ****   * @}
 186:C:/Users/nace/OneDrive/Desktop/STM32/Projects_nace/NUCLEO_LL_Project_LCD/STM32_template_proj/Drivers/STM32F1xx_HAL_Driver/Inc\stm32f1xx_ll_usart.h ****   */
 187:C:/Users/nace/OneDrive/Desktop/STM32/Projects_nace/NUCLEO_LL_Project_LCD/STM32_template_proj/Drivers/STM32F1xx_HAL_Driver/Inc\stm32f1xx_ll_usart.h **** 
 188:C:/Users/nace/OneDrive/Desktop/STM32/Projects_nace/NUCLEO_LL_Project_LCD/STM32_template_proj/Drivers/STM32F1xx_HAL_Driver/Inc\stm32f1xx_ll_usart.h **** /** @defgroup USART_LL_EC_DIRECTION Communication Direction
 189:C:/Users/nace/OneDrive/Desktop/STM32/Projects_nace/NUCLEO_LL_Project_LCD/STM32_template_proj/Drivers/STM32F1xx_HAL_Driver/Inc\stm32f1xx_ll_usart.h ****   * @{
 190:C:/Users/nace/OneDrive/Desktop/STM32/Projects_nace/NUCLEO_LL_Project_LCD/STM32_template_proj/Drivers/STM32F1xx_HAL_Driver/Inc\stm32f1xx_ll_usart.h ****   */
 191:C:/Users/nace/OneDrive/Desktop/STM32/Projects_nace/NUCLEO_LL_Project_LCD/STM32_template_proj/Drivers/STM32F1xx_HAL_Driver/Inc\stm32f1xx_ll_usart.h **** #define LL_USART_DIRECTION_NONE                 0x00000000U                        /*!< Transmitter
 192:C:/Users/nace/OneDrive/Desktop/STM32/Projects_nace/NUCLEO_LL_Project_LCD/STM32_template_proj/Drivers/STM32F1xx_HAL_Driver/Inc\stm32f1xx_ll_usart.h **** #define LL_USART_DIRECTION_RX                   USART_CR1_RE                       /*!< Transmitter
 193:C:/Users/nace/OneDrive/Desktop/STM32/Projects_nace/NUCLEO_LL_Project_LCD/STM32_template_proj/Drivers/STM32F1xx_HAL_Driver/Inc\stm32f1xx_ll_usart.h **** #define LL_USART_DIRECTION_TX                   USART_CR1_TE                       /*!< Transmitter
 194:C:/Users/nace/OneDrive/Desktop/STM32/Projects_nace/NUCLEO_LL_Project_LCD/STM32_template_proj/Drivers/STM32F1xx_HAL_Driver/Inc\stm32f1xx_ll_usart.h **** #define LL_USART_DIRECTION_TX_RX                (USART_CR1_TE |USART_CR1_RE)       /*!< Transmitter
 195:C:/Users/nace/OneDrive/Desktop/STM32/Projects_nace/NUCLEO_LL_Project_LCD/STM32_template_proj/Drivers/STM32F1xx_HAL_Driver/Inc\stm32f1xx_ll_usart.h **** /**
 196:C:/Users/nace/OneDrive/Desktop/STM32/Projects_nace/NUCLEO_LL_Project_LCD/STM32_template_proj/Drivers/STM32F1xx_HAL_Driver/Inc\stm32f1xx_ll_usart.h ****   * @}
 197:C:/Users/nace/OneDrive/Desktop/STM32/Projects_nace/NUCLEO_LL_Project_LCD/STM32_template_proj/Drivers/STM32F1xx_HAL_Driver/Inc\stm32f1xx_ll_usart.h ****   */
 198:C:/Users/nace/OneDrive/Desktop/STM32/Projects_nace/NUCLEO_LL_Project_LCD/STM32_template_proj/Drivers/STM32F1xx_HAL_Driver/Inc\stm32f1xx_ll_usart.h **** 
 199:C:/Users/nace/OneDrive/Desktop/STM32/Projects_nace/NUCLEO_LL_Project_LCD/STM32_template_proj/Drivers/STM32F1xx_HAL_Driver/Inc\stm32f1xx_ll_usart.h **** /** @defgroup USART_LL_EC_PARITY Parity Control
 200:C:/Users/nace/OneDrive/Desktop/STM32/Projects_nace/NUCLEO_LL_Project_LCD/STM32_template_proj/Drivers/STM32F1xx_HAL_Driver/Inc\stm32f1xx_ll_usart.h ****   * @{
 201:C:/Users/nace/OneDrive/Desktop/STM32/Projects_nace/NUCLEO_LL_Project_LCD/STM32_template_proj/Drivers/STM32F1xx_HAL_Driver/Inc\stm32f1xx_ll_usart.h ****   */
 202:C:/Users/nace/OneDrive/Desktop/STM32/Projects_nace/NUCLEO_LL_Project_LCD/STM32_template_proj/Drivers/STM32F1xx_HAL_Driver/Inc\stm32f1xx_ll_usart.h **** #define LL_USART_PARITY_NONE                    0x00000000U                          /*!< Parity co
 203:C:/Users/nace/OneDrive/Desktop/STM32/Projects_nace/NUCLEO_LL_Project_LCD/STM32_template_proj/Drivers/STM32F1xx_HAL_Driver/Inc\stm32f1xx_ll_usart.h **** #define LL_USART_PARITY_EVEN                    USART_CR1_PCE                        /*!< Parity co
 204:C:/Users/nace/OneDrive/Desktop/STM32/Projects_nace/NUCLEO_LL_Project_LCD/STM32_template_proj/Drivers/STM32F1xx_HAL_Driver/Inc\stm32f1xx_ll_usart.h **** #define LL_USART_PARITY_ODD                     (USART_CR1_PCE | USART_CR1_PS)       /*!< Parity co
 205:C:/Users/nace/OneDrive/Desktop/STM32/Projects_nace/NUCLEO_LL_Project_LCD/STM32_template_proj/Drivers/STM32F1xx_HAL_Driver/Inc\stm32f1xx_ll_usart.h **** /**
 206:C:/Users/nace/OneDrive/Desktop/STM32/Projects_nace/NUCLEO_LL_Project_LCD/STM32_template_proj/Drivers/STM32F1xx_HAL_Driver/Inc\stm32f1xx_ll_usart.h ****   * @}
 207:C:/Users/nace/OneDrive/Desktop/STM32/Projects_nace/NUCLEO_LL_Project_LCD/STM32_template_proj/Drivers/STM32F1xx_HAL_Driver/Inc\stm32f1xx_ll_usart.h ****   */
 208:C:/Users/nace/OneDrive/Desktop/STM32/Projects_nace/NUCLEO_LL_Project_LCD/STM32_template_proj/Drivers/STM32F1xx_HAL_Driver/Inc\stm32f1xx_ll_usart.h **** 
 209:C:/Users/nace/OneDrive/Desktop/STM32/Projects_nace/NUCLEO_LL_Project_LCD/STM32_template_proj/Drivers/STM32F1xx_HAL_Driver/Inc\stm32f1xx_ll_usart.h **** /** @defgroup USART_LL_EC_WAKEUP Wakeup
 210:C:/Users/nace/OneDrive/Desktop/STM32/Projects_nace/NUCLEO_LL_Project_LCD/STM32_template_proj/Drivers/STM32F1xx_HAL_Driver/Inc\stm32f1xx_ll_usart.h ****   * @{
 211:C:/Users/nace/OneDrive/Desktop/STM32/Projects_nace/NUCLEO_LL_Project_LCD/STM32_template_proj/Drivers/STM32F1xx_HAL_Driver/Inc\stm32f1xx_ll_usart.h ****   */
 212:C:/Users/nace/OneDrive/Desktop/STM32/Projects_nace/NUCLEO_LL_Project_LCD/STM32_template_proj/Drivers/STM32F1xx_HAL_Driver/Inc\stm32f1xx_ll_usart.h **** #define LL_USART_WAKEUP_IDLELINE                0x00000000U           /*!<  USART wake up from Mute
 213:C:/Users/nace/OneDrive/Desktop/STM32/Projects_nace/NUCLEO_LL_Project_LCD/STM32_template_proj/Drivers/STM32F1xx_HAL_Driver/Inc\stm32f1xx_ll_usart.h **** #define LL_USART_WAKEUP_ADDRESSMARK             USART_CR1_WAKE        /*!<  USART wake up from Mute
 214:C:/Users/nace/OneDrive/Desktop/STM32/Projects_nace/NUCLEO_LL_Project_LCD/STM32_template_proj/Drivers/STM32F1xx_HAL_Driver/Inc\stm32f1xx_ll_usart.h **** /**
 215:C:/Users/nace/OneDrive/Desktop/STM32/Projects_nace/NUCLEO_LL_Project_LCD/STM32_template_proj/Drivers/STM32F1xx_HAL_Driver/Inc\stm32f1xx_ll_usart.h ****   * @}
 216:C:/Users/nace/OneDrive/Desktop/STM32/Projects_nace/NUCLEO_LL_Project_LCD/STM32_template_proj/Drivers/STM32F1xx_HAL_Driver/Inc\stm32f1xx_ll_usart.h ****   */
 217:C:/Users/nace/OneDrive/Desktop/STM32/Projects_nace/NUCLEO_LL_Project_LCD/STM32_template_proj/Drivers/STM32F1xx_HAL_Driver/Inc\stm32f1xx_ll_usart.h **** 
 218:C:/Users/nace/OneDrive/Desktop/STM32/Projects_nace/NUCLEO_LL_Project_LCD/STM32_template_proj/Drivers/STM32F1xx_HAL_Driver/Inc\stm32f1xx_ll_usart.h **** /** @defgroup USART_LL_EC_DATAWIDTH Datawidth
 219:C:/Users/nace/OneDrive/Desktop/STM32/Projects_nace/NUCLEO_LL_Project_LCD/STM32_template_proj/Drivers/STM32F1xx_HAL_Driver/Inc\stm32f1xx_ll_usart.h ****   * @{
 220:C:/Users/nace/OneDrive/Desktop/STM32/Projects_nace/NUCLEO_LL_Project_LCD/STM32_template_proj/Drivers/STM32F1xx_HAL_Driver/Inc\stm32f1xx_ll_usart.h ****   */
 221:C:/Users/nace/OneDrive/Desktop/STM32/Projects_nace/NUCLEO_LL_Project_LCD/STM32_template_proj/Drivers/STM32F1xx_HAL_Driver/Inc\stm32f1xx_ll_usart.h **** #define LL_USART_DATAWIDTH_8B                   0x00000000U             /*!< 8 bits word length : S
 222:C:/Users/nace/OneDrive/Desktop/STM32/Projects_nace/NUCLEO_LL_Project_LCD/STM32_template_proj/Drivers/STM32F1xx_HAL_Driver/Inc\stm32f1xx_ll_usart.h **** #define LL_USART_DATAWIDTH_9B                   USART_CR1_M             /*!< 9 bits word length : S
 223:C:/Users/nace/OneDrive/Desktop/STM32/Projects_nace/NUCLEO_LL_Project_LCD/STM32_template_proj/Drivers/STM32F1xx_HAL_Driver/Inc\stm32f1xx_ll_usart.h **** /**
 224:C:/Users/nace/OneDrive/Desktop/STM32/Projects_nace/NUCLEO_LL_Project_LCD/STM32_template_proj/Drivers/STM32F1xx_HAL_Driver/Inc\stm32f1xx_ll_usart.h ****   * @}
 225:C:/Users/nace/OneDrive/Desktop/STM32/Projects_nace/NUCLEO_LL_Project_LCD/STM32_template_proj/Drivers/STM32F1xx_HAL_Driver/Inc\stm32f1xx_ll_usart.h ****   */
 226:C:/Users/nace/OneDrive/Desktop/STM32/Projects_nace/NUCLEO_LL_Project_LCD/STM32_template_proj/Drivers/STM32F1xx_HAL_Driver/Inc\stm32f1xx_ll_usart.h **** 
 227:C:/Users/nace/OneDrive/Desktop/STM32/Projects_nace/NUCLEO_LL_Project_LCD/STM32_template_proj/Drivers/STM32F1xx_HAL_Driver/Inc\stm32f1xx_ll_usart.h **** /** @defgroup USART_LL_EC_OVERSAMPLING Oversampling
 228:C:/Users/nace/OneDrive/Desktop/STM32/Projects_nace/NUCLEO_LL_Project_LCD/STM32_template_proj/Drivers/STM32F1xx_HAL_Driver/Inc\stm32f1xx_ll_usart.h ****   * @{
 229:C:/Users/nace/OneDrive/Desktop/STM32/Projects_nace/NUCLEO_LL_Project_LCD/STM32_template_proj/Drivers/STM32F1xx_HAL_Driver/Inc\stm32f1xx_ll_usart.h ****   */
 230:C:/Users/nace/OneDrive/Desktop/STM32/Projects_nace/NUCLEO_LL_Project_LCD/STM32_template_proj/Drivers/STM32F1xx_HAL_Driver/Inc\stm32f1xx_ll_usart.h **** #define LL_USART_OVERSAMPLING_16                0x00000000U            /*!< Oversampling by 16 */
 231:C:/Users/nace/OneDrive/Desktop/STM32/Projects_nace/NUCLEO_LL_Project_LCD/STM32_template_proj/Drivers/STM32F1xx_HAL_Driver/Inc\stm32f1xx_ll_usart.h **** #if  defined(USART_CR1_OVER8)
 232:C:/Users/nace/OneDrive/Desktop/STM32/Projects_nace/NUCLEO_LL_Project_LCD/STM32_template_proj/Drivers/STM32F1xx_HAL_Driver/Inc\stm32f1xx_ll_usart.h **** #define LL_USART_OVERSAMPLING_8                 USART_CR1_OVER8        /*!< Oversampling by 8 */
 233:C:/Users/nace/OneDrive/Desktop/STM32/Projects_nace/NUCLEO_LL_Project_LCD/STM32_template_proj/Drivers/STM32F1xx_HAL_Driver/Inc\stm32f1xx_ll_usart.h **** #endif /* USART_OverSampling_Feature */
 234:C:/Users/nace/OneDrive/Desktop/STM32/Projects_nace/NUCLEO_LL_Project_LCD/STM32_template_proj/Drivers/STM32F1xx_HAL_Driver/Inc\stm32f1xx_ll_usart.h **** /**
 235:C:/Users/nace/OneDrive/Desktop/STM32/Projects_nace/NUCLEO_LL_Project_LCD/STM32_template_proj/Drivers/STM32F1xx_HAL_Driver/Inc\stm32f1xx_ll_usart.h ****   * @}
 236:C:/Users/nace/OneDrive/Desktop/STM32/Projects_nace/NUCLEO_LL_Project_LCD/STM32_template_proj/Drivers/STM32F1xx_HAL_Driver/Inc\stm32f1xx_ll_usart.h ****   */
 237:C:/Users/nace/OneDrive/Desktop/STM32/Projects_nace/NUCLEO_LL_Project_LCD/STM32_template_proj/Drivers/STM32F1xx_HAL_Driver/Inc\stm32f1xx_ll_usart.h **** 
 238:C:/Users/nace/OneDrive/Desktop/STM32/Projects_nace/NUCLEO_LL_Project_LCD/STM32_template_proj/Drivers/STM32F1xx_HAL_Driver/Inc\stm32f1xx_ll_usart.h **** #if defined(USE_FULL_LL_DRIVER)
 239:C:/Users/nace/OneDrive/Desktop/STM32/Projects_nace/NUCLEO_LL_Project_LCD/STM32_template_proj/Drivers/STM32F1xx_HAL_Driver/Inc\stm32f1xx_ll_usart.h **** /** @defgroup USART_LL_EC_CLOCK Clock Signal
 240:C:/Users/nace/OneDrive/Desktop/STM32/Projects_nace/NUCLEO_LL_Project_LCD/STM32_template_proj/Drivers/STM32F1xx_HAL_Driver/Inc\stm32f1xx_ll_usart.h ****   * @{
 241:C:/Users/nace/OneDrive/Desktop/STM32/Projects_nace/NUCLEO_LL_Project_LCD/STM32_template_proj/Drivers/STM32F1xx_HAL_Driver/Inc\stm32f1xx_ll_usart.h ****   */
 242:C:/Users/nace/OneDrive/Desktop/STM32/Projects_nace/NUCLEO_LL_Project_LCD/STM32_template_proj/Drivers/STM32F1xx_HAL_Driver/Inc\stm32f1xx_ll_usart.h **** 
 243:C:/Users/nace/OneDrive/Desktop/STM32/Projects_nace/NUCLEO_LL_Project_LCD/STM32_template_proj/Drivers/STM32F1xx_HAL_Driver/Inc\stm32f1xx_ll_usart.h **** #define LL_USART_CLOCK_DISABLE                  0x00000000U            /*!< Clock signal not provid
 244:C:/Users/nace/OneDrive/Desktop/STM32/Projects_nace/NUCLEO_LL_Project_LCD/STM32_template_proj/Drivers/STM32F1xx_HAL_Driver/Inc\stm32f1xx_ll_usart.h **** #define LL_USART_CLOCK_ENABLE                   USART_CR2_CLKEN        /*!< Clock signal provided *
 245:C:/Users/nace/OneDrive/Desktop/STM32/Projects_nace/NUCLEO_LL_Project_LCD/STM32_template_proj/Drivers/STM32F1xx_HAL_Driver/Inc\stm32f1xx_ll_usart.h **** /**
 246:C:/Users/nace/OneDrive/Desktop/STM32/Projects_nace/NUCLEO_LL_Project_LCD/STM32_template_proj/Drivers/STM32F1xx_HAL_Driver/Inc\stm32f1xx_ll_usart.h ****   * @}
 247:C:/Users/nace/OneDrive/Desktop/STM32/Projects_nace/NUCLEO_LL_Project_LCD/STM32_template_proj/Drivers/STM32F1xx_HAL_Driver/Inc\stm32f1xx_ll_usart.h ****   */
 248:C:/Users/nace/OneDrive/Desktop/STM32/Projects_nace/NUCLEO_LL_Project_LCD/STM32_template_proj/Drivers/STM32F1xx_HAL_Driver/Inc\stm32f1xx_ll_usart.h **** #endif /*USE_FULL_LL_DRIVER*/
 249:C:/Users/nace/OneDrive/Desktop/STM32/Projects_nace/NUCLEO_LL_Project_LCD/STM32_template_proj/Drivers/STM32F1xx_HAL_Driver/Inc\stm32f1xx_ll_usart.h **** 
 250:C:/Users/nace/OneDrive/Desktop/STM32/Projects_nace/NUCLEO_LL_Project_LCD/STM32_template_proj/Drivers/STM32F1xx_HAL_Driver/Inc\stm32f1xx_ll_usart.h **** /** @defgroup USART_LL_EC_LASTCLKPULSE Last Clock Pulse
 251:C:/Users/nace/OneDrive/Desktop/STM32/Projects_nace/NUCLEO_LL_Project_LCD/STM32_template_proj/Drivers/STM32F1xx_HAL_Driver/Inc\stm32f1xx_ll_usart.h ****   * @{
 252:C:/Users/nace/OneDrive/Desktop/STM32/Projects_nace/NUCLEO_LL_Project_LCD/STM32_template_proj/Drivers/STM32F1xx_HAL_Driver/Inc\stm32f1xx_ll_usart.h ****   */
 253:C:/Users/nace/OneDrive/Desktop/STM32/Projects_nace/NUCLEO_LL_Project_LCD/STM32_template_proj/Drivers/STM32F1xx_HAL_Driver/Inc\stm32f1xx_ll_usart.h **** #define LL_USART_LASTCLKPULSE_NO_OUTPUT         0x00000000U           /*!< The clock pulse of the l
 254:C:/Users/nace/OneDrive/Desktop/STM32/Projects_nace/NUCLEO_LL_Project_LCD/STM32_template_proj/Drivers/STM32F1xx_HAL_Driver/Inc\stm32f1xx_ll_usart.h **** #define LL_USART_LASTCLKPULSE_OUTPUT            USART_CR2_LBCL        /*!< The clock pulse of the l
 255:C:/Users/nace/OneDrive/Desktop/STM32/Projects_nace/NUCLEO_LL_Project_LCD/STM32_template_proj/Drivers/STM32F1xx_HAL_Driver/Inc\stm32f1xx_ll_usart.h **** /**
 256:C:/Users/nace/OneDrive/Desktop/STM32/Projects_nace/NUCLEO_LL_Project_LCD/STM32_template_proj/Drivers/STM32F1xx_HAL_Driver/Inc\stm32f1xx_ll_usart.h ****   * @}
 257:C:/Users/nace/OneDrive/Desktop/STM32/Projects_nace/NUCLEO_LL_Project_LCD/STM32_template_proj/Drivers/STM32F1xx_HAL_Driver/Inc\stm32f1xx_ll_usart.h ****   */
 258:C:/Users/nace/OneDrive/Desktop/STM32/Projects_nace/NUCLEO_LL_Project_LCD/STM32_template_proj/Drivers/STM32F1xx_HAL_Driver/Inc\stm32f1xx_ll_usart.h **** 
 259:C:/Users/nace/OneDrive/Desktop/STM32/Projects_nace/NUCLEO_LL_Project_LCD/STM32_template_proj/Drivers/STM32F1xx_HAL_Driver/Inc\stm32f1xx_ll_usart.h **** /** @defgroup USART_LL_EC_PHASE Clock Phase
 260:C:/Users/nace/OneDrive/Desktop/STM32/Projects_nace/NUCLEO_LL_Project_LCD/STM32_template_proj/Drivers/STM32F1xx_HAL_Driver/Inc\stm32f1xx_ll_usart.h ****   * @{
 261:C:/Users/nace/OneDrive/Desktop/STM32/Projects_nace/NUCLEO_LL_Project_LCD/STM32_template_proj/Drivers/STM32F1xx_HAL_Driver/Inc\stm32f1xx_ll_usart.h ****   */
 262:C:/Users/nace/OneDrive/Desktop/STM32/Projects_nace/NUCLEO_LL_Project_LCD/STM32_template_proj/Drivers/STM32F1xx_HAL_Driver/Inc\stm32f1xx_ll_usart.h **** #define LL_USART_PHASE_1EDGE                    0x00000000U           /*!< The first clock transiti
 263:C:/Users/nace/OneDrive/Desktop/STM32/Projects_nace/NUCLEO_LL_Project_LCD/STM32_template_proj/Drivers/STM32F1xx_HAL_Driver/Inc\stm32f1xx_ll_usart.h **** #define LL_USART_PHASE_2EDGE                    USART_CR2_CPHA        /*!< The second clock transit
 264:C:/Users/nace/OneDrive/Desktop/STM32/Projects_nace/NUCLEO_LL_Project_LCD/STM32_template_proj/Drivers/STM32F1xx_HAL_Driver/Inc\stm32f1xx_ll_usart.h **** /**
 265:C:/Users/nace/OneDrive/Desktop/STM32/Projects_nace/NUCLEO_LL_Project_LCD/STM32_template_proj/Drivers/STM32F1xx_HAL_Driver/Inc\stm32f1xx_ll_usart.h ****   * @}
 266:C:/Users/nace/OneDrive/Desktop/STM32/Projects_nace/NUCLEO_LL_Project_LCD/STM32_template_proj/Drivers/STM32F1xx_HAL_Driver/Inc\stm32f1xx_ll_usart.h ****   */
 267:C:/Users/nace/OneDrive/Desktop/STM32/Projects_nace/NUCLEO_LL_Project_LCD/STM32_template_proj/Drivers/STM32F1xx_HAL_Driver/Inc\stm32f1xx_ll_usart.h **** 
 268:C:/Users/nace/OneDrive/Desktop/STM32/Projects_nace/NUCLEO_LL_Project_LCD/STM32_template_proj/Drivers/STM32F1xx_HAL_Driver/Inc\stm32f1xx_ll_usart.h **** /** @defgroup USART_LL_EC_POLARITY Clock Polarity
 269:C:/Users/nace/OneDrive/Desktop/STM32/Projects_nace/NUCLEO_LL_Project_LCD/STM32_template_proj/Drivers/STM32F1xx_HAL_Driver/Inc\stm32f1xx_ll_usart.h ****   * @{
 270:C:/Users/nace/OneDrive/Desktop/STM32/Projects_nace/NUCLEO_LL_Project_LCD/STM32_template_proj/Drivers/STM32F1xx_HAL_Driver/Inc\stm32f1xx_ll_usart.h ****   */
 271:C:/Users/nace/OneDrive/Desktop/STM32/Projects_nace/NUCLEO_LL_Project_LCD/STM32_template_proj/Drivers/STM32F1xx_HAL_Driver/Inc\stm32f1xx_ll_usart.h **** #define LL_USART_POLARITY_LOW                   0x00000000U           /*!< Steady low value on SCLK
 272:C:/Users/nace/OneDrive/Desktop/STM32/Projects_nace/NUCLEO_LL_Project_LCD/STM32_template_proj/Drivers/STM32F1xx_HAL_Driver/Inc\stm32f1xx_ll_usart.h **** #define LL_USART_POLARITY_HIGH                  USART_CR2_CPOL        /*!< Steady high value on SCL
 273:C:/Users/nace/OneDrive/Desktop/STM32/Projects_nace/NUCLEO_LL_Project_LCD/STM32_template_proj/Drivers/STM32F1xx_HAL_Driver/Inc\stm32f1xx_ll_usart.h **** /**
 274:C:/Users/nace/OneDrive/Desktop/STM32/Projects_nace/NUCLEO_LL_Project_LCD/STM32_template_proj/Drivers/STM32F1xx_HAL_Driver/Inc\stm32f1xx_ll_usart.h ****   * @}
 275:C:/Users/nace/OneDrive/Desktop/STM32/Projects_nace/NUCLEO_LL_Project_LCD/STM32_template_proj/Drivers/STM32F1xx_HAL_Driver/Inc\stm32f1xx_ll_usart.h ****   */
 276:C:/Users/nace/OneDrive/Desktop/STM32/Projects_nace/NUCLEO_LL_Project_LCD/STM32_template_proj/Drivers/STM32F1xx_HAL_Driver/Inc\stm32f1xx_ll_usart.h **** 
 277:C:/Users/nace/OneDrive/Desktop/STM32/Projects_nace/NUCLEO_LL_Project_LCD/STM32_template_proj/Drivers/STM32F1xx_HAL_Driver/Inc\stm32f1xx_ll_usart.h **** /** @defgroup USART_LL_EC_STOPBITS Stop Bits
 278:C:/Users/nace/OneDrive/Desktop/STM32/Projects_nace/NUCLEO_LL_Project_LCD/STM32_template_proj/Drivers/STM32F1xx_HAL_Driver/Inc\stm32f1xx_ll_usart.h ****   * @{
 279:C:/Users/nace/OneDrive/Desktop/STM32/Projects_nace/NUCLEO_LL_Project_LCD/STM32_template_proj/Drivers/STM32F1xx_HAL_Driver/Inc\stm32f1xx_ll_usart.h ****   */
 280:C:/Users/nace/OneDrive/Desktop/STM32/Projects_nace/NUCLEO_LL_Project_LCD/STM32_template_proj/Drivers/STM32F1xx_HAL_Driver/Inc\stm32f1xx_ll_usart.h **** #define LL_USART_STOPBITS_0_5                   USART_CR2_STOP_0                           /*!< 0.5
 281:C:/Users/nace/OneDrive/Desktop/STM32/Projects_nace/NUCLEO_LL_Project_LCD/STM32_template_proj/Drivers/STM32F1xx_HAL_Driver/Inc\stm32f1xx_ll_usart.h **** #define LL_USART_STOPBITS_1                     0x00000000U                                /*!< 1 s
 282:C:/Users/nace/OneDrive/Desktop/STM32/Projects_nace/NUCLEO_LL_Project_LCD/STM32_template_proj/Drivers/STM32F1xx_HAL_Driver/Inc\stm32f1xx_ll_usart.h **** #define LL_USART_STOPBITS_1_5                   (USART_CR2_STOP_0 | USART_CR2_STOP_1)      /*!< 1.5
 283:C:/Users/nace/OneDrive/Desktop/STM32/Projects_nace/NUCLEO_LL_Project_LCD/STM32_template_proj/Drivers/STM32F1xx_HAL_Driver/Inc\stm32f1xx_ll_usart.h **** #define LL_USART_STOPBITS_2                     USART_CR2_STOP_1                           /*!< 2 s
 284:C:/Users/nace/OneDrive/Desktop/STM32/Projects_nace/NUCLEO_LL_Project_LCD/STM32_template_proj/Drivers/STM32F1xx_HAL_Driver/Inc\stm32f1xx_ll_usart.h **** /**
 285:C:/Users/nace/OneDrive/Desktop/STM32/Projects_nace/NUCLEO_LL_Project_LCD/STM32_template_proj/Drivers/STM32F1xx_HAL_Driver/Inc\stm32f1xx_ll_usart.h ****   * @}
 286:C:/Users/nace/OneDrive/Desktop/STM32/Projects_nace/NUCLEO_LL_Project_LCD/STM32_template_proj/Drivers/STM32F1xx_HAL_Driver/Inc\stm32f1xx_ll_usart.h ****   */
 287:C:/Users/nace/OneDrive/Desktop/STM32/Projects_nace/NUCLEO_LL_Project_LCD/STM32_template_proj/Drivers/STM32F1xx_HAL_Driver/Inc\stm32f1xx_ll_usart.h **** 
 288:C:/Users/nace/OneDrive/Desktop/STM32/Projects_nace/NUCLEO_LL_Project_LCD/STM32_template_proj/Drivers/STM32F1xx_HAL_Driver/Inc\stm32f1xx_ll_usart.h **** /** @defgroup USART_LL_EC_HWCONTROL Hardware Control
 289:C:/Users/nace/OneDrive/Desktop/STM32/Projects_nace/NUCLEO_LL_Project_LCD/STM32_template_proj/Drivers/STM32F1xx_HAL_Driver/Inc\stm32f1xx_ll_usart.h ****   * @{
 290:C:/Users/nace/OneDrive/Desktop/STM32/Projects_nace/NUCLEO_LL_Project_LCD/STM32_template_proj/Drivers/STM32F1xx_HAL_Driver/Inc\stm32f1xx_ll_usart.h ****   */
 291:C:/Users/nace/OneDrive/Desktop/STM32/Projects_nace/NUCLEO_LL_Project_LCD/STM32_template_proj/Drivers/STM32F1xx_HAL_Driver/Inc\stm32f1xx_ll_usart.h **** #define LL_USART_HWCONTROL_NONE                 0x00000000U                          /*!< CTS and R
 292:C:/Users/nace/OneDrive/Desktop/STM32/Projects_nace/NUCLEO_LL_Project_LCD/STM32_template_proj/Drivers/STM32F1xx_HAL_Driver/Inc\stm32f1xx_ll_usart.h **** #define LL_USART_HWCONTROL_RTS                  USART_CR3_RTSE                       /*!< RTS outpu
 293:C:/Users/nace/OneDrive/Desktop/STM32/Projects_nace/NUCLEO_LL_Project_LCD/STM32_template_proj/Drivers/STM32F1xx_HAL_Driver/Inc\stm32f1xx_ll_usart.h **** #define LL_USART_HWCONTROL_CTS                  USART_CR3_CTSE                       /*!< CTS mode 
 294:C:/Users/nace/OneDrive/Desktop/STM32/Projects_nace/NUCLEO_LL_Project_LCD/STM32_template_proj/Drivers/STM32F1xx_HAL_Driver/Inc\stm32f1xx_ll_usart.h **** #define LL_USART_HWCONTROL_RTS_CTS              (USART_CR3_RTSE | USART_CR3_CTSE)    /*!< CTS and R
 295:C:/Users/nace/OneDrive/Desktop/STM32/Projects_nace/NUCLEO_LL_Project_LCD/STM32_template_proj/Drivers/STM32F1xx_HAL_Driver/Inc\stm32f1xx_ll_usart.h **** /**
 296:C:/Users/nace/OneDrive/Desktop/STM32/Projects_nace/NUCLEO_LL_Project_LCD/STM32_template_proj/Drivers/STM32F1xx_HAL_Driver/Inc\stm32f1xx_ll_usart.h ****   * @}
 297:C:/Users/nace/OneDrive/Desktop/STM32/Projects_nace/NUCLEO_LL_Project_LCD/STM32_template_proj/Drivers/STM32F1xx_HAL_Driver/Inc\stm32f1xx_ll_usart.h ****   */
 298:C:/Users/nace/OneDrive/Desktop/STM32/Projects_nace/NUCLEO_LL_Project_LCD/STM32_template_proj/Drivers/STM32F1xx_HAL_Driver/Inc\stm32f1xx_ll_usart.h **** 
 299:C:/Users/nace/OneDrive/Desktop/STM32/Projects_nace/NUCLEO_LL_Project_LCD/STM32_template_proj/Drivers/STM32F1xx_HAL_Driver/Inc\stm32f1xx_ll_usart.h **** /** @defgroup USART_LL_EC_IRDA_POWER IrDA Power
 300:C:/Users/nace/OneDrive/Desktop/STM32/Projects_nace/NUCLEO_LL_Project_LCD/STM32_template_proj/Drivers/STM32F1xx_HAL_Driver/Inc\stm32f1xx_ll_usart.h ****   * @{
 301:C:/Users/nace/OneDrive/Desktop/STM32/Projects_nace/NUCLEO_LL_Project_LCD/STM32_template_proj/Drivers/STM32F1xx_HAL_Driver/Inc\stm32f1xx_ll_usart.h ****   */
 302:C:/Users/nace/OneDrive/Desktop/STM32/Projects_nace/NUCLEO_LL_Project_LCD/STM32_template_proj/Drivers/STM32F1xx_HAL_Driver/Inc\stm32f1xx_ll_usart.h **** #define LL_USART_IRDA_POWER_NORMAL              0x00000000U           /*!< IrDA normal power mode *
 303:C:/Users/nace/OneDrive/Desktop/STM32/Projects_nace/NUCLEO_LL_Project_LCD/STM32_template_proj/Drivers/STM32F1xx_HAL_Driver/Inc\stm32f1xx_ll_usart.h **** #define LL_USART_IRDA_POWER_LOW                 USART_CR3_IRLP        /*!< IrDA low power mode */
 304:C:/Users/nace/OneDrive/Desktop/STM32/Projects_nace/NUCLEO_LL_Project_LCD/STM32_template_proj/Drivers/STM32F1xx_HAL_Driver/Inc\stm32f1xx_ll_usart.h **** /**
 305:C:/Users/nace/OneDrive/Desktop/STM32/Projects_nace/NUCLEO_LL_Project_LCD/STM32_template_proj/Drivers/STM32F1xx_HAL_Driver/Inc\stm32f1xx_ll_usart.h ****   * @}
 306:C:/Users/nace/OneDrive/Desktop/STM32/Projects_nace/NUCLEO_LL_Project_LCD/STM32_template_proj/Drivers/STM32F1xx_HAL_Driver/Inc\stm32f1xx_ll_usart.h ****   */
 307:C:/Users/nace/OneDrive/Desktop/STM32/Projects_nace/NUCLEO_LL_Project_LCD/STM32_template_proj/Drivers/STM32F1xx_HAL_Driver/Inc\stm32f1xx_ll_usart.h **** 
 308:C:/Users/nace/OneDrive/Desktop/STM32/Projects_nace/NUCLEO_LL_Project_LCD/STM32_template_proj/Drivers/STM32F1xx_HAL_Driver/Inc\stm32f1xx_ll_usart.h **** /** @defgroup USART_LL_EC_LINBREAK_DETECT LIN Break Detection Length
 309:C:/Users/nace/OneDrive/Desktop/STM32/Projects_nace/NUCLEO_LL_Project_LCD/STM32_template_proj/Drivers/STM32F1xx_HAL_Driver/Inc\stm32f1xx_ll_usart.h ****   * @{
 310:C:/Users/nace/OneDrive/Desktop/STM32/Projects_nace/NUCLEO_LL_Project_LCD/STM32_template_proj/Drivers/STM32F1xx_HAL_Driver/Inc\stm32f1xx_ll_usart.h ****   */
 311:C:/Users/nace/OneDrive/Desktop/STM32/Projects_nace/NUCLEO_LL_Project_LCD/STM32_template_proj/Drivers/STM32F1xx_HAL_Driver/Inc\stm32f1xx_ll_usart.h **** #define LL_USART_LINBREAK_DETECT_10B            0x00000000U           /*!< 10-bit break detection m
 312:C:/Users/nace/OneDrive/Desktop/STM32/Projects_nace/NUCLEO_LL_Project_LCD/STM32_template_proj/Drivers/STM32F1xx_HAL_Driver/Inc\stm32f1xx_ll_usart.h **** #define LL_USART_LINBREAK_DETECT_11B            USART_CR2_LBDL        /*!< 11-bit break detection m
 313:C:/Users/nace/OneDrive/Desktop/STM32/Projects_nace/NUCLEO_LL_Project_LCD/STM32_template_proj/Drivers/STM32F1xx_HAL_Driver/Inc\stm32f1xx_ll_usart.h **** /**
 314:C:/Users/nace/OneDrive/Desktop/STM32/Projects_nace/NUCLEO_LL_Project_LCD/STM32_template_proj/Drivers/STM32F1xx_HAL_Driver/Inc\stm32f1xx_ll_usart.h ****   * @}
 315:C:/Users/nace/OneDrive/Desktop/STM32/Projects_nace/NUCLEO_LL_Project_LCD/STM32_template_proj/Drivers/STM32F1xx_HAL_Driver/Inc\stm32f1xx_ll_usart.h ****   */
 316:C:/Users/nace/OneDrive/Desktop/STM32/Projects_nace/NUCLEO_LL_Project_LCD/STM32_template_proj/Drivers/STM32F1xx_HAL_Driver/Inc\stm32f1xx_ll_usart.h **** 
 317:C:/Users/nace/OneDrive/Desktop/STM32/Projects_nace/NUCLEO_LL_Project_LCD/STM32_template_proj/Drivers/STM32F1xx_HAL_Driver/Inc\stm32f1xx_ll_usart.h **** /**
 318:C:/Users/nace/OneDrive/Desktop/STM32/Projects_nace/NUCLEO_LL_Project_LCD/STM32_template_proj/Drivers/STM32F1xx_HAL_Driver/Inc\stm32f1xx_ll_usart.h ****   * @}
 319:C:/Users/nace/OneDrive/Desktop/STM32/Projects_nace/NUCLEO_LL_Project_LCD/STM32_template_proj/Drivers/STM32F1xx_HAL_Driver/Inc\stm32f1xx_ll_usart.h ****   */
 320:C:/Users/nace/OneDrive/Desktop/STM32/Projects_nace/NUCLEO_LL_Project_LCD/STM32_template_proj/Drivers/STM32F1xx_HAL_Driver/Inc\stm32f1xx_ll_usart.h **** 
 321:C:/Users/nace/OneDrive/Desktop/STM32/Projects_nace/NUCLEO_LL_Project_LCD/STM32_template_proj/Drivers/STM32F1xx_HAL_Driver/Inc\stm32f1xx_ll_usart.h **** /* Exported macro ------------------------------------------------------------*/
 322:C:/Users/nace/OneDrive/Desktop/STM32/Projects_nace/NUCLEO_LL_Project_LCD/STM32_template_proj/Drivers/STM32F1xx_HAL_Driver/Inc\stm32f1xx_ll_usart.h **** /** @defgroup USART_LL_Exported_Macros USART Exported Macros
 323:C:/Users/nace/OneDrive/Desktop/STM32/Projects_nace/NUCLEO_LL_Project_LCD/STM32_template_proj/Drivers/STM32F1xx_HAL_Driver/Inc\stm32f1xx_ll_usart.h ****   * @{
 324:C:/Users/nace/OneDrive/Desktop/STM32/Projects_nace/NUCLEO_LL_Project_LCD/STM32_template_proj/Drivers/STM32F1xx_HAL_Driver/Inc\stm32f1xx_ll_usart.h ****   */
 325:C:/Users/nace/OneDrive/Desktop/STM32/Projects_nace/NUCLEO_LL_Project_LCD/STM32_template_proj/Drivers/STM32F1xx_HAL_Driver/Inc\stm32f1xx_ll_usart.h **** 
 326:C:/Users/nace/OneDrive/Desktop/STM32/Projects_nace/NUCLEO_LL_Project_LCD/STM32_template_proj/Drivers/STM32F1xx_HAL_Driver/Inc\stm32f1xx_ll_usart.h **** /** @defgroup USART_LL_EM_WRITE_READ Common Write and read registers Macros
 327:C:/Users/nace/OneDrive/Desktop/STM32/Projects_nace/NUCLEO_LL_Project_LCD/STM32_template_proj/Drivers/STM32F1xx_HAL_Driver/Inc\stm32f1xx_ll_usart.h ****   * @{
 328:C:/Users/nace/OneDrive/Desktop/STM32/Projects_nace/NUCLEO_LL_Project_LCD/STM32_template_proj/Drivers/STM32F1xx_HAL_Driver/Inc\stm32f1xx_ll_usart.h ****   */
 329:C:/Users/nace/OneDrive/Desktop/STM32/Projects_nace/NUCLEO_LL_Project_LCD/STM32_template_proj/Drivers/STM32F1xx_HAL_Driver/Inc\stm32f1xx_ll_usart.h **** 
 330:C:/Users/nace/OneDrive/Desktop/STM32/Projects_nace/NUCLEO_LL_Project_LCD/STM32_template_proj/Drivers/STM32F1xx_HAL_Driver/Inc\stm32f1xx_ll_usart.h **** /**
 331:C:/Users/nace/OneDrive/Desktop/STM32/Projects_nace/NUCLEO_LL_Project_LCD/STM32_template_proj/Drivers/STM32F1xx_HAL_Driver/Inc\stm32f1xx_ll_usart.h ****   * @brief  Write a value in USART register
 332:C:/Users/nace/OneDrive/Desktop/STM32/Projects_nace/NUCLEO_LL_Project_LCD/STM32_template_proj/Drivers/STM32F1xx_HAL_Driver/Inc\stm32f1xx_ll_usart.h ****   * @param  __INSTANCE__ USART Instance
 333:C:/Users/nace/OneDrive/Desktop/STM32/Projects_nace/NUCLEO_LL_Project_LCD/STM32_template_proj/Drivers/STM32F1xx_HAL_Driver/Inc\stm32f1xx_ll_usart.h ****   * @param  __REG__ Register to be written
 334:C:/Users/nace/OneDrive/Desktop/STM32/Projects_nace/NUCLEO_LL_Project_LCD/STM32_template_proj/Drivers/STM32F1xx_HAL_Driver/Inc\stm32f1xx_ll_usart.h ****   * @param  __VALUE__ Value to be written in the register
 335:C:/Users/nace/OneDrive/Desktop/STM32/Projects_nace/NUCLEO_LL_Project_LCD/STM32_template_proj/Drivers/STM32F1xx_HAL_Driver/Inc\stm32f1xx_ll_usart.h ****   * @retval None
 336:C:/Users/nace/OneDrive/Desktop/STM32/Projects_nace/NUCLEO_LL_Project_LCD/STM32_template_proj/Drivers/STM32F1xx_HAL_Driver/Inc\stm32f1xx_ll_usart.h ****   */
 337:C:/Users/nace/OneDrive/Desktop/STM32/Projects_nace/NUCLEO_LL_Project_LCD/STM32_template_proj/Drivers/STM32F1xx_HAL_Driver/Inc\stm32f1xx_ll_usart.h **** #define LL_USART_WriteReg(__INSTANCE__, __REG__, __VALUE__) WRITE_REG(__INSTANCE__->__REG__, (__VAL
 338:C:/Users/nace/OneDrive/Desktop/STM32/Projects_nace/NUCLEO_LL_Project_LCD/STM32_template_proj/Drivers/STM32F1xx_HAL_Driver/Inc\stm32f1xx_ll_usart.h **** 
 339:C:/Users/nace/OneDrive/Desktop/STM32/Projects_nace/NUCLEO_LL_Project_LCD/STM32_template_proj/Drivers/STM32F1xx_HAL_Driver/Inc\stm32f1xx_ll_usart.h **** /**
 340:C:/Users/nace/OneDrive/Desktop/STM32/Projects_nace/NUCLEO_LL_Project_LCD/STM32_template_proj/Drivers/STM32F1xx_HAL_Driver/Inc\stm32f1xx_ll_usart.h ****   * @brief  Read a value in USART register
 341:C:/Users/nace/OneDrive/Desktop/STM32/Projects_nace/NUCLEO_LL_Project_LCD/STM32_template_proj/Drivers/STM32F1xx_HAL_Driver/Inc\stm32f1xx_ll_usart.h ****   * @param  __INSTANCE__ USART Instance
 342:C:/Users/nace/OneDrive/Desktop/STM32/Projects_nace/NUCLEO_LL_Project_LCD/STM32_template_proj/Drivers/STM32F1xx_HAL_Driver/Inc\stm32f1xx_ll_usart.h ****   * @param  __REG__ Register to be read
 343:C:/Users/nace/OneDrive/Desktop/STM32/Projects_nace/NUCLEO_LL_Project_LCD/STM32_template_proj/Drivers/STM32F1xx_HAL_Driver/Inc\stm32f1xx_ll_usart.h ****   * @retval Register value
 344:C:/Users/nace/OneDrive/Desktop/STM32/Projects_nace/NUCLEO_LL_Project_LCD/STM32_template_proj/Drivers/STM32F1xx_HAL_Driver/Inc\stm32f1xx_ll_usart.h ****   */
 345:C:/Users/nace/OneDrive/Desktop/STM32/Projects_nace/NUCLEO_LL_Project_LCD/STM32_template_proj/Drivers/STM32F1xx_HAL_Driver/Inc\stm32f1xx_ll_usart.h **** #define LL_USART_ReadReg(__INSTANCE__, __REG__) READ_REG(__INSTANCE__->__REG__)
 346:C:/Users/nace/OneDrive/Desktop/STM32/Projects_nace/NUCLEO_LL_Project_LCD/STM32_template_proj/Drivers/STM32F1xx_HAL_Driver/Inc\stm32f1xx_ll_usart.h **** /**
 347:C:/Users/nace/OneDrive/Desktop/STM32/Projects_nace/NUCLEO_LL_Project_LCD/STM32_template_proj/Drivers/STM32F1xx_HAL_Driver/Inc\stm32f1xx_ll_usart.h ****   * @}
 348:C:/Users/nace/OneDrive/Desktop/STM32/Projects_nace/NUCLEO_LL_Project_LCD/STM32_template_proj/Drivers/STM32F1xx_HAL_Driver/Inc\stm32f1xx_ll_usart.h ****   */
 349:C:/Users/nace/OneDrive/Desktop/STM32/Projects_nace/NUCLEO_LL_Project_LCD/STM32_template_proj/Drivers/STM32F1xx_HAL_Driver/Inc\stm32f1xx_ll_usart.h **** 
 350:C:/Users/nace/OneDrive/Desktop/STM32/Projects_nace/NUCLEO_LL_Project_LCD/STM32_template_proj/Drivers/STM32F1xx_HAL_Driver/Inc\stm32f1xx_ll_usart.h **** /** @defgroup USART_LL_EM_Exported_Macros_Helper Exported Macros Helper
 351:C:/Users/nace/OneDrive/Desktop/STM32/Projects_nace/NUCLEO_LL_Project_LCD/STM32_template_proj/Drivers/STM32F1xx_HAL_Driver/Inc\stm32f1xx_ll_usart.h ****   * @{
 352:C:/Users/nace/OneDrive/Desktop/STM32/Projects_nace/NUCLEO_LL_Project_LCD/STM32_template_proj/Drivers/STM32F1xx_HAL_Driver/Inc\stm32f1xx_ll_usart.h ****   */
 353:C:/Users/nace/OneDrive/Desktop/STM32/Projects_nace/NUCLEO_LL_Project_LCD/STM32_template_proj/Drivers/STM32F1xx_HAL_Driver/Inc\stm32f1xx_ll_usart.h **** 
 354:C:/Users/nace/OneDrive/Desktop/STM32/Projects_nace/NUCLEO_LL_Project_LCD/STM32_template_proj/Drivers/STM32F1xx_HAL_Driver/Inc\stm32f1xx_ll_usart.h **** /**
 355:C:/Users/nace/OneDrive/Desktop/STM32/Projects_nace/NUCLEO_LL_Project_LCD/STM32_template_proj/Drivers/STM32F1xx_HAL_Driver/Inc\stm32f1xx_ll_usart.h ****   * @brief  Compute USARTDIV value according to Peripheral Clock and
 356:C:/Users/nace/OneDrive/Desktop/STM32/Projects_nace/NUCLEO_LL_Project_LCD/STM32_template_proj/Drivers/STM32F1xx_HAL_Driver/Inc\stm32f1xx_ll_usart.h ****   *         expected Baud Rate in 8 bits sampling mode (32 bits value of USARTDIV is returned)
 357:C:/Users/nace/OneDrive/Desktop/STM32/Projects_nace/NUCLEO_LL_Project_LCD/STM32_template_proj/Drivers/STM32F1xx_HAL_Driver/Inc\stm32f1xx_ll_usart.h ****   * @param  __PERIPHCLK__ Peripheral Clock frequency used for USART instance
 358:C:/Users/nace/OneDrive/Desktop/STM32/Projects_nace/NUCLEO_LL_Project_LCD/STM32_template_proj/Drivers/STM32F1xx_HAL_Driver/Inc\stm32f1xx_ll_usart.h ****   * @param  __BAUDRATE__ Baud rate value to achieve
 359:C:/Users/nace/OneDrive/Desktop/STM32/Projects_nace/NUCLEO_LL_Project_LCD/STM32_template_proj/Drivers/STM32F1xx_HAL_Driver/Inc\stm32f1xx_ll_usart.h ****   * @retval USARTDIV value to be used for BRR register filling in OverSampling_8 case
 360:C:/Users/nace/OneDrive/Desktop/STM32/Projects_nace/NUCLEO_LL_Project_LCD/STM32_template_proj/Drivers/STM32F1xx_HAL_Driver/Inc\stm32f1xx_ll_usart.h ****   */
 361:C:/Users/nace/OneDrive/Desktop/STM32/Projects_nace/NUCLEO_LL_Project_LCD/STM32_template_proj/Drivers/STM32F1xx_HAL_Driver/Inc\stm32f1xx_ll_usart.h **** #define __LL_USART_DIV_SAMPLING8_100(__PERIPHCLK__, __BAUDRATE__)      (((__PERIPHCLK__)*25)/(2*(__
 362:C:/Users/nace/OneDrive/Desktop/STM32/Projects_nace/NUCLEO_LL_Project_LCD/STM32_template_proj/Drivers/STM32F1xx_HAL_Driver/Inc\stm32f1xx_ll_usart.h **** #define __LL_USART_DIVMANT_SAMPLING8(__PERIPHCLK__, __BAUDRATE__)      (__LL_USART_DIV_SAMPLING8_10
 363:C:/Users/nace/OneDrive/Desktop/STM32/Projects_nace/NUCLEO_LL_Project_LCD/STM32_template_proj/Drivers/STM32F1xx_HAL_Driver/Inc\stm32f1xx_ll_usart.h **** #define __LL_USART_DIVFRAQ_SAMPLING8(__PERIPHCLK__, __BAUDRATE__)      (((__LL_USART_DIV_SAMPLING8_
 364:C:/Users/nace/OneDrive/Desktop/STM32/Projects_nace/NUCLEO_LL_Project_LCD/STM32_template_proj/Drivers/STM32F1xx_HAL_Driver/Inc\stm32f1xx_ll_usart.h ****                                                                          + 50) / 100)
 365:C:/Users/nace/OneDrive/Desktop/STM32/Projects_nace/NUCLEO_LL_Project_LCD/STM32_template_proj/Drivers/STM32F1xx_HAL_Driver/Inc\stm32f1xx_ll_usart.h **** /* UART BRR = mantissa + overflow + fraction
 366:C:/Users/nace/OneDrive/Desktop/STM32/Projects_nace/NUCLEO_LL_Project_LCD/STM32_template_proj/Drivers/STM32F1xx_HAL_Driver/Inc\stm32f1xx_ll_usart.h ****             = (UART DIVMANT << 4) + ((UART DIVFRAQ & 0xF8) << 1) + (UART DIVFRAQ & 0x07) */
 367:C:/Users/nace/OneDrive/Desktop/STM32/Projects_nace/NUCLEO_LL_Project_LCD/STM32_template_proj/Drivers/STM32F1xx_HAL_Driver/Inc\stm32f1xx_ll_usart.h **** #define __LL_USART_DIV_SAMPLING8(__PERIPHCLK__, __BAUDRATE__)             (((__LL_USART_DIVMANT_SAM
 368:C:/Users/nace/OneDrive/Desktop/STM32/Projects_nace/NUCLEO_LL_Project_LCD/STM32_template_proj/Drivers/STM32F1xx_HAL_Driver/Inc\stm32f1xx_ll_usart.h ****                                                                             ((__LL_USART_DIVFRAQ_SA
 369:C:/Users/nace/OneDrive/Desktop/STM32/Projects_nace/NUCLEO_LL_Project_LCD/STM32_template_proj/Drivers/STM32F1xx_HAL_Driver/Inc\stm32f1xx_ll_usart.h ****                                                                            (__LL_USART_DIVFRAQ_SAMP
 370:C:/Users/nace/OneDrive/Desktop/STM32/Projects_nace/NUCLEO_LL_Project_LCD/STM32_template_proj/Drivers/STM32F1xx_HAL_Driver/Inc\stm32f1xx_ll_usart.h **** 
 371:C:/Users/nace/OneDrive/Desktop/STM32/Projects_nace/NUCLEO_LL_Project_LCD/STM32_template_proj/Drivers/STM32F1xx_HAL_Driver/Inc\stm32f1xx_ll_usart.h **** /**
 372:C:/Users/nace/OneDrive/Desktop/STM32/Projects_nace/NUCLEO_LL_Project_LCD/STM32_template_proj/Drivers/STM32F1xx_HAL_Driver/Inc\stm32f1xx_ll_usart.h ****   * @brief  Compute USARTDIV value according to Peripheral Clock and
 373:C:/Users/nace/OneDrive/Desktop/STM32/Projects_nace/NUCLEO_LL_Project_LCD/STM32_template_proj/Drivers/STM32F1xx_HAL_Driver/Inc\stm32f1xx_ll_usart.h ****   *         expected Baud Rate in 16 bits sampling mode (32 bits value of USARTDIV is returned)
 374:C:/Users/nace/OneDrive/Desktop/STM32/Projects_nace/NUCLEO_LL_Project_LCD/STM32_template_proj/Drivers/STM32F1xx_HAL_Driver/Inc\stm32f1xx_ll_usart.h ****   * @param  __PERIPHCLK__ Peripheral Clock frequency used for USART instance
 375:C:/Users/nace/OneDrive/Desktop/STM32/Projects_nace/NUCLEO_LL_Project_LCD/STM32_template_proj/Drivers/STM32F1xx_HAL_Driver/Inc\stm32f1xx_ll_usart.h ****   * @param  __BAUDRATE__ Baud rate value to achieve
 376:C:/Users/nace/OneDrive/Desktop/STM32/Projects_nace/NUCLEO_LL_Project_LCD/STM32_template_proj/Drivers/STM32F1xx_HAL_Driver/Inc\stm32f1xx_ll_usart.h ****   * @retval USARTDIV value to be used for BRR register filling in OverSampling_16 case
 377:C:/Users/nace/OneDrive/Desktop/STM32/Projects_nace/NUCLEO_LL_Project_LCD/STM32_template_proj/Drivers/STM32F1xx_HAL_Driver/Inc\stm32f1xx_ll_usart.h ****   */
 378:C:/Users/nace/OneDrive/Desktop/STM32/Projects_nace/NUCLEO_LL_Project_LCD/STM32_template_proj/Drivers/STM32F1xx_HAL_Driver/Inc\stm32f1xx_ll_usart.h **** #define __LL_USART_DIV_SAMPLING16_100(__PERIPHCLK__, __BAUDRATE__)     (((__PERIPHCLK__)*25)/(4*(__
 379:C:/Users/nace/OneDrive/Desktop/STM32/Projects_nace/NUCLEO_LL_Project_LCD/STM32_template_proj/Drivers/STM32F1xx_HAL_Driver/Inc\stm32f1xx_ll_usart.h **** #define __LL_USART_DIVMANT_SAMPLING16(__PERIPHCLK__, __BAUDRATE__)     (__LL_USART_DIV_SAMPLING16_1
 380:C:/Users/nace/OneDrive/Desktop/STM32/Projects_nace/NUCLEO_LL_Project_LCD/STM32_template_proj/Drivers/STM32F1xx_HAL_Driver/Inc\stm32f1xx_ll_usart.h **** #define __LL_USART_DIVFRAQ_SAMPLING16(__PERIPHCLK__, __BAUDRATE__)     ((((__LL_USART_DIV_SAMPLING1
 381:C:/Users/nace/OneDrive/Desktop/STM32/Projects_nace/NUCLEO_LL_Project_LCD/STM32_template_proj/Drivers/STM32F1xx_HAL_Driver/Inc\stm32f1xx_ll_usart.h ****                                                                          + 50) / 100)
 382:C:/Users/nace/OneDrive/Desktop/STM32/Projects_nace/NUCLEO_LL_Project_LCD/STM32_template_proj/Drivers/STM32F1xx_HAL_Driver/Inc\stm32f1xx_ll_usart.h **** /* USART BRR = mantissa + overflow + fraction
 383:C:/Users/nace/OneDrive/Desktop/STM32/Projects_nace/NUCLEO_LL_Project_LCD/STM32_template_proj/Drivers/STM32F1xx_HAL_Driver/Inc\stm32f1xx_ll_usart.h ****             = (USART DIVMANT << 4) + (USART DIVFRAQ & 0xF0) + (USART DIVFRAQ & 0x0F) */
 384:C:/Users/nace/OneDrive/Desktop/STM32/Projects_nace/NUCLEO_LL_Project_LCD/STM32_template_proj/Drivers/STM32F1xx_HAL_Driver/Inc\stm32f1xx_ll_usart.h **** #define __LL_USART_DIV_SAMPLING16(__PERIPHCLK__, __BAUDRATE__)            (((__LL_USART_DIVMANT_SAM
 385:C:/Users/nace/OneDrive/Desktop/STM32/Projects_nace/NUCLEO_LL_Project_LCD/STM32_template_proj/Drivers/STM32F1xx_HAL_Driver/Inc\stm32f1xx_ll_usart.h ****                                                                             (__LL_USART_DIVFRAQ_SAM
 386:C:/Users/nace/OneDrive/Desktop/STM32/Projects_nace/NUCLEO_LL_Project_LCD/STM32_template_proj/Drivers/STM32F1xx_HAL_Driver/Inc\stm32f1xx_ll_usart.h ****                                                                            (__LL_USART_DIVFRAQ_SAMP
 387:C:/Users/nace/OneDrive/Desktop/STM32/Projects_nace/NUCLEO_LL_Project_LCD/STM32_template_proj/Drivers/STM32F1xx_HAL_Driver/Inc\stm32f1xx_ll_usart.h **** 
 388:C:/Users/nace/OneDrive/Desktop/STM32/Projects_nace/NUCLEO_LL_Project_LCD/STM32_template_proj/Drivers/STM32F1xx_HAL_Driver/Inc\stm32f1xx_ll_usart.h **** /**
 389:C:/Users/nace/OneDrive/Desktop/STM32/Projects_nace/NUCLEO_LL_Project_LCD/STM32_template_proj/Drivers/STM32F1xx_HAL_Driver/Inc\stm32f1xx_ll_usart.h ****   * @}
 390:C:/Users/nace/OneDrive/Desktop/STM32/Projects_nace/NUCLEO_LL_Project_LCD/STM32_template_proj/Drivers/STM32F1xx_HAL_Driver/Inc\stm32f1xx_ll_usart.h ****   */
 391:C:/Users/nace/OneDrive/Desktop/STM32/Projects_nace/NUCLEO_LL_Project_LCD/STM32_template_proj/Drivers/STM32F1xx_HAL_Driver/Inc\stm32f1xx_ll_usart.h **** 
 392:C:/Users/nace/OneDrive/Desktop/STM32/Projects_nace/NUCLEO_LL_Project_LCD/STM32_template_proj/Drivers/STM32F1xx_HAL_Driver/Inc\stm32f1xx_ll_usart.h **** /**
 393:C:/Users/nace/OneDrive/Desktop/STM32/Projects_nace/NUCLEO_LL_Project_LCD/STM32_template_proj/Drivers/STM32F1xx_HAL_Driver/Inc\stm32f1xx_ll_usart.h ****   * @}
 394:C:/Users/nace/OneDrive/Desktop/STM32/Projects_nace/NUCLEO_LL_Project_LCD/STM32_template_proj/Drivers/STM32F1xx_HAL_Driver/Inc\stm32f1xx_ll_usart.h ****   */
 395:C:/Users/nace/OneDrive/Desktop/STM32/Projects_nace/NUCLEO_LL_Project_LCD/STM32_template_proj/Drivers/STM32F1xx_HAL_Driver/Inc\stm32f1xx_ll_usart.h **** 
 396:C:/Users/nace/OneDrive/Desktop/STM32/Projects_nace/NUCLEO_LL_Project_LCD/STM32_template_proj/Drivers/STM32F1xx_HAL_Driver/Inc\stm32f1xx_ll_usart.h **** /* Exported functions --------------------------------------------------------*/
 397:C:/Users/nace/OneDrive/Desktop/STM32/Projects_nace/NUCLEO_LL_Project_LCD/STM32_template_proj/Drivers/STM32F1xx_HAL_Driver/Inc\stm32f1xx_ll_usart.h **** 
 398:C:/Users/nace/OneDrive/Desktop/STM32/Projects_nace/NUCLEO_LL_Project_LCD/STM32_template_proj/Drivers/STM32F1xx_HAL_Driver/Inc\stm32f1xx_ll_usart.h **** /** @defgroup USART_LL_Exported_Functions USART Exported Functions
 399:C:/Users/nace/OneDrive/Desktop/STM32/Projects_nace/NUCLEO_LL_Project_LCD/STM32_template_proj/Drivers/STM32F1xx_HAL_Driver/Inc\stm32f1xx_ll_usart.h ****   * @{
 400:C:/Users/nace/OneDrive/Desktop/STM32/Projects_nace/NUCLEO_LL_Project_LCD/STM32_template_proj/Drivers/STM32F1xx_HAL_Driver/Inc\stm32f1xx_ll_usart.h ****   */
 401:C:/Users/nace/OneDrive/Desktop/STM32/Projects_nace/NUCLEO_LL_Project_LCD/STM32_template_proj/Drivers/STM32F1xx_HAL_Driver/Inc\stm32f1xx_ll_usart.h **** 
 402:C:/Users/nace/OneDrive/Desktop/STM32/Projects_nace/NUCLEO_LL_Project_LCD/STM32_template_proj/Drivers/STM32F1xx_HAL_Driver/Inc\stm32f1xx_ll_usart.h **** /** @defgroup USART_LL_EF_Configuration Configuration functions
 403:C:/Users/nace/OneDrive/Desktop/STM32/Projects_nace/NUCLEO_LL_Project_LCD/STM32_template_proj/Drivers/STM32F1xx_HAL_Driver/Inc\stm32f1xx_ll_usart.h ****   * @{
 404:C:/Users/nace/OneDrive/Desktop/STM32/Projects_nace/NUCLEO_LL_Project_LCD/STM32_template_proj/Drivers/STM32F1xx_HAL_Driver/Inc\stm32f1xx_ll_usart.h ****   */
 405:C:/Users/nace/OneDrive/Desktop/STM32/Projects_nace/NUCLEO_LL_Project_LCD/STM32_template_proj/Drivers/STM32F1xx_HAL_Driver/Inc\stm32f1xx_ll_usart.h **** 
 406:C:/Users/nace/OneDrive/Desktop/STM32/Projects_nace/NUCLEO_LL_Project_LCD/STM32_template_proj/Drivers/STM32F1xx_HAL_Driver/Inc\stm32f1xx_ll_usart.h **** /**
 407:C:/Users/nace/OneDrive/Desktop/STM32/Projects_nace/NUCLEO_LL_Project_LCD/STM32_template_proj/Drivers/STM32F1xx_HAL_Driver/Inc\stm32f1xx_ll_usart.h ****   * @brief  USART Enable
 408:C:/Users/nace/OneDrive/Desktop/STM32/Projects_nace/NUCLEO_LL_Project_LCD/STM32_template_proj/Drivers/STM32F1xx_HAL_Driver/Inc\stm32f1xx_ll_usart.h ****   * @rmtoll CR1          UE            LL_USART_Enable
 409:C:/Users/nace/OneDrive/Desktop/STM32/Projects_nace/NUCLEO_LL_Project_LCD/STM32_template_proj/Drivers/STM32F1xx_HAL_Driver/Inc\stm32f1xx_ll_usart.h ****   * @param  USARTx USART Instance
 410:C:/Users/nace/OneDrive/Desktop/STM32/Projects_nace/NUCLEO_LL_Project_LCD/STM32_template_proj/Drivers/STM32F1xx_HAL_Driver/Inc\stm32f1xx_ll_usart.h ****   * @retval None
 411:C:/Users/nace/OneDrive/Desktop/STM32/Projects_nace/NUCLEO_LL_Project_LCD/STM32_template_proj/Drivers/STM32F1xx_HAL_Driver/Inc\stm32f1xx_ll_usart.h ****   */
 412:C:/Users/nace/OneDrive/Desktop/STM32/Projects_nace/NUCLEO_LL_Project_LCD/STM32_template_proj/Drivers/STM32F1xx_HAL_Driver/Inc\stm32f1xx_ll_usart.h **** __STATIC_INLINE void LL_USART_Enable(USART_TypeDef *USARTx)
 413:C:/Users/nace/OneDrive/Desktop/STM32/Projects_nace/NUCLEO_LL_Project_LCD/STM32_template_proj/Drivers/STM32F1xx_HAL_Driver/Inc\stm32f1xx_ll_usart.h **** {
 414:C:/Users/nace/OneDrive/Desktop/STM32/Projects_nace/NUCLEO_LL_Project_LCD/STM32_template_proj/Drivers/STM32F1xx_HAL_Driver/Inc\stm32f1xx_ll_usart.h ****   SET_BIT(USARTx->CR1, USART_CR1_UE);
 415:C:/Users/nace/OneDrive/Desktop/STM32/Projects_nace/NUCLEO_LL_Project_LCD/STM32_template_proj/Drivers/STM32F1xx_HAL_Driver/Inc\stm32f1xx_ll_usart.h **** }
 416:C:/Users/nace/OneDrive/Desktop/STM32/Projects_nace/NUCLEO_LL_Project_LCD/STM32_template_proj/Drivers/STM32F1xx_HAL_Driver/Inc\stm32f1xx_ll_usart.h **** 
 417:C:/Users/nace/OneDrive/Desktop/STM32/Projects_nace/NUCLEO_LL_Project_LCD/STM32_template_proj/Drivers/STM32F1xx_HAL_Driver/Inc\stm32f1xx_ll_usart.h **** /**
 418:C:/Users/nace/OneDrive/Desktop/STM32/Projects_nace/NUCLEO_LL_Project_LCD/STM32_template_proj/Drivers/STM32F1xx_HAL_Driver/Inc\stm32f1xx_ll_usart.h ****   * @brief  USART Disable (all USART prescalers and outputs are disabled)
 419:C:/Users/nace/OneDrive/Desktop/STM32/Projects_nace/NUCLEO_LL_Project_LCD/STM32_template_proj/Drivers/STM32F1xx_HAL_Driver/Inc\stm32f1xx_ll_usart.h ****   * @note   When USART is disabled, USART prescalers and outputs are stopped immediately,
 420:C:/Users/nace/OneDrive/Desktop/STM32/Projects_nace/NUCLEO_LL_Project_LCD/STM32_template_proj/Drivers/STM32F1xx_HAL_Driver/Inc\stm32f1xx_ll_usart.h ****   *         and current operations are discarded. The configuration of the USART is kept, but all t
 421:C:/Users/nace/OneDrive/Desktop/STM32/Projects_nace/NUCLEO_LL_Project_LCD/STM32_template_proj/Drivers/STM32F1xx_HAL_Driver/Inc\stm32f1xx_ll_usart.h ****   *         flags, in the USARTx_SR are set to their default values.
 422:C:/Users/nace/OneDrive/Desktop/STM32/Projects_nace/NUCLEO_LL_Project_LCD/STM32_template_proj/Drivers/STM32F1xx_HAL_Driver/Inc\stm32f1xx_ll_usart.h ****   * @rmtoll CR1          UE            LL_USART_Disable
