   1              		.cpu cortex-m3
   2              		.arch armv7-m
   3              		.fpu softvfp
   4              		.eabi_attribute 20, 1
   5              		.eabi_attribute 21, 1
   6              		.eabi_attribute 23, 3
   7              		.eabi_attribute 24, 1
   8              		.eabi_attribute 25, 1
   9              		.eabi_attribute 26, 1
  10              		.eabi_attribute 30, 1
  11              		.eabi_attribute 34, 1
  12              		.eabi_attribute 18, 4
  13              		.file	"stm32f1xx_it.c"
  14              		.text
  15              	.Ltext0:
  16              		.cfi_sections	.debug_frame
  17              		.file 1 "C:/Users/nace/OneDrive/Desktop/STM32/Projects_nace/NUCLEO_LL_Project_LCD/STM32_template_p
  18              		.section	.text.HardFault_Handler,"ax",%progbits
  19              		.align	1
  20              		.global	HardFault_Handler
  21              		.syntax unified
  22              		.thumb
  23              		.thumb_func
  25              	HardFault_Handler:
  26              	.LFB705:
   1:C:/Users/nace/OneDrive/Desktop/STM32/Projects_nace/NUCLEO_LL_Project_LCD/STM32_template_proj/Core/Src\stm32f1xx_it.c **** #include "main.h"
   2:C:/Users/nace/OneDrive/Desktop/STM32/Projects_nace/NUCLEO_LL_Project_LCD/STM32_template_proj/Core/Src\stm32f1xx_it.c **** #include "stm32f1xx_it.h"
   3:C:/Users/nace/OneDrive/Desktop/STM32/Projects_nace/NUCLEO_LL_Project_LCD/STM32_template_proj/Core/Src\stm32f1xx_it.c **** 
   4:C:/Users/nace/OneDrive/Desktop/STM32/Projects_nace/NUCLEO_LL_Project_LCD/STM32_template_proj/Core/Src\stm32f1xx_it.c **** #include "nt_time.h"
   5:C:/Users/nace/OneDrive/Desktop/STM32/Projects_nace/NUCLEO_LL_Project_LCD/STM32_template_proj/Core/Src\stm32f1xx_it.c **** 
   6:C:/Users/nace/OneDrive/Desktop/STM32/Projects_nace/NUCLEO_LL_Project_LCD/STM32_template_proj/Core/Src\stm32f1xx_it.c **** 
   7:C:/Users/nace/OneDrive/Desktop/STM32/Projects_nace/NUCLEO_LL_Project_LCD/STM32_template_proj/Core/Src\stm32f1xx_it.c **** 
   8:C:/Users/nace/OneDrive/Desktop/STM32/Projects_nace/NUCLEO_LL_Project_LCD/STM32_template_proj/Core/Src\stm32f1xx_it.c **** 
   9:C:/Users/nace/OneDrive/Desktop/STM32/Projects_nace/NUCLEO_LL_Project_LCD/STM32_template_proj/Core/Src\stm32f1xx_it.c **** /******************************************************************************/
  10:C:/Users/nace/OneDrive/Desktop/STM32/Projects_nace/NUCLEO_LL_Project_LCD/STM32_template_proj/Core/Src\stm32f1xx_it.c **** /*           Cortex-M3 Processor Interruption and Exception Handlers          */
  11:C:/Users/nace/OneDrive/Desktop/STM32/Projects_nace/NUCLEO_LL_Project_LCD/STM32_template_proj/Core/Src\stm32f1xx_it.c **** /******************************************************************************/
  12:C:/Users/nace/OneDrive/Desktop/STM32/Projects_nace/NUCLEO_LL_Project_LCD/STM32_template_proj/Core/Src\stm32f1xx_it.c **** /**
  13:C:/Users/nace/OneDrive/Desktop/STM32/Projects_nace/NUCLEO_LL_Project_LCD/STM32_template_proj/Core/Src\stm32f1xx_it.c ****  * @brief This function handles Non maskable interrupt.
  14:C:/Users/nace/OneDrive/Desktop/STM32/Projects_nace/NUCLEO_LL_Project_LCD/STM32_template_proj/Core/Src\stm32f1xx_it.c ****  */
  15:C:/Users/nace/OneDrive/Desktop/STM32/Projects_nace/NUCLEO_LL_Project_LCD/STM32_template_proj/Core/Src\stm32f1xx_it.c **** void NMI_Handler(void)
  16:C:/Users/nace/OneDrive/Desktop/STM32/Projects_nace/NUCLEO_LL_Project_LCD/STM32_template_proj/Core/Src\stm32f1xx_it.c **** {
  17:C:/Users/nace/OneDrive/Desktop/STM32/Projects_nace/NUCLEO_LL_Project_LCD/STM32_template_proj/Core/Src\stm32f1xx_it.c ****   /* USER CODE BEGIN NonMaskableInt_IRQn 0 */
  18:C:/Users/nace/OneDrive/Desktop/STM32/Projects_nace/NUCLEO_LL_Project_LCD/STM32_template_proj/Core/Src\stm32f1xx_it.c **** 
  19:C:/Users/nace/OneDrive/Desktop/STM32/Projects_nace/NUCLEO_LL_Project_LCD/STM32_template_proj/Core/Src\stm32f1xx_it.c ****   /* USER CODE END NonMaskableInt_IRQn 0 */
  20:C:/Users/nace/OneDrive/Desktop/STM32/Projects_nace/NUCLEO_LL_Project_LCD/STM32_template_proj/Core/Src\stm32f1xx_it.c ****   /* USER CODE BEGIN NonMaskableInt_IRQn 1 */
  21:C:/Users/nace/OneDrive/Desktop/STM32/Projects_nace/NUCLEO_LL_Project_LCD/STM32_template_proj/Core/Src\stm32f1xx_it.c ****   while (1)
  22:C:/Users/nace/OneDrive/Desktop/STM32/Projects_nace/NUCLEO_LL_Project_LCD/STM32_template_proj/Core/Src\stm32f1xx_it.c ****   {
  23:C:/Users/nace/OneDrive/Desktop/STM32/Projects_nace/NUCLEO_LL_Project_LCD/STM32_template_proj/Core/Src\stm32f1xx_it.c ****     _1_slow_10_fast_blink();
  24:C:/Users/nace/OneDrive/Desktop/STM32/Projects_nace/NUCLEO_LL_Project_LCD/STM32_template_proj/Core/Src\stm32f1xx_it.c ****   }
  25:C:/Users/nace/OneDrive/Desktop/STM32/Projects_nace/NUCLEO_LL_Project_LCD/STM32_template_proj/Core/Src\stm32f1xx_it.c ****   /* USER CODE END NonMaskableInt_IRQn 1 */
  26:C:/Users/nace/OneDrive/Desktop/STM32/Projects_nace/NUCLEO_LL_Project_LCD/STM32_template_proj/Core/Src\stm32f1xx_it.c **** }
  27:C:/Users/nace/OneDrive/Desktop/STM32/Projects_nace/NUCLEO_LL_Project_LCD/STM32_template_proj/Core/Src\stm32f1xx_it.c **** 
  28:C:/Users/nace/OneDrive/Desktop/STM32/Projects_nace/NUCLEO_LL_Project_LCD/STM32_template_proj/Core/Src\stm32f1xx_it.c **** /**
  29:C:/Users/nace/OneDrive/Desktop/STM32/Projects_nace/NUCLEO_LL_Project_LCD/STM32_template_proj/Core/Src\stm32f1xx_it.c ****  * @brief This function handles Hard fault interrupt.
  30:C:/Users/nace/OneDrive/Desktop/STM32/Projects_nace/NUCLEO_LL_Project_LCD/STM32_template_proj/Core/Src\stm32f1xx_it.c ****  */
  31:C:/Users/nace/OneDrive/Desktop/STM32/Projects_nace/NUCLEO_LL_Project_LCD/STM32_template_proj/Core/Src\stm32f1xx_it.c **** void HardFault_Handler(void)
  32:C:/Users/nace/OneDrive/Desktop/STM32/Projects_nace/NUCLEO_LL_Project_LCD/STM32_template_proj/Core/Src\stm32f1xx_it.c **** {
  27              		.loc 1 32 1 view -0
  28              		.cfi_startproc
  29              		@ Volatile: function does not return.
  30              		@ args = 0, pretend = 0, frame = 0
  31              		@ frame_needed = 0, uses_anonymous_args = 0
  32              		@ link register save eliminated.
  33              	.L2:
  33:C:/Users/nace/OneDrive/Desktop/STM32/Projects_nace/NUCLEO_LL_Project_LCD/STM32_template_proj/Core/Src\stm32f1xx_it.c ****   /* USER CODE BEGIN HardFault_IRQn 0 */
  34:C:/Users/nace/OneDrive/Desktop/STM32/Projects_nace/NUCLEO_LL_Project_LCD/STM32_template_proj/Core/Src\stm32f1xx_it.c **** 
  35:C:/Users/nace/OneDrive/Desktop/STM32/Projects_nace/NUCLEO_LL_Project_LCD/STM32_template_proj/Core/Src\stm32f1xx_it.c ****   /* USER CODE END HardFault_IRQn 0 */
  36:C:/Users/nace/OneDrive/Desktop/STM32/Projects_nace/NUCLEO_LL_Project_LCD/STM32_template_proj/Core/Src\stm32f1xx_it.c ****   while (1)
  34              		.loc 1 36 3 discriminator 1 view .LVU1
  37:C:/Users/nace/OneDrive/Desktop/STM32/Projects_nace/NUCLEO_LL_Project_LCD/STM32_template_proj/Core/Src\stm32f1xx_it.c ****   {
  38:C:/Users/nace/OneDrive/Desktop/STM32/Projects_nace/NUCLEO_LL_Project_LCD/STM32_template_proj/Core/Src\stm32f1xx_it.c ****     /* USER CODE BEGIN W1_HardFault_IRQn 0 */
  39:C:/Users/nace/OneDrive/Desktop/STM32/Projects_nace/NUCLEO_LL_Project_LCD/STM32_template_proj/Core/Src\stm32f1xx_it.c ****     /* USER CODE END W1_HardFault_IRQn 0 */
  40:C:/Users/nace/OneDrive/Desktop/STM32/Projects_nace/NUCLEO_LL_Project_LCD/STM32_template_proj/Core/Src\stm32f1xx_it.c ****   }
  35              		.loc 1 40 3 discriminator 1 view .LVU2
  36:C:/Users/nace/OneDrive/Desktop/STM32/Projects_nace/NUCLEO_LL_Project_LCD/STM32_template_proj/Core/Src\stm32f1xx_it.c ****   {
  36              		.loc 1 36 9 discriminator 1 view .LVU3
  37 0000 FEE7     		b	.L2
  38              		.cfi_endproc
  39              	.LFE705:
  41              		.section	.text.MemManage_Handler,"ax",%progbits
  42              		.align	1
  43              		.global	MemManage_Handler
  44              		.syntax unified
  45              		.thumb
  46              		.thumb_func
  48              	MemManage_Handler:
  49              	.LFB706:
  41:C:/Users/nace/OneDrive/Desktop/STM32/Projects_nace/NUCLEO_LL_Project_LCD/STM32_template_proj/Core/Src\stm32f1xx_it.c **** }
  42:C:/Users/nace/OneDrive/Desktop/STM32/Projects_nace/NUCLEO_LL_Project_LCD/STM32_template_proj/Core/Src\stm32f1xx_it.c **** 
  43:C:/Users/nace/OneDrive/Desktop/STM32/Projects_nace/NUCLEO_LL_Project_LCD/STM32_template_proj/Core/Src\stm32f1xx_it.c **** /**
  44:C:/Users/nace/OneDrive/Desktop/STM32/Projects_nace/NUCLEO_LL_Project_LCD/STM32_template_proj/Core/Src\stm32f1xx_it.c ****  * @brief This function handles Memory management fault.
  45:C:/Users/nace/OneDrive/Desktop/STM32/Projects_nace/NUCLEO_LL_Project_LCD/STM32_template_proj/Core/Src\stm32f1xx_it.c ****  */
  46:C:/Users/nace/OneDrive/Desktop/STM32/Projects_nace/NUCLEO_LL_Project_LCD/STM32_template_proj/Core/Src\stm32f1xx_it.c **** void MemManage_Handler(void)
  47:C:/Users/nace/OneDrive/Desktop/STM32/Projects_nace/NUCLEO_LL_Project_LCD/STM32_template_proj/Core/Src\stm32f1xx_it.c **** {
  50              		.loc 1 47 1 view -0
  51              		.cfi_startproc
  52              		@ Volatile: function does not return.
  53              		@ args = 0, pretend = 0, frame = 0
  54              		@ frame_needed = 0, uses_anonymous_args = 0
  55              		@ link register save eliminated.
  56              	.L4:
  48:C:/Users/nace/OneDrive/Desktop/STM32/Projects_nace/NUCLEO_LL_Project_LCD/STM32_template_proj/Core/Src\stm32f1xx_it.c ****   /* USER CODE BEGIN MemoryManagement_IRQn 0 */
  49:C:/Users/nace/OneDrive/Desktop/STM32/Projects_nace/NUCLEO_LL_Project_LCD/STM32_template_proj/Core/Src\stm32f1xx_it.c **** 
  50:C:/Users/nace/OneDrive/Desktop/STM32/Projects_nace/NUCLEO_LL_Project_LCD/STM32_template_proj/Core/Src\stm32f1xx_it.c ****   /* USER CODE END MemoryManagement_IRQn 0 */
  51:C:/Users/nace/OneDrive/Desktop/STM32/Projects_nace/NUCLEO_LL_Project_LCD/STM32_template_proj/Core/Src\stm32f1xx_it.c ****   while (1)
  57              		.loc 1 51 3 discriminator 1 view .LVU5
  52:C:/Users/nace/OneDrive/Desktop/STM32/Projects_nace/NUCLEO_LL_Project_LCD/STM32_template_proj/Core/Src\stm32f1xx_it.c ****   {
  53:C:/Users/nace/OneDrive/Desktop/STM32/Projects_nace/NUCLEO_LL_Project_LCD/STM32_template_proj/Core/Src\stm32f1xx_it.c ****     /* USER CODE BEGIN W1_MemoryManagement_IRQn 0 */
  54:C:/Users/nace/OneDrive/Desktop/STM32/Projects_nace/NUCLEO_LL_Project_LCD/STM32_template_proj/Core/Src\stm32f1xx_it.c ****     /* USER CODE END W1_MemoryManagement_IRQn 0 */
  55:C:/Users/nace/OneDrive/Desktop/STM32/Projects_nace/NUCLEO_LL_Project_LCD/STM32_template_proj/Core/Src\stm32f1xx_it.c ****   }
  58              		.loc 1 55 3 discriminator 1 view .LVU6
  51:C:/Users/nace/OneDrive/Desktop/STM32/Projects_nace/NUCLEO_LL_Project_LCD/STM32_template_proj/Core/Src\stm32f1xx_it.c ****   {
  59              		.loc 1 51 9 discriminator 1 view .LVU7
  60 0000 FEE7     		b	.L4
  61              		.cfi_endproc
  62              	.LFE706:
  64              		.section	.text.BusFault_Handler,"ax",%progbits
  65              		.align	1
  66              		.global	BusFault_Handler
  67              		.syntax unified
  68              		.thumb
  69              		.thumb_func
  71              	BusFault_Handler:
  72              	.LFB707:
  56:C:/Users/nace/OneDrive/Desktop/STM32/Projects_nace/NUCLEO_LL_Project_LCD/STM32_template_proj/Core/Src\stm32f1xx_it.c **** }
  57:C:/Users/nace/OneDrive/Desktop/STM32/Projects_nace/NUCLEO_LL_Project_LCD/STM32_template_proj/Core/Src\stm32f1xx_it.c **** 
  58:C:/Users/nace/OneDrive/Desktop/STM32/Projects_nace/NUCLEO_LL_Project_LCD/STM32_template_proj/Core/Src\stm32f1xx_it.c **** /**
  59:C:/Users/nace/OneDrive/Desktop/STM32/Projects_nace/NUCLEO_LL_Project_LCD/STM32_template_proj/Core/Src\stm32f1xx_it.c ****  * @brief This function handles Prefetch fault, memory access fault.
  60:C:/Users/nace/OneDrive/Desktop/STM32/Projects_nace/NUCLEO_LL_Project_LCD/STM32_template_proj/Core/Src\stm32f1xx_it.c ****  */
  61:C:/Users/nace/OneDrive/Desktop/STM32/Projects_nace/NUCLEO_LL_Project_LCD/STM32_template_proj/Core/Src\stm32f1xx_it.c **** void BusFault_Handler(void)
  62:C:/Users/nace/OneDrive/Desktop/STM32/Projects_nace/NUCLEO_LL_Project_LCD/STM32_template_proj/Core/Src\stm32f1xx_it.c **** {
  73              		.loc 1 62 1 view -0
  74              		.cfi_startproc
  75              		@ Volatile: function does not return.
  76              		@ args = 0, pretend = 0, frame = 0
  77              		@ frame_needed = 0, uses_anonymous_args = 0
  78              		@ link register save eliminated.
  79              	.L6:
  63:C:/Users/nace/OneDrive/Desktop/STM32/Projects_nace/NUCLEO_LL_Project_LCD/STM32_template_proj/Core/Src\stm32f1xx_it.c ****   /* USER CODE BEGIN BusFault_IRQn 0 */
  64:C:/Users/nace/OneDrive/Desktop/STM32/Projects_nace/NUCLEO_LL_Project_LCD/STM32_template_proj/Core/Src\stm32f1xx_it.c **** 
  65:C:/Users/nace/OneDrive/Desktop/STM32/Projects_nace/NUCLEO_LL_Project_LCD/STM32_template_proj/Core/Src\stm32f1xx_it.c ****   /* USER CODE END BusFault_IRQn 0 */
  66:C:/Users/nace/OneDrive/Desktop/STM32/Projects_nace/NUCLEO_LL_Project_LCD/STM32_template_proj/Core/Src\stm32f1xx_it.c ****   while (1)
  80              		.loc 1 66 3 discriminator 1 view .LVU9
  67:C:/Users/nace/OneDrive/Desktop/STM32/Projects_nace/NUCLEO_LL_Project_LCD/STM32_template_proj/Core/Src\stm32f1xx_it.c ****   {
  68:C:/Users/nace/OneDrive/Desktop/STM32/Projects_nace/NUCLEO_LL_Project_LCD/STM32_template_proj/Core/Src\stm32f1xx_it.c ****     /* USER CODE BEGIN W1_BusFault_IRQn 0 */
  69:C:/Users/nace/OneDrive/Desktop/STM32/Projects_nace/NUCLEO_LL_Project_LCD/STM32_template_proj/Core/Src\stm32f1xx_it.c ****     /* USER CODE END W1_BusFault_IRQn 0 */
  70:C:/Users/nace/OneDrive/Desktop/STM32/Projects_nace/NUCLEO_LL_Project_LCD/STM32_template_proj/Core/Src\stm32f1xx_it.c ****   }
  81              		.loc 1 70 3 discriminator 1 view .LVU10
  66:C:/Users/nace/OneDrive/Desktop/STM32/Projects_nace/NUCLEO_LL_Project_LCD/STM32_template_proj/Core/Src\stm32f1xx_it.c ****   {
  82              		.loc 1 66 9 discriminator 1 view .LVU11
  83 0000 FEE7     		b	.L6
  84              		.cfi_endproc
  85              	.LFE707:
  87              		.section	.text.UsageFault_Handler,"ax",%progbits
  88              		.align	1
  89              		.global	UsageFault_Handler
  90              		.syntax unified
  91              		.thumb
  92              		.thumb_func
  94              	UsageFault_Handler:
  95              	.LFB708:
  71:C:/Users/nace/OneDrive/Desktop/STM32/Projects_nace/NUCLEO_LL_Project_LCD/STM32_template_proj/Core/Src\stm32f1xx_it.c **** }
  72:C:/Users/nace/OneDrive/Desktop/STM32/Projects_nace/NUCLEO_LL_Project_LCD/STM32_template_proj/Core/Src\stm32f1xx_it.c **** 
  73:C:/Users/nace/OneDrive/Desktop/STM32/Projects_nace/NUCLEO_LL_Project_LCD/STM32_template_proj/Core/Src\stm32f1xx_it.c **** /**
  74:C:/Users/nace/OneDrive/Desktop/STM32/Projects_nace/NUCLEO_LL_Project_LCD/STM32_template_proj/Core/Src\stm32f1xx_it.c ****  * @brief This function handles Undefined instruction or illegal state.
  75:C:/Users/nace/OneDrive/Desktop/STM32/Projects_nace/NUCLEO_LL_Project_LCD/STM32_template_proj/Core/Src\stm32f1xx_it.c ****  */
  76:C:/Users/nace/OneDrive/Desktop/STM32/Projects_nace/NUCLEO_LL_Project_LCD/STM32_template_proj/Core/Src\stm32f1xx_it.c **** void UsageFault_Handler(void)
  77:C:/Users/nace/OneDrive/Desktop/STM32/Projects_nace/NUCLEO_LL_Project_LCD/STM32_template_proj/Core/Src\stm32f1xx_it.c **** {
  96              		.loc 1 77 1 view -0
  97              		.cfi_startproc
  98              		@ Volatile: function does not return.
  99              		@ args = 0, pretend = 0, frame = 0
 100              		@ frame_needed = 0, uses_anonymous_args = 0
 101              		@ link register save eliminated.
 102              	.L8:
  78:C:/Users/nace/OneDrive/Desktop/STM32/Projects_nace/NUCLEO_LL_Project_LCD/STM32_template_proj/Core/Src\stm32f1xx_it.c ****   /* USER CODE BEGIN UsageFault_IRQn 0 */
  79:C:/Users/nace/OneDrive/Desktop/STM32/Projects_nace/NUCLEO_LL_Project_LCD/STM32_template_proj/Core/Src\stm32f1xx_it.c **** 
  80:C:/Users/nace/OneDrive/Desktop/STM32/Projects_nace/NUCLEO_LL_Project_LCD/STM32_template_proj/Core/Src\stm32f1xx_it.c ****   /* USER CODE END UsageFault_IRQn 0 */
  81:C:/Users/nace/OneDrive/Desktop/STM32/Projects_nace/NUCLEO_LL_Project_LCD/STM32_template_proj/Core/Src\stm32f1xx_it.c ****   while (1)
 103              		.loc 1 81 3 discriminator 1 view .LVU13
  82:C:/Users/nace/OneDrive/Desktop/STM32/Projects_nace/NUCLEO_LL_Project_LCD/STM32_template_proj/Core/Src\stm32f1xx_it.c ****   {
  83:C:/Users/nace/OneDrive/Desktop/STM32/Projects_nace/NUCLEO_LL_Project_LCD/STM32_template_proj/Core/Src\stm32f1xx_it.c ****     /* USER CODE BEGIN W1_UsageFault_IRQn 0 */
  84:C:/Users/nace/OneDrive/Desktop/STM32/Projects_nace/NUCLEO_LL_Project_LCD/STM32_template_proj/Core/Src\stm32f1xx_it.c ****     /* USER CODE END W1_UsageFault_IRQn 0 */
  85:C:/Users/nace/OneDrive/Desktop/STM32/Projects_nace/NUCLEO_LL_Project_LCD/STM32_template_proj/Core/Src\stm32f1xx_it.c ****   }
 104              		.loc 1 85 3 discriminator 1 view .LVU14
  81:C:/Users/nace/OneDrive/Desktop/STM32/Projects_nace/NUCLEO_LL_Project_LCD/STM32_template_proj/Core/Src\stm32f1xx_it.c ****   {
 105              		.loc 1 81 9 discriminator 1 view .LVU15
 106 0000 FEE7     		b	.L8
 107              		.cfi_endproc
 108              	.LFE708:
 110              		.section	.text.SVC_Handler,"ax",%progbits
 111              		.align	1
 112              		.global	SVC_Handler
 113              		.syntax unified
 114              		.thumb
 115              		.thumb_func
 117              	SVC_Handler:
 118              	.LFB709:
  86:C:/Users/nace/OneDrive/Desktop/STM32/Projects_nace/NUCLEO_LL_Project_LCD/STM32_template_proj/Core/Src\stm32f1xx_it.c **** }
  87:C:/Users/nace/OneDrive/Desktop/STM32/Projects_nace/NUCLEO_LL_Project_LCD/STM32_template_proj/Core/Src\stm32f1xx_it.c **** 
  88:C:/Users/nace/OneDrive/Desktop/STM32/Projects_nace/NUCLEO_LL_Project_LCD/STM32_template_proj/Core/Src\stm32f1xx_it.c **** /**
  89:C:/Users/nace/OneDrive/Desktop/STM32/Projects_nace/NUCLEO_LL_Project_LCD/STM32_template_proj/Core/Src\stm32f1xx_it.c ****  * @brief This function handles System service call via SWI instruction.
  90:C:/Users/nace/OneDrive/Desktop/STM32/Projects_nace/NUCLEO_LL_Project_LCD/STM32_template_proj/Core/Src\stm32f1xx_it.c ****  */
  91:C:/Users/nace/OneDrive/Desktop/STM32/Projects_nace/NUCLEO_LL_Project_LCD/STM32_template_proj/Core/Src\stm32f1xx_it.c **** void SVC_Handler(void)
  92:C:/Users/nace/OneDrive/Desktop/STM32/Projects_nace/NUCLEO_LL_Project_LCD/STM32_template_proj/Core/Src\stm32f1xx_it.c **** {
 119              		.loc 1 92 1 view -0
 120              		.cfi_startproc
 121              		@ args = 0, pretend = 0, frame = 0
 122              		@ frame_needed = 0, uses_anonymous_args = 0
 123              		@ link register save eliminated.
  93:C:/Users/nace/OneDrive/Desktop/STM32/Projects_nace/NUCLEO_LL_Project_LCD/STM32_template_proj/Core/Src\stm32f1xx_it.c ****   /* USER CODE BEGIN SVCall_IRQn 0 */
  94:C:/Users/nace/OneDrive/Desktop/STM32/Projects_nace/NUCLEO_LL_Project_LCD/STM32_template_proj/Core/Src\stm32f1xx_it.c **** 
  95:C:/Users/nace/OneDrive/Desktop/STM32/Projects_nace/NUCLEO_LL_Project_LCD/STM32_template_proj/Core/Src\stm32f1xx_it.c ****   /* USER CODE END SVCall_IRQn 0 */
  96:C:/Users/nace/OneDrive/Desktop/STM32/Projects_nace/NUCLEO_LL_Project_LCD/STM32_template_proj/Core/Src\stm32f1xx_it.c ****   /* USER CODE BEGIN SVCall_IRQn 1 */
  97:C:/Users/nace/OneDrive/Desktop/STM32/Projects_nace/NUCLEO_LL_Project_LCD/STM32_template_proj/Core/Src\stm32f1xx_it.c **** 
  98:C:/Users/nace/OneDrive/Desktop/STM32/Projects_nace/NUCLEO_LL_Project_LCD/STM32_template_proj/Core/Src\stm32f1xx_it.c ****   /* USER CODE END SVCall_IRQn 1 */
  99:C:/Users/nace/OneDrive/Desktop/STM32/Projects_nace/NUCLEO_LL_Project_LCD/STM32_template_proj/Core/Src\stm32f1xx_it.c **** }
 124              		.loc 1 99 1 view .LVU17
 125 0000 7047     		bx	lr
 126              		.cfi_endproc
 127              	.LFE709:
 129              		.section	.text.DebugMon_Handler,"ax",%progbits
 130              		.align	1
 131              		.global	DebugMon_Handler
 132              		.syntax unified
 133              		.thumb
 134              		.thumb_func
 136              	DebugMon_Handler:
 137              	.LFB710:
 100:C:/Users/nace/OneDrive/Desktop/STM32/Projects_nace/NUCLEO_LL_Project_LCD/STM32_template_proj/Core/Src\stm32f1xx_it.c **** 
 101:C:/Users/nace/OneDrive/Desktop/STM32/Projects_nace/NUCLEO_LL_Project_LCD/STM32_template_proj/Core/Src\stm32f1xx_it.c **** /**
 102:C:/Users/nace/OneDrive/Desktop/STM32/Projects_nace/NUCLEO_LL_Project_LCD/STM32_template_proj/Core/Src\stm32f1xx_it.c ****  * @brief This function handles Debug monitor.
 103:C:/Users/nace/OneDrive/Desktop/STM32/Projects_nace/NUCLEO_LL_Project_LCD/STM32_template_proj/Core/Src\stm32f1xx_it.c ****  */
 104:C:/Users/nace/OneDrive/Desktop/STM32/Projects_nace/NUCLEO_LL_Project_LCD/STM32_template_proj/Core/Src\stm32f1xx_it.c **** void DebugMon_Handler(void)
 105:C:/Users/nace/OneDrive/Desktop/STM32/Projects_nace/NUCLEO_LL_Project_LCD/STM32_template_proj/Core/Src\stm32f1xx_it.c **** {
 138              		.loc 1 105 1 view -0
 139              		.cfi_startproc
 140              		@ args = 0, pretend = 0, frame = 0
 141              		@ frame_needed = 0, uses_anonymous_args = 0
 142              		@ link register save eliminated.
 106:C:/Users/nace/OneDrive/Desktop/STM32/Projects_nace/NUCLEO_LL_Project_LCD/STM32_template_proj/Core/Src\stm32f1xx_it.c ****   /* USER CODE BEGIN DebugMonitor_IRQn 0 */
 107:C:/Users/nace/OneDrive/Desktop/STM32/Projects_nace/NUCLEO_LL_Project_LCD/STM32_template_proj/Core/Src\stm32f1xx_it.c **** 
 108:C:/Users/nace/OneDrive/Desktop/STM32/Projects_nace/NUCLEO_LL_Project_LCD/STM32_template_proj/Core/Src\stm32f1xx_it.c ****   /* USER CODE END DebugMonitor_IRQn 0 */
 109:C:/Users/nace/OneDrive/Desktop/STM32/Projects_nace/NUCLEO_LL_Project_LCD/STM32_template_proj/Core/Src\stm32f1xx_it.c ****   /* USER CODE BEGIN DebugMonitor_IRQn 1 */
 110:C:/Users/nace/OneDrive/Desktop/STM32/Projects_nace/NUCLEO_LL_Project_LCD/STM32_template_proj/Core/Src\stm32f1xx_it.c **** 
 111:C:/Users/nace/OneDrive/Desktop/STM32/Projects_nace/NUCLEO_LL_Project_LCD/STM32_template_proj/Core/Src\stm32f1xx_it.c ****   /* USER CODE END DebugMonitor_IRQn 1 */
 112:C:/Users/nace/OneDrive/Desktop/STM32/Projects_nace/NUCLEO_LL_Project_LCD/STM32_template_proj/Core/Src\stm32f1xx_it.c **** }
 143              		.loc 1 112 1 view .LVU19
 144 0000 7047     		bx	lr
 145              		.cfi_endproc
 146              	.LFE710:
 148              		.section	.text.PendSV_Handler,"ax",%progbits
 149              		.align	1
 150              		.global	PendSV_Handler
 151              		.syntax unified
 152              		.thumb
 153              		.thumb_func
 155              	PendSV_Handler:
 156              	.LFB711:
 113:C:/Users/nace/OneDrive/Desktop/STM32/Projects_nace/NUCLEO_LL_Project_LCD/STM32_template_proj/Core/Src\stm32f1xx_it.c **** 
 114:C:/Users/nace/OneDrive/Desktop/STM32/Projects_nace/NUCLEO_LL_Project_LCD/STM32_template_proj/Core/Src\stm32f1xx_it.c **** /**
 115:C:/Users/nace/OneDrive/Desktop/STM32/Projects_nace/NUCLEO_LL_Project_LCD/STM32_template_proj/Core/Src\stm32f1xx_it.c ****  * @brief This function handles Pendable request for system service.
 116:C:/Users/nace/OneDrive/Desktop/STM32/Projects_nace/NUCLEO_LL_Project_LCD/STM32_template_proj/Core/Src\stm32f1xx_it.c ****  */
 117:C:/Users/nace/OneDrive/Desktop/STM32/Projects_nace/NUCLEO_LL_Project_LCD/STM32_template_proj/Core/Src\stm32f1xx_it.c **** void PendSV_Handler(void)
 118:C:/Users/nace/OneDrive/Desktop/STM32/Projects_nace/NUCLEO_LL_Project_LCD/STM32_template_proj/Core/Src\stm32f1xx_it.c **** {
 157              		.loc 1 118 1 view -0
 158              		.cfi_startproc
 159              		@ args = 0, pretend = 0, frame = 0
 160              		@ frame_needed = 0, uses_anonymous_args = 0
 161              		@ link register save eliminated.
 119:C:/Users/nace/OneDrive/Desktop/STM32/Projects_nace/NUCLEO_LL_Project_LCD/STM32_template_proj/Core/Src\stm32f1xx_it.c ****   /* USER CODE BEGIN PendSV_IRQn 0 */
 120:C:/Users/nace/OneDrive/Desktop/STM32/Projects_nace/NUCLEO_LL_Project_LCD/STM32_template_proj/Core/Src\stm32f1xx_it.c **** 
 121:C:/Users/nace/OneDrive/Desktop/STM32/Projects_nace/NUCLEO_LL_Project_LCD/STM32_template_proj/Core/Src\stm32f1xx_it.c ****   /* USER CODE END PendSV_IRQn 0 */
 122:C:/Users/nace/OneDrive/Desktop/STM32/Projects_nace/NUCLEO_LL_Project_LCD/STM32_template_proj/Core/Src\stm32f1xx_it.c ****   /* USER CODE BEGIN PendSV_IRQn 1 */
 123:C:/Users/nace/OneDrive/Desktop/STM32/Projects_nace/NUCLEO_LL_Project_LCD/STM32_template_proj/Core/Src\stm32f1xx_it.c **** 
 124:C:/Users/nace/OneDrive/Desktop/STM32/Projects_nace/NUCLEO_LL_Project_LCD/STM32_template_proj/Core/Src\stm32f1xx_it.c ****   /* USER CODE END PendSV_IRQn 1 */
 125:C:/Users/nace/OneDrive/Desktop/STM32/Projects_nace/NUCLEO_LL_Project_LCD/STM32_template_proj/Core/Src\stm32f1xx_it.c **** }
 162              		.loc 1 125 1 view .LVU21
 163 0000 7047     		bx	lr
 164              		.cfi_endproc
 165              	.LFE711:
 167              		.section	.text.SysTick_Handler,"ax",%progbits
 168              		.align	1
 169              		.global	SysTick_Handler
 170              		.syntax unified
 171              		.thumb
 172              		.thumb_func
 174              	SysTick_Handler:
 175              	.LFB712:
 126:C:/Users/nace/OneDrive/Desktop/STM32/Projects_nace/NUCLEO_LL_Project_LCD/STM32_template_proj/Core/Src\stm32f1xx_it.c **** 
 127:C:/Users/nace/OneDrive/Desktop/STM32/Projects_nace/NUCLEO_LL_Project_LCD/STM32_template_proj/Core/Src\stm32f1xx_it.c **** /**
 128:C:/Users/nace/OneDrive/Desktop/STM32/Projects_nace/NUCLEO_LL_Project_LCD/STM32_template_proj/Core/Src\stm32f1xx_it.c ****  * @brief This function handles System tick timer.
 129:C:/Users/nace/OneDrive/Desktop/STM32/Projects_nace/NUCLEO_LL_Project_LCD/STM32_template_proj/Core/Src\stm32f1xx_it.c ****  */
 130:C:/Users/nace/OneDrive/Desktop/STM32/Projects_nace/NUCLEO_LL_Project_LCD/STM32_template_proj/Core/Src\stm32f1xx_it.c **** void SysTick_Handler(void)
 131:C:/Users/nace/OneDrive/Desktop/STM32/Projects_nace/NUCLEO_LL_Project_LCD/STM32_template_proj/Core/Src\stm32f1xx_it.c **** {
 176              		.loc 1 131 1 view -0
 177              		.cfi_startproc
 178              		@ args = 0, pretend = 0, frame = 0
 179              		@ frame_needed = 0, uses_anonymous_args = 0
 180              		@ link register save eliminated.
 132:C:/Users/nace/OneDrive/Desktop/STM32/Projects_nace/NUCLEO_LL_Project_LCD/STM32_template_proj/Core/Src\stm32f1xx_it.c ****   /* USER CODE BEGIN SysTick_IRQn 0 */
 133:C:/Users/nace/OneDrive/Desktop/STM32/Projects_nace/NUCLEO_LL_Project_LCD/STM32_template_proj/Core/Src\stm32f1xx_it.c **** 
 134:C:/Users/nace/OneDrive/Desktop/STM32/Projects_nace/NUCLEO_LL_Project_LCD/STM32_template_proj/Core/Src\stm32f1xx_it.c ****   /* USER CODE END SysTick_IRQn 0 */
 135:C:/Users/nace/OneDrive/Desktop/STM32/Projects_nace/NUCLEO_LL_Project_LCD/STM32_template_proj/Core/Src\stm32f1xx_it.c **** 
 136:C:/Users/nace/OneDrive/Desktop/STM32/Projects_nace/NUCLEO_LL_Project_LCD/STM32_template_proj/Core/Src\stm32f1xx_it.c ****   /* USER CODE BEGIN SysTick_IRQn 1 */
 137:C:/Users/nace/OneDrive/Desktop/STM32/Projects_nace/NUCLEO_LL_Project_LCD/STM32_template_proj/Core/Src\stm32f1xx_it.c **** 
 138:C:/Users/nace/OneDrive/Desktop/STM32/Projects_nace/NUCLEO_LL_Project_LCD/STM32_template_proj/Core/Src\stm32f1xx_it.c ****   /* USER CODE END SysTick_IRQn 1 */
 139:C:/Users/nace/OneDrive/Desktop/STM32/Projects_nace/NUCLEO_LL_Project_LCD/STM32_template_proj/Core/Src\stm32f1xx_it.c **** }
 181              		.loc 1 139 1 view .LVU23
 182 0000 7047     		bx	lr
 183              		.cfi_endproc
 184              	.LFE712:
 186              		.section	.text.EXTI15_10_IRQHandler,"ax",%progbits
 187              		.align	1
 188              		.global	EXTI15_10_IRQHandler
 189              		.syntax unified
 190              		.thumb
 191              		.thumb_func
 193              	EXTI15_10_IRQHandler:
 194              	.LFB713:
 140:C:/Users/nace/OneDrive/Desktop/STM32/Projects_nace/NUCLEO_LL_Project_LCD/STM32_template_proj/Core/Src\stm32f1xx_it.c **** 
 141:C:/Users/nace/OneDrive/Desktop/STM32/Projects_nace/NUCLEO_LL_Project_LCD/STM32_template_proj/Core/Src\stm32f1xx_it.c **** /******************************************************************************/
 142:C:/Users/nace/OneDrive/Desktop/STM32/Projects_nace/NUCLEO_LL_Project_LCD/STM32_template_proj/Core/Src\stm32f1xx_it.c **** /* STM32F1xx Peripheral Interrupt Handlers                                    */
 143:C:/Users/nace/OneDrive/Desktop/STM32/Projects_nace/NUCLEO_LL_Project_LCD/STM32_template_proj/Core/Src\stm32f1xx_it.c **** /* Add here the Interrupt Handlers for the used peripherals.                  */
 144:C:/Users/nace/OneDrive/Desktop/STM32/Projects_nace/NUCLEO_LL_Project_LCD/STM32_template_proj/Core/Src\stm32f1xx_it.c **** /* For the available peripheral interrupt handler names,                      */
 145:C:/Users/nace/OneDrive/Desktop/STM32/Projects_nace/NUCLEO_LL_Project_LCD/STM32_template_proj/Core/Src\stm32f1xx_it.c **** /* please refer to the startup file (startup_stm32f1xx.s).                    */
 146:C:/Users/nace/OneDrive/Desktop/STM32/Projects_nace/NUCLEO_LL_Project_LCD/STM32_template_proj/Core/Src\stm32f1xx_it.c **** /******************************************************************************/
 147:C:/Users/nace/OneDrive/Desktop/STM32/Projects_nace/NUCLEO_LL_Project_LCD/STM32_template_proj/Core/Src\stm32f1xx_it.c **** 
 148:C:/Users/nace/OneDrive/Desktop/STM32/Projects_nace/NUCLEO_LL_Project_LCD/STM32_template_proj/Core/Src\stm32f1xx_it.c **** /**
 149:C:/Users/nace/OneDrive/Desktop/STM32/Projects_nace/NUCLEO_LL_Project_LCD/STM32_template_proj/Core/Src\stm32f1xx_it.c ****  * @brief This function handles EXTI line[15:10] interrupts.
 150:C:/Users/nace/OneDrive/Desktop/STM32/Projects_nace/NUCLEO_LL_Project_LCD/STM32_template_proj/Core/Src\stm32f1xx_it.c ****  */
 151:C:/Users/nace/OneDrive/Desktop/STM32/Projects_nace/NUCLEO_LL_Project_LCD/STM32_template_proj/Core/Src\stm32f1xx_it.c **** void EXTI15_10_IRQHandler(void)
 152:C:/Users/nace/OneDrive/Desktop/STM32/Projects_nace/NUCLEO_LL_Project_LCD/STM32_template_proj/Core/Src\stm32f1xx_it.c **** {
 195              		.loc 1 152 1 view -0
 196              		.cfi_startproc
 197              		@ args = 0, pretend = 0, frame = 0
 198              		@ frame_needed = 0, uses_anonymous_args = 0
 199              		@ link register save eliminated.
 153:C:/Users/nace/OneDrive/Desktop/STM32/Projects_nace/NUCLEO_LL_Project_LCD/STM32_template_proj/Core/Src\stm32f1xx_it.c ****   /* USER CODE BEGIN EXTI15_10_IRQn 0 */
 154:C:/Users/nace/OneDrive/Desktop/STM32/Projects_nace/NUCLEO_LL_Project_LCD/STM32_template_proj/Core/Src\stm32f1xx_it.c **** 
 155:C:/Users/nace/OneDrive/Desktop/STM32/Projects_nace/NUCLEO_LL_Project_LCD/STM32_template_proj/Core/Src\stm32f1xx_it.c ****   /* USER CODE END EXTI15_10_IRQn 0 */
 156:C:/Users/nace/OneDrive/Desktop/STM32/Projects_nace/NUCLEO_LL_Project_LCD/STM32_template_proj/Core/Src\stm32f1xx_it.c ****   if (LL_EXTI_IsActiveFlag_0_31(LL_EXTI_LINE_13) != RESET)
 200              		.loc 1 156 3 view .LVU25
 201              	.LVL0:
 202              	.LBB42:
 203              	.LBI42:
 204              		.file 2 "C:/Users/nace/OneDrive/Desktop/STM32/Projects_nace/NUCLEO_LL_Project_LCD/STM32_template_p
   1:C:/Users/nace/OneDrive/Desktop/STM32/Projects_nace/NUCLEO_LL_Project_LCD/STM32_template_proj/Drivers/STM32F1xx_HAL_Driver/Inc\stm32f1xx_ll_exti.h **** /**
   2:C:/Users/nace/OneDrive/Desktop/STM32/Projects_nace/NUCLEO_LL_Project_LCD/STM32_template_proj/Drivers/STM32F1xx_HAL_Driver/Inc\stm32f1xx_ll_exti.h ****   ******************************************************************************
   3:C:/Users/nace/OneDrive/Desktop/STM32/Projects_nace/NUCLEO_LL_Project_LCD/STM32_template_proj/Drivers/STM32F1xx_HAL_Driver/Inc\stm32f1xx_ll_exti.h ****   * @file    stm32f1xx_ll_exti.h
   4:C:/Users/nace/OneDrive/Desktop/STM32/Projects_nace/NUCLEO_LL_Project_LCD/STM32_template_proj/Drivers/STM32F1xx_HAL_Driver/Inc\stm32f1xx_ll_exti.h ****   * @author  MCD Application Team
   5:C:/Users/nace/OneDrive/Desktop/STM32/Projects_nace/NUCLEO_LL_Project_LCD/STM32_template_proj/Drivers/STM32F1xx_HAL_Driver/Inc\stm32f1xx_ll_exti.h ****   * @brief   Header file of EXTI LL module.
   6:C:/Users/nace/OneDrive/Desktop/STM32/Projects_nace/NUCLEO_LL_Project_LCD/STM32_template_proj/Drivers/STM32F1xx_HAL_Driver/Inc\stm32f1xx_ll_exti.h ****   ******************************************************************************
   7:C:/Users/nace/OneDrive/Desktop/STM32/Projects_nace/NUCLEO_LL_Project_LCD/STM32_template_proj/Drivers/STM32F1xx_HAL_Driver/Inc\stm32f1xx_ll_exti.h ****   * @attention
   8:C:/Users/nace/OneDrive/Desktop/STM32/Projects_nace/NUCLEO_LL_Project_LCD/STM32_template_proj/Drivers/STM32F1xx_HAL_Driver/Inc\stm32f1xx_ll_exti.h ****   *
   9:C:/Users/nace/OneDrive/Desktop/STM32/Projects_nace/NUCLEO_LL_Project_LCD/STM32_template_proj/Drivers/STM32F1xx_HAL_Driver/Inc\stm32f1xx_ll_exti.h ****   * Copyright (c) 2016 STMicroelectronics.
  10:C:/Users/nace/OneDrive/Desktop/STM32/Projects_nace/NUCLEO_LL_Project_LCD/STM32_template_proj/Drivers/STM32F1xx_HAL_Driver/Inc\stm32f1xx_ll_exti.h ****   * All rights reserved.
  11:C:/Users/nace/OneDrive/Desktop/STM32/Projects_nace/NUCLEO_LL_Project_LCD/STM32_template_proj/Drivers/STM32F1xx_HAL_Driver/Inc\stm32f1xx_ll_exti.h ****   *
  12:C:/Users/nace/OneDrive/Desktop/STM32/Projects_nace/NUCLEO_LL_Project_LCD/STM32_template_proj/Drivers/STM32F1xx_HAL_Driver/Inc\stm32f1xx_ll_exti.h ****   * This software is licensed under terms that can be found in the LICENSE file
  13:C:/Users/nace/OneDrive/Desktop/STM32/Projects_nace/NUCLEO_LL_Project_LCD/STM32_template_proj/Drivers/STM32F1xx_HAL_Driver/Inc\stm32f1xx_ll_exti.h ****   * in the root directory of this software component.
  14:C:/Users/nace/OneDrive/Desktop/STM32/Projects_nace/NUCLEO_LL_Project_LCD/STM32_template_proj/Drivers/STM32F1xx_HAL_Driver/Inc\stm32f1xx_ll_exti.h ****   * If no LICENSE file comes with this software, it is provided AS-IS.
  15:C:/Users/nace/OneDrive/Desktop/STM32/Projects_nace/NUCLEO_LL_Project_LCD/STM32_template_proj/Drivers/STM32F1xx_HAL_Driver/Inc\stm32f1xx_ll_exti.h ****   *
  16:C:/Users/nace/OneDrive/Desktop/STM32/Projects_nace/NUCLEO_LL_Project_LCD/STM32_template_proj/Drivers/STM32F1xx_HAL_Driver/Inc\stm32f1xx_ll_exti.h ****   ******************************************************************************
  17:C:/Users/nace/OneDrive/Desktop/STM32/Projects_nace/NUCLEO_LL_Project_LCD/STM32_template_proj/Drivers/STM32F1xx_HAL_Driver/Inc\stm32f1xx_ll_exti.h ****   */
  18:C:/Users/nace/OneDrive/Desktop/STM32/Projects_nace/NUCLEO_LL_Project_LCD/STM32_template_proj/Drivers/STM32F1xx_HAL_Driver/Inc\stm32f1xx_ll_exti.h **** 
  19:C:/Users/nace/OneDrive/Desktop/STM32/Projects_nace/NUCLEO_LL_Project_LCD/STM32_template_proj/Drivers/STM32F1xx_HAL_Driver/Inc\stm32f1xx_ll_exti.h **** /* Define to prevent recursive inclusion -------------------------------------*/
  20:C:/Users/nace/OneDrive/Desktop/STM32/Projects_nace/NUCLEO_LL_Project_LCD/STM32_template_proj/Drivers/STM32F1xx_HAL_Driver/Inc\stm32f1xx_ll_exti.h **** #ifndef STM32F1xx_LL_EXTI_H
  21:C:/Users/nace/OneDrive/Desktop/STM32/Projects_nace/NUCLEO_LL_Project_LCD/STM32_template_proj/Drivers/STM32F1xx_HAL_Driver/Inc\stm32f1xx_ll_exti.h **** #define STM32F1xx_LL_EXTI_H
  22:C:/Users/nace/OneDrive/Desktop/STM32/Projects_nace/NUCLEO_LL_Project_LCD/STM32_template_proj/Drivers/STM32F1xx_HAL_Driver/Inc\stm32f1xx_ll_exti.h **** 
  23:C:/Users/nace/OneDrive/Desktop/STM32/Projects_nace/NUCLEO_LL_Project_LCD/STM32_template_proj/Drivers/STM32F1xx_HAL_Driver/Inc\stm32f1xx_ll_exti.h **** #ifdef __cplusplus
  24:C:/Users/nace/OneDrive/Desktop/STM32/Projects_nace/NUCLEO_LL_Project_LCD/STM32_template_proj/Drivers/STM32F1xx_HAL_Driver/Inc\stm32f1xx_ll_exti.h **** extern "C" {
  25:C:/Users/nace/OneDrive/Desktop/STM32/Projects_nace/NUCLEO_LL_Project_LCD/STM32_template_proj/Drivers/STM32F1xx_HAL_Driver/Inc\stm32f1xx_ll_exti.h **** #endif
  26:C:/Users/nace/OneDrive/Desktop/STM32/Projects_nace/NUCLEO_LL_Project_LCD/STM32_template_proj/Drivers/STM32F1xx_HAL_Driver/Inc\stm32f1xx_ll_exti.h **** 
  27:C:/Users/nace/OneDrive/Desktop/STM32/Projects_nace/NUCLEO_LL_Project_LCD/STM32_template_proj/Drivers/STM32F1xx_HAL_Driver/Inc\stm32f1xx_ll_exti.h **** /* Includes ------------------------------------------------------------------*/
  28:C:/Users/nace/OneDrive/Desktop/STM32/Projects_nace/NUCLEO_LL_Project_LCD/STM32_template_proj/Drivers/STM32F1xx_HAL_Driver/Inc\stm32f1xx_ll_exti.h **** #include "stm32f1xx.h"
  29:C:/Users/nace/OneDrive/Desktop/STM32/Projects_nace/NUCLEO_LL_Project_LCD/STM32_template_proj/Drivers/STM32F1xx_HAL_Driver/Inc\stm32f1xx_ll_exti.h **** 
  30:C:/Users/nace/OneDrive/Desktop/STM32/Projects_nace/NUCLEO_LL_Project_LCD/STM32_template_proj/Drivers/STM32F1xx_HAL_Driver/Inc\stm32f1xx_ll_exti.h **** /** @addtogroup STM32F1xx_LL_Driver
  31:C:/Users/nace/OneDrive/Desktop/STM32/Projects_nace/NUCLEO_LL_Project_LCD/STM32_template_proj/Drivers/STM32F1xx_HAL_Driver/Inc\stm32f1xx_ll_exti.h ****   * @{
  32:C:/Users/nace/OneDrive/Desktop/STM32/Projects_nace/NUCLEO_LL_Project_LCD/STM32_template_proj/Drivers/STM32F1xx_HAL_Driver/Inc\stm32f1xx_ll_exti.h ****   */
  33:C:/Users/nace/OneDrive/Desktop/STM32/Projects_nace/NUCLEO_LL_Project_LCD/STM32_template_proj/Drivers/STM32F1xx_HAL_Driver/Inc\stm32f1xx_ll_exti.h **** 
  34:C:/Users/nace/OneDrive/Desktop/STM32/Projects_nace/NUCLEO_LL_Project_LCD/STM32_template_proj/Drivers/STM32F1xx_HAL_Driver/Inc\stm32f1xx_ll_exti.h **** #if defined (EXTI)
  35:C:/Users/nace/OneDrive/Desktop/STM32/Projects_nace/NUCLEO_LL_Project_LCD/STM32_template_proj/Drivers/STM32F1xx_HAL_Driver/Inc\stm32f1xx_ll_exti.h **** 
  36:C:/Users/nace/OneDrive/Desktop/STM32/Projects_nace/NUCLEO_LL_Project_LCD/STM32_template_proj/Drivers/STM32F1xx_HAL_Driver/Inc\stm32f1xx_ll_exti.h **** /** @defgroup EXTI_LL EXTI
  37:C:/Users/nace/OneDrive/Desktop/STM32/Projects_nace/NUCLEO_LL_Project_LCD/STM32_template_proj/Drivers/STM32F1xx_HAL_Driver/Inc\stm32f1xx_ll_exti.h ****   * @{
  38:C:/Users/nace/OneDrive/Desktop/STM32/Projects_nace/NUCLEO_LL_Project_LCD/STM32_template_proj/Drivers/STM32F1xx_HAL_Driver/Inc\stm32f1xx_ll_exti.h ****   */
  39:C:/Users/nace/OneDrive/Desktop/STM32/Projects_nace/NUCLEO_LL_Project_LCD/STM32_template_proj/Drivers/STM32F1xx_HAL_Driver/Inc\stm32f1xx_ll_exti.h **** 
  40:C:/Users/nace/OneDrive/Desktop/STM32/Projects_nace/NUCLEO_LL_Project_LCD/STM32_template_proj/Drivers/STM32F1xx_HAL_Driver/Inc\stm32f1xx_ll_exti.h **** /* Private types -------------------------------------------------------------*/
  41:C:/Users/nace/OneDrive/Desktop/STM32/Projects_nace/NUCLEO_LL_Project_LCD/STM32_template_proj/Drivers/STM32F1xx_HAL_Driver/Inc\stm32f1xx_ll_exti.h **** /* Private variables ---------------------------------------------------------*/
  42:C:/Users/nace/OneDrive/Desktop/STM32/Projects_nace/NUCLEO_LL_Project_LCD/STM32_template_proj/Drivers/STM32F1xx_HAL_Driver/Inc\stm32f1xx_ll_exti.h **** /* Private constants ---------------------------------------------------------*/
  43:C:/Users/nace/OneDrive/Desktop/STM32/Projects_nace/NUCLEO_LL_Project_LCD/STM32_template_proj/Drivers/STM32F1xx_HAL_Driver/Inc\stm32f1xx_ll_exti.h **** /* Private Macros ------------------------------------------------------------*/
  44:C:/Users/nace/OneDrive/Desktop/STM32/Projects_nace/NUCLEO_LL_Project_LCD/STM32_template_proj/Drivers/STM32F1xx_HAL_Driver/Inc\stm32f1xx_ll_exti.h **** #if defined(USE_FULL_LL_DRIVER)
  45:C:/Users/nace/OneDrive/Desktop/STM32/Projects_nace/NUCLEO_LL_Project_LCD/STM32_template_proj/Drivers/STM32F1xx_HAL_Driver/Inc\stm32f1xx_ll_exti.h **** /** @defgroup EXTI_LL_Private_Macros EXTI Private Macros
  46:C:/Users/nace/OneDrive/Desktop/STM32/Projects_nace/NUCLEO_LL_Project_LCD/STM32_template_proj/Drivers/STM32F1xx_HAL_Driver/Inc\stm32f1xx_ll_exti.h ****   * @{
  47:C:/Users/nace/OneDrive/Desktop/STM32/Projects_nace/NUCLEO_LL_Project_LCD/STM32_template_proj/Drivers/STM32F1xx_HAL_Driver/Inc\stm32f1xx_ll_exti.h ****   */
  48:C:/Users/nace/OneDrive/Desktop/STM32/Projects_nace/NUCLEO_LL_Project_LCD/STM32_template_proj/Drivers/STM32F1xx_HAL_Driver/Inc\stm32f1xx_ll_exti.h **** /**
  49:C:/Users/nace/OneDrive/Desktop/STM32/Projects_nace/NUCLEO_LL_Project_LCD/STM32_template_proj/Drivers/STM32F1xx_HAL_Driver/Inc\stm32f1xx_ll_exti.h ****   * @}
  50:C:/Users/nace/OneDrive/Desktop/STM32/Projects_nace/NUCLEO_LL_Project_LCD/STM32_template_proj/Drivers/STM32F1xx_HAL_Driver/Inc\stm32f1xx_ll_exti.h ****   */
  51:C:/Users/nace/OneDrive/Desktop/STM32/Projects_nace/NUCLEO_LL_Project_LCD/STM32_template_proj/Drivers/STM32F1xx_HAL_Driver/Inc\stm32f1xx_ll_exti.h **** #endif /*USE_FULL_LL_DRIVER*/
  52:C:/Users/nace/OneDrive/Desktop/STM32/Projects_nace/NUCLEO_LL_Project_LCD/STM32_template_proj/Drivers/STM32F1xx_HAL_Driver/Inc\stm32f1xx_ll_exti.h **** /* Exported types ------------------------------------------------------------*/
  53:C:/Users/nace/OneDrive/Desktop/STM32/Projects_nace/NUCLEO_LL_Project_LCD/STM32_template_proj/Drivers/STM32F1xx_HAL_Driver/Inc\stm32f1xx_ll_exti.h **** #if defined(USE_FULL_LL_DRIVER)
  54:C:/Users/nace/OneDrive/Desktop/STM32/Projects_nace/NUCLEO_LL_Project_LCD/STM32_template_proj/Drivers/STM32F1xx_HAL_Driver/Inc\stm32f1xx_ll_exti.h **** /** @defgroup EXTI_LL_ES_INIT EXTI Exported Init structure
  55:C:/Users/nace/OneDrive/Desktop/STM32/Projects_nace/NUCLEO_LL_Project_LCD/STM32_template_proj/Drivers/STM32F1xx_HAL_Driver/Inc\stm32f1xx_ll_exti.h ****   * @{
  56:C:/Users/nace/OneDrive/Desktop/STM32/Projects_nace/NUCLEO_LL_Project_LCD/STM32_template_proj/Drivers/STM32F1xx_HAL_Driver/Inc\stm32f1xx_ll_exti.h ****   */
  57:C:/Users/nace/OneDrive/Desktop/STM32/Projects_nace/NUCLEO_LL_Project_LCD/STM32_template_proj/Drivers/STM32F1xx_HAL_Driver/Inc\stm32f1xx_ll_exti.h **** typedef struct
  58:C:/Users/nace/OneDrive/Desktop/STM32/Projects_nace/NUCLEO_LL_Project_LCD/STM32_template_proj/Drivers/STM32F1xx_HAL_Driver/Inc\stm32f1xx_ll_exti.h **** {
  59:C:/Users/nace/OneDrive/Desktop/STM32/Projects_nace/NUCLEO_LL_Project_LCD/STM32_template_proj/Drivers/STM32F1xx_HAL_Driver/Inc\stm32f1xx_ll_exti.h **** 
  60:C:/Users/nace/OneDrive/Desktop/STM32/Projects_nace/NUCLEO_LL_Project_LCD/STM32_template_proj/Drivers/STM32F1xx_HAL_Driver/Inc\stm32f1xx_ll_exti.h ****   uint32_t Line_0_31;           /*!< Specifies the EXTI lines to be enabled or disabled for Lines i
  61:C:/Users/nace/OneDrive/Desktop/STM32/Projects_nace/NUCLEO_LL_Project_LCD/STM32_template_proj/Drivers/STM32F1xx_HAL_Driver/Inc\stm32f1xx_ll_exti.h ****                                      This parameter can be any combination of @ref EXTI_LL_EC_LINE 
  62:C:/Users/nace/OneDrive/Desktop/STM32/Projects_nace/NUCLEO_LL_Project_LCD/STM32_template_proj/Drivers/STM32F1xx_HAL_Driver/Inc\stm32f1xx_ll_exti.h **** 
  63:C:/Users/nace/OneDrive/Desktop/STM32/Projects_nace/NUCLEO_LL_Project_LCD/STM32_template_proj/Drivers/STM32F1xx_HAL_Driver/Inc\stm32f1xx_ll_exti.h ****   FunctionalState LineCommand;  /*!< Specifies the new state of the selected EXTI lines.
  64:C:/Users/nace/OneDrive/Desktop/STM32/Projects_nace/NUCLEO_LL_Project_LCD/STM32_template_proj/Drivers/STM32F1xx_HAL_Driver/Inc\stm32f1xx_ll_exti.h ****                                      This parameter can be set either to ENABLE or DISABLE */
  65:C:/Users/nace/OneDrive/Desktop/STM32/Projects_nace/NUCLEO_LL_Project_LCD/STM32_template_proj/Drivers/STM32F1xx_HAL_Driver/Inc\stm32f1xx_ll_exti.h **** 
  66:C:/Users/nace/OneDrive/Desktop/STM32/Projects_nace/NUCLEO_LL_Project_LCD/STM32_template_proj/Drivers/STM32F1xx_HAL_Driver/Inc\stm32f1xx_ll_exti.h ****   uint8_t Mode;                 /*!< Specifies the mode for the EXTI lines.
  67:C:/Users/nace/OneDrive/Desktop/STM32/Projects_nace/NUCLEO_LL_Project_LCD/STM32_template_proj/Drivers/STM32F1xx_HAL_Driver/Inc\stm32f1xx_ll_exti.h ****                                      This parameter can be a value of @ref EXTI_LL_EC_MODE. */
  68:C:/Users/nace/OneDrive/Desktop/STM32/Projects_nace/NUCLEO_LL_Project_LCD/STM32_template_proj/Drivers/STM32F1xx_HAL_Driver/Inc\stm32f1xx_ll_exti.h **** 
  69:C:/Users/nace/OneDrive/Desktop/STM32/Projects_nace/NUCLEO_LL_Project_LCD/STM32_template_proj/Drivers/STM32F1xx_HAL_Driver/Inc\stm32f1xx_ll_exti.h ****   uint8_t Trigger;              /*!< Specifies the trigger signal active edge for the EXTI lines.
  70:C:/Users/nace/OneDrive/Desktop/STM32/Projects_nace/NUCLEO_LL_Project_LCD/STM32_template_proj/Drivers/STM32F1xx_HAL_Driver/Inc\stm32f1xx_ll_exti.h ****                                      This parameter can be a value of @ref EXTI_LL_EC_TRIGGER. */
  71:C:/Users/nace/OneDrive/Desktop/STM32/Projects_nace/NUCLEO_LL_Project_LCD/STM32_template_proj/Drivers/STM32F1xx_HAL_Driver/Inc\stm32f1xx_ll_exti.h **** } LL_EXTI_InitTypeDef;
  72:C:/Users/nace/OneDrive/Desktop/STM32/Projects_nace/NUCLEO_LL_Project_LCD/STM32_template_proj/Drivers/STM32F1xx_HAL_Driver/Inc\stm32f1xx_ll_exti.h **** 
  73:C:/Users/nace/OneDrive/Desktop/STM32/Projects_nace/NUCLEO_LL_Project_LCD/STM32_template_proj/Drivers/STM32F1xx_HAL_Driver/Inc\stm32f1xx_ll_exti.h **** /**
  74:C:/Users/nace/OneDrive/Desktop/STM32/Projects_nace/NUCLEO_LL_Project_LCD/STM32_template_proj/Drivers/STM32F1xx_HAL_Driver/Inc\stm32f1xx_ll_exti.h ****   * @}
  75:C:/Users/nace/OneDrive/Desktop/STM32/Projects_nace/NUCLEO_LL_Project_LCD/STM32_template_proj/Drivers/STM32F1xx_HAL_Driver/Inc\stm32f1xx_ll_exti.h ****   */
  76:C:/Users/nace/OneDrive/Desktop/STM32/Projects_nace/NUCLEO_LL_Project_LCD/STM32_template_proj/Drivers/STM32F1xx_HAL_Driver/Inc\stm32f1xx_ll_exti.h **** #endif /*USE_FULL_LL_DRIVER*/
  77:C:/Users/nace/OneDrive/Desktop/STM32/Projects_nace/NUCLEO_LL_Project_LCD/STM32_template_proj/Drivers/STM32F1xx_HAL_Driver/Inc\stm32f1xx_ll_exti.h **** 
  78:C:/Users/nace/OneDrive/Desktop/STM32/Projects_nace/NUCLEO_LL_Project_LCD/STM32_template_proj/Drivers/STM32F1xx_HAL_Driver/Inc\stm32f1xx_ll_exti.h **** /* Exported constants --------------------------------------------------------*/
  79:C:/Users/nace/OneDrive/Desktop/STM32/Projects_nace/NUCLEO_LL_Project_LCD/STM32_template_proj/Drivers/STM32F1xx_HAL_Driver/Inc\stm32f1xx_ll_exti.h **** /** @defgroup EXTI_LL_Exported_Constants EXTI Exported Constants
  80:C:/Users/nace/OneDrive/Desktop/STM32/Projects_nace/NUCLEO_LL_Project_LCD/STM32_template_proj/Drivers/STM32F1xx_HAL_Driver/Inc\stm32f1xx_ll_exti.h ****   * @{
  81:C:/Users/nace/OneDrive/Desktop/STM32/Projects_nace/NUCLEO_LL_Project_LCD/STM32_template_proj/Drivers/STM32F1xx_HAL_Driver/Inc\stm32f1xx_ll_exti.h ****   */
  82:C:/Users/nace/OneDrive/Desktop/STM32/Projects_nace/NUCLEO_LL_Project_LCD/STM32_template_proj/Drivers/STM32F1xx_HAL_Driver/Inc\stm32f1xx_ll_exti.h **** 
  83:C:/Users/nace/OneDrive/Desktop/STM32/Projects_nace/NUCLEO_LL_Project_LCD/STM32_template_proj/Drivers/STM32F1xx_HAL_Driver/Inc\stm32f1xx_ll_exti.h **** /** @defgroup EXTI_LL_EC_LINE LINE
  84:C:/Users/nace/OneDrive/Desktop/STM32/Projects_nace/NUCLEO_LL_Project_LCD/STM32_template_proj/Drivers/STM32F1xx_HAL_Driver/Inc\stm32f1xx_ll_exti.h ****   * @{
  85:C:/Users/nace/OneDrive/Desktop/STM32/Projects_nace/NUCLEO_LL_Project_LCD/STM32_template_proj/Drivers/STM32F1xx_HAL_Driver/Inc\stm32f1xx_ll_exti.h ****   */
  86:C:/Users/nace/OneDrive/Desktop/STM32/Projects_nace/NUCLEO_LL_Project_LCD/STM32_template_proj/Drivers/STM32F1xx_HAL_Driver/Inc\stm32f1xx_ll_exti.h **** #define LL_EXTI_LINE_0                 EXTI_IMR_IM0           /*!< Extended line 0 */
  87:C:/Users/nace/OneDrive/Desktop/STM32/Projects_nace/NUCLEO_LL_Project_LCD/STM32_template_proj/Drivers/STM32F1xx_HAL_Driver/Inc\stm32f1xx_ll_exti.h **** #define LL_EXTI_LINE_1                 EXTI_IMR_IM1           /*!< Extended line 1 */
  88:C:/Users/nace/OneDrive/Desktop/STM32/Projects_nace/NUCLEO_LL_Project_LCD/STM32_template_proj/Drivers/STM32F1xx_HAL_Driver/Inc\stm32f1xx_ll_exti.h **** #define LL_EXTI_LINE_2                 EXTI_IMR_IM2           /*!< Extended line 2 */
  89:C:/Users/nace/OneDrive/Desktop/STM32/Projects_nace/NUCLEO_LL_Project_LCD/STM32_template_proj/Drivers/STM32F1xx_HAL_Driver/Inc\stm32f1xx_ll_exti.h **** #define LL_EXTI_LINE_3                 EXTI_IMR_IM3           /*!< Extended line 3 */
  90:C:/Users/nace/OneDrive/Desktop/STM32/Projects_nace/NUCLEO_LL_Project_LCD/STM32_template_proj/Drivers/STM32F1xx_HAL_Driver/Inc\stm32f1xx_ll_exti.h **** #define LL_EXTI_LINE_4                 EXTI_IMR_IM4           /*!< Extended line 4 */
  91:C:/Users/nace/OneDrive/Desktop/STM32/Projects_nace/NUCLEO_LL_Project_LCD/STM32_template_proj/Drivers/STM32F1xx_HAL_Driver/Inc\stm32f1xx_ll_exti.h **** #define LL_EXTI_LINE_5                 EXTI_IMR_IM5           /*!< Extended line 5 */
  92:C:/Users/nace/OneDrive/Desktop/STM32/Projects_nace/NUCLEO_LL_Project_LCD/STM32_template_proj/Drivers/STM32F1xx_HAL_Driver/Inc\stm32f1xx_ll_exti.h **** #define LL_EXTI_LINE_6                 EXTI_IMR_IM6           /*!< Extended line 6 */
  93:C:/Users/nace/OneDrive/Desktop/STM32/Projects_nace/NUCLEO_LL_Project_LCD/STM32_template_proj/Drivers/STM32F1xx_HAL_Driver/Inc\stm32f1xx_ll_exti.h **** #define LL_EXTI_LINE_7                 EXTI_IMR_IM7           /*!< Extended line 7 */
  94:C:/Users/nace/OneDrive/Desktop/STM32/Projects_nace/NUCLEO_LL_Project_LCD/STM32_template_proj/Drivers/STM32F1xx_HAL_Driver/Inc\stm32f1xx_ll_exti.h **** #define LL_EXTI_LINE_8                 EXTI_IMR_IM8           /*!< Extended line 8 */
  95:C:/Users/nace/OneDrive/Desktop/STM32/Projects_nace/NUCLEO_LL_Project_LCD/STM32_template_proj/Drivers/STM32F1xx_HAL_Driver/Inc\stm32f1xx_ll_exti.h **** #define LL_EXTI_LINE_9                 EXTI_IMR_IM9           /*!< Extended line 9 */
  96:C:/Users/nace/OneDrive/Desktop/STM32/Projects_nace/NUCLEO_LL_Project_LCD/STM32_template_proj/Drivers/STM32F1xx_HAL_Driver/Inc\stm32f1xx_ll_exti.h **** #define LL_EXTI_LINE_10                EXTI_IMR_IM10          /*!< Extended line 10 */
  97:C:/Users/nace/OneDrive/Desktop/STM32/Projects_nace/NUCLEO_LL_Project_LCD/STM32_template_proj/Drivers/STM32F1xx_HAL_Driver/Inc\stm32f1xx_ll_exti.h **** #define LL_EXTI_LINE_11                EXTI_IMR_IM11          /*!< Extended line 11 */
  98:C:/Users/nace/OneDrive/Desktop/STM32/Projects_nace/NUCLEO_LL_Project_LCD/STM32_template_proj/Drivers/STM32F1xx_HAL_Driver/Inc\stm32f1xx_ll_exti.h **** #define LL_EXTI_LINE_12                EXTI_IMR_IM12          /*!< Extended line 12 */
  99:C:/Users/nace/OneDrive/Desktop/STM32/Projects_nace/NUCLEO_LL_Project_LCD/STM32_template_proj/Drivers/STM32F1xx_HAL_Driver/Inc\stm32f1xx_ll_exti.h **** #define LL_EXTI_LINE_13                EXTI_IMR_IM13          /*!< Extended line 13 */
 100:C:/Users/nace/OneDrive/Desktop/STM32/Projects_nace/NUCLEO_LL_Project_LCD/STM32_template_proj/Drivers/STM32F1xx_HAL_Driver/Inc\stm32f1xx_ll_exti.h **** #define LL_EXTI_LINE_14                EXTI_IMR_IM14          /*!< Extended line 14 */
 101:C:/Users/nace/OneDrive/Desktop/STM32/Projects_nace/NUCLEO_LL_Project_LCD/STM32_template_proj/Drivers/STM32F1xx_HAL_Driver/Inc\stm32f1xx_ll_exti.h **** #define LL_EXTI_LINE_15                EXTI_IMR_IM15          /*!< Extended line 15 */
 102:C:/Users/nace/OneDrive/Desktop/STM32/Projects_nace/NUCLEO_LL_Project_LCD/STM32_template_proj/Drivers/STM32F1xx_HAL_Driver/Inc\stm32f1xx_ll_exti.h **** #if defined(EXTI_IMR_IM16)
 103:C:/Users/nace/OneDrive/Desktop/STM32/Projects_nace/NUCLEO_LL_Project_LCD/STM32_template_proj/Drivers/STM32F1xx_HAL_Driver/Inc\stm32f1xx_ll_exti.h **** #define LL_EXTI_LINE_16                EXTI_IMR_IM16          /*!< Extended line 16 */
 104:C:/Users/nace/OneDrive/Desktop/STM32/Projects_nace/NUCLEO_LL_Project_LCD/STM32_template_proj/Drivers/STM32F1xx_HAL_Driver/Inc\stm32f1xx_ll_exti.h **** #endif
 105:C:/Users/nace/OneDrive/Desktop/STM32/Projects_nace/NUCLEO_LL_Project_LCD/STM32_template_proj/Drivers/STM32F1xx_HAL_Driver/Inc\stm32f1xx_ll_exti.h **** #define LL_EXTI_LINE_17                EXTI_IMR_IM17          /*!< Extended line 17 */
 106:C:/Users/nace/OneDrive/Desktop/STM32/Projects_nace/NUCLEO_LL_Project_LCD/STM32_template_proj/Drivers/STM32F1xx_HAL_Driver/Inc\stm32f1xx_ll_exti.h **** #if defined(EXTI_IMR_IM18)
 107:C:/Users/nace/OneDrive/Desktop/STM32/Projects_nace/NUCLEO_LL_Project_LCD/STM32_template_proj/Drivers/STM32F1xx_HAL_Driver/Inc\stm32f1xx_ll_exti.h **** #define LL_EXTI_LINE_18                EXTI_IMR_IM18          /*!< Extended line 18 */
 108:C:/Users/nace/OneDrive/Desktop/STM32/Projects_nace/NUCLEO_LL_Project_LCD/STM32_template_proj/Drivers/STM32F1xx_HAL_Driver/Inc\stm32f1xx_ll_exti.h **** #endif
 109:C:/Users/nace/OneDrive/Desktop/STM32/Projects_nace/NUCLEO_LL_Project_LCD/STM32_template_proj/Drivers/STM32F1xx_HAL_Driver/Inc\stm32f1xx_ll_exti.h **** #if defined(EXTI_IMR_IM19)
 110:C:/Users/nace/OneDrive/Desktop/STM32/Projects_nace/NUCLEO_LL_Project_LCD/STM32_template_proj/Drivers/STM32F1xx_HAL_Driver/Inc\stm32f1xx_ll_exti.h **** #define LL_EXTI_LINE_19                EXTI_IMR_IM19          /*!< Extended line 19 */
 111:C:/Users/nace/OneDrive/Desktop/STM32/Projects_nace/NUCLEO_LL_Project_LCD/STM32_template_proj/Drivers/STM32F1xx_HAL_Driver/Inc\stm32f1xx_ll_exti.h **** #endif
 112:C:/Users/nace/OneDrive/Desktop/STM32/Projects_nace/NUCLEO_LL_Project_LCD/STM32_template_proj/Drivers/STM32F1xx_HAL_Driver/Inc\stm32f1xx_ll_exti.h **** #if defined(EXTI_IMR_IM20)
 113:C:/Users/nace/OneDrive/Desktop/STM32/Projects_nace/NUCLEO_LL_Project_LCD/STM32_template_proj/Drivers/STM32F1xx_HAL_Driver/Inc\stm32f1xx_ll_exti.h **** #define LL_EXTI_LINE_20                EXTI_IMR_IM20          /*!< Extended line 20 */
 114:C:/Users/nace/OneDrive/Desktop/STM32/Projects_nace/NUCLEO_LL_Project_LCD/STM32_template_proj/Drivers/STM32F1xx_HAL_Driver/Inc\stm32f1xx_ll_exti.h **** #endif
 115:C:/Users/nace/OneDrive/Desktop/STM32/Projects_nace/NUCLEO_LL_Project_LCD/STM32_template_proj/Drivers/STM32F1xx_HAL_Driver/Inc\stm32f1xx_ll_exti.h **** #if defined(EXTI_IMR_IM21)
 116:C:/Users/nace/OneDrive/Desktop/STM32/Projects_nace/NUCLEO_LL_Project_LCD/STM32_template_proj/Drivers/STM32F1xx_HAL_Driver/Inc\stm32f1xx_ll_exti.h **** #define LL_EXTI_LINE_21                EXTI_IMR_IM21          /*!< Extended line 21 */
 117:C:/Users/nace/OneDrive/Desktop/STM32/Projects_nace/NUCLEO_LL_Project_LCD/STM32_template_proj/Drivers/STM32F1xx_HAL_Driver/Inc\stm32f1xx_ll_exti.h **** #endif
 118:C:/Users/nace/OneDrive/Desktop/STM32/Projects_nace/NUCLEO_LL_Project_LCD/STM32_template_proj/Drivers/STM32F1xx_HAL_Driver/Inc\stm32f1xx_ll_exti.h **** #if defined(EXTI_IMR_IM22)
 119:C:/Users/nace/OneDrive/Desktop/STM32/Projects_nace/NUCLEO_LL_Project_LCD/STM32_template_proj/Drivers/STM32F1xx_HAL_Driver/Inc\stm32f1xx_ll_exti.h **** #define LL_EXTI_LINE_22                EXTI_IMR_IM22          /*!< Extended line 22 */
 120:C:/Users/nace/OneDrive/Desktop/STM32/Projects_nace/NUCLEO_LL_Project_LCD/STM32_template_proj/Drivers/STM32F1xx_HAL_Driver/Inc\stm32f1xx_ll_exti.h **** #endif
 121:C:/Users/nace/OneDrive/Desktop/STM32/Projects_nace/NUCLEO_LL_Project_LCD/STM32_template_proj/Drivers/STM32F1xx_HAL_Driver/Inc\stm32f1xx_ll_exti.h **** #if defined(EXTI_IMR_IM23)
 122:C:/Users/nace/OneDrive/Desktop/STM32/Projects_nace/NUCLEO_LL_Project_LCD/STM32_template_proj/Drivers/STM32F1xx_HAL_Driver/Inc\stm32f1xx_ll_exti.h **** #define LL_EXTI_LINE_23                EXTI_IMR_IM23          /*!< Extended line 23 */
 123:C:/Users/nace/OneDrive/Desktop/STM32/Projects_nace/NUCLEO_LL_Project_LCD/STM32_template_proj/Drivers/STM32F1xx_HAL_Driver/Inc\stm32f1xx_ll_exti.h **** #endif
 124:C:/Users/nace/OneDrive/Desktop/STM32/Projects_nace/NUCLEO_LL_Project_LCD/STM32_template_proj/Drivers/STM32F1xx_HAL_Driver/Inc\stm32f1xx_ll_exti.h **** #if defined(EXTI_IMR_IM24)
 125:C:/Users/nace/OneDrive/Desktop/STM32/Projects_nace/NUCLEO_LL_Project_LCD/STM32_template_proj/Drivers/STM32F1xx_HAL_Driver/Inc\stm32f1xx_ll_exti.h **** #define LL_EXTI_LINE_24                EXTI_IMR_IM24          /*!< Extended line 24 */
 126:C:/Users/nace/OneDrive/Desktop/STM32/Projects_nace/NUCLEO_LL_Project_LCD/STM32_template_proj/Drivers/STM32F1xx_HAL_Driver/Inc\stm32f1xx_ll_exti.h **** #endif
 127:C:/Users/nace/OneDrive/Desktop/STM32/Projects_nace/NUCLEO_LL_Project_LCD/STM32_template_proj/Drivers/STM32F1xx_HAL_Driver/Inc\stm32f1xx_ll_exti.h **** #if defined(EXTI_IMR_IM25)
 128:C:/Users/nace/OneDrive/Desktop/STM32/Projects_nace/NUCLEO_LL_Project_LCD/STM32_template_proj/Drivers/STM32F1xx_HAL_Driver/Inc\stm32f1xx_ll_exti.h **** #define LL_EXTI_LINE_25                EXTI_IMR_IM25          /*!< Extended line 25 */
 129:C:/Users/nace/OneDrive/Desktop/STM32/Projects_nace/NUCLEO_LL_Project_LCD/STM32_template_proj/Drivers/STM32F1xx_HAL_Driver/Inc\stm32f1xx_ll_exti.h **** #endif
 130:C:/Users/nace/OneDrive/Desktop/STM32/Projects_nace/NUCLEO_LL_Project_LCD/STM32_template_proj/Drivers/STM32F1xx_HAL_Driver/Inc\stm32f1xx_ll_exti.h **** #if defined(EXTI_IMR_IM26)
 131:C:/Users/nace/OneDrive/Desktop/STM32/Projects_nace/NUCLEO_LL_Project_LCD/STM32_template_proj/Drivers/STM32F1xx_HAL_Driver/Inc\stm32f1xx_ll_exti.h **** #define LL_EXTI_LINE_26                EXTI_IMR_IM26          /*!< Extended line 26 */
 132:C:/Users/nace/OneDrive/Desktop/STM32/Projects_nace/NUCLEO_LL_Project_LCD/STM32_template_proj/Drivers/STM32F1xx_HAL_Driver/Inc\stm32f1xx_ll_exti.h **** #endif
 133:C:/Users/nace/OneDrive/Desktop/STM32/Projects_nace/NUCLEO_LL_Project_LCD/STM32_template_proj/Drivers/STM32F1xx_HAL_Driver/Inc\stm32f1xx_ll_exti.h **** #if defined(EXTI_IMR_IM27)
 134:C:/Users/nace/OneDrive/Desktop/STM32/Projects_nace/NUCLEO_LL_Project_LCD/STM32_template_proj/Drivers/STM32F1xx_HAL_Driver/Inc\stm32f1xx_ll_exti.h **** #define LL_EXTI_LINE_27                EXTI_IMR_IM27          /*!< Extended line 27 */
 135:C:/Users/nace/OneDrive/Desktop/STM32/Projects_nace/NUCLEO_LL_Project_LCD/STM32_template_proj/Drivers/STM32F1xx_HAL_Driver/Inc\stm32f1xx_ll_exti.h **** #endif
 136:C:/Users/nace/OneDrive/Desktop/STM32/Projects_nace/NUCLEO_LL_Project_LCD/STM32_template_proj/Drivers/STM32F1xx_HAL_Driver/Inc\stm32f1xx_ll_exti.h **** #if defined(EXTI_IMR_IM28)
 137:C:/Users/nace/OneDrive/Desktop/STM32/Projects_nace/NUCLEO_LL_Project_LCD/STM32_template_proj/Drivers/STM32F1xx_HAL_Driver/Inc\stm32f1xx_ll_exti.h **** #define LL_EXTI_LINE_28                EXTI_IMR_IM28          /*!< Extended line 28 */
 138:C:/Users/nace/OneDrive/Desktop/STM32/Projects_nace/NUCLEO_LL_Project_LCD/STM32_template_proj/Drivers/STM32F1xx_HAL_Driver/Inc\stm32f1xx_ll_exti.h **** #endif
 139:C:/Users/nace/OneDrive/Desktop/STM32/Projects_nace/NUCLEO_LL_Project_LCD/STM32_template_proj/Drivers/STM32F1xx_HAL_Driver/Inc\stm32f1xx_ll_exti.h **** #if defined(EXTI_IMR_IM29)
 140:C:/Users/nace/OneDrive/Desktop/STM32/Projects_nace/NUCLEO_LL_Project_LCD/STM32_template_proj/Drivers/STM32F1xx_HAL_Driver/Inc\stm32f1xx_ll_exti.h **** #define LL_EXTI_LINE_29                EXTI_IMR_IM29          /*!< Extended line 29 */
 141:C:/Users/nace/OneDrive/Desktop/STM32/Projects_nace/NUCLEO_LL_Project_LCD/STM32_template_proj/Drivers/STM32F1xx_HAL_Driver/Inc\stm32f1xx_ll_exti.h **** #endif
 142:C:/Users/nace/OneDrive/Desktop/STM32/Projects_nace/NUCLEO_LL_Project_LCD/STM32_template_proj/Drivers/STM32F1xx_HAL_Driver/Inc\stm32f1xx_ll_exti.h **** #if defined(EXTI_IMR_IM30)
 143:C:/Users/nace/OneDrive/Desktop/STM32/Projects_nace/NUCLEO_LL_Project_LCD/STM32_template_proj/Drivers/STM32F1xx_HAL_Driver/Inc\stm32f1xx_ll_exti.h **** #define LL_EXTI_LINE_30                EXTI_IMR_IM30          /*!< Extended line 30 */
 144:C:/Users/nace/OneDrive/Desktop/STM32/Projects_nace/NUCLEO_LL_Project_LCD/STM32_template_proj/Drivers/STM32F1xx_HAL_Driver/Inc\stm32f1xx_ll_exti.h **** #endif
 145:C:/Users/nace/OneDrive/Desktop/STM32/Projects_nace/NUCLEO_LL_Project_LCD/STM32_template_proj/Drivers/STM32F1xx_HAL_Driver/Inc\stm32f1xx_ll_exti.h **** #if defined(EXTI_IMR_IM31)
 146:C:/Users/nace/OneDrive/Desktop/STM32/Projects_nace/NUCLEO_LL_Project_LCD/STM32_template_proj/Drivers/STM32F1xx_HAL_Driver/Inc\stm32f1xx_ll_exti.h **** #define LL_EXTI_LINE_31                EXTI_IMR_IM31          /*!< Extended line 31 */
 147:C:/Users/nace/OneDrive/Desktop/STM32/Projects_nace/NUCLEO_LL_Project_LCD/STM32_template_proj/Drivers/STM32F1xx_HAL_Driver/Inc\stm32f1xx_ll_exti.h **** #endif
 148:C:/Users/nace/OneDrive/Desktop/STM32/Projects_nace/NUCLEO_LL_Project_LCD/STM32_template_proj/Drivers/STM32F1xx_HAL_Driver/Inc\stm32f1xx_ll_exti.h **** #define LL_EXTI_LINE_ALL_0_31          EXTI_IMR_IM            /*!< All Extended line not reserved*/
 149:C:/Users/nace/OneDrive/Desktop/STM32/Projects_nace/NUCLEO_LL_Project_LCD/STM32_template_proj/Drivers/STM32F1xx_HAL_Driver/Inc\stm32f1xx_ll_exti.h **** 
 150:C:/Users/nace/OneDrive/Desktop/STM32/Projects_nace/NUCLEO_LL_Project_LCD/STM32_template_proj/Drivers/STM32F1xx_HAL_Driver/Inc\stm32f1xx_ll_exti.h **** 
 151:C:/Users/nace/OneDrive/Desktop/STM32/Projects_nace/NUCLEO_LL_Project_LCD/STM32_template_proj/Drivers/STM32F1xx_HAL_Driver/Inc\stm32f1xx_ll_exti.h **** #define LL_EXTI_LINE_ALL               (0xFFFFFFFFU)  /*!< All Extended line */
 152:C:/Users/nace/OneDrive/Desktop/STM32/Projects_nace/NUCLEO_LL_Project_LCD/STM32_template_proj/Drivers/STM32F1xx_HAL_Driver/Inc\stm32f1xx_ll_exti.h **** 
 153:C:/Users/nace/OneDrive/Desktop/STM32/Projects_nace/NUCLEO_LL_Project_LCD/STM32_template_proj/Drivers/STM32F1xx_HAL_Driver/Inc\stm32f1xx_ll_exti.h **** #if defined(USE_FULL_LL_DRIVER)
 154:C:/Users/nace/OneDrive/Desktop/STM32/Projects_nace/NUCLEO_LL_Project_LCD/STM32_template_proj/Drivers/STM32F1xx_HAL_Driver/Inc\stm32f1xx_ll_exti.h **** #define LL_EXTI_LINE_NONE              (0x00000000U)  /*!< None Extended line */
 155:C:/Users/nace/OneDrive/Desktop/STM32/Projects_nace/NUCLEO_LL_Project_LCD/STM32_template_proj/Drivers/STM32F1xx_HAL_Driver/Inc\stm32f1xx_ll_exti.h **** #endif /*USE_FULL_LL_DRIVER*/
 156:C:/Users/nace/OneDrive/Desktop/STM32/Projects_nace/NUCLEO_LL_Project_LCD/STM32_template_proj/Drivers/STM32F1xx_HAL_Driver/Inc\stm32f1xx_ll_exti.h **** 
 157:C:/Users/nace/OneDrive/Desktop/STM32/Projects_nace/NUCLEO_LL_Project_LCD/STM32_template_proj/Drivers/STM32F1xx_HAL_Driver/Inc\stm32f1xx_ll_exti.h **** /**
 158:C:/Users/nace/OneDrive/Desktop/STM32/Projects_nace/NUCLEO_LL_Project_LCD/STM32_template_proj/Drivers/STM32F1xx_HAL_Driver/Inc\stm32f1xx_ll_exti.h ****   * @}
 159:C:/Users/nace/OneDrive/Desktop/STM32/Projects_nace/NUCLEO_LL_Project_LCD/STM32_template_proj/Drivers/STM32F1xx_HAL_Driver/Inc\stm32f1xx_ll_exti.h ****   */
 160:C:/Users/nace/OneDrive/Desktop/STM32/Projects_nace/NUCLEO_LL_Project_LCD/STM32_template_proj/Drivers/STM32F1xx_HAL_Driver/Inc\stm32f1xx_ll_exti.h **** #if defined(USE_FULL_LL_DRIVER)
 161:C:/Users/nace/OneDrive/Desktop/STM32/Projects_nace/NUCLEO_LL_Project_LCD/STM32_template_proj/Drivers/STM32F1xx_HAL_Driver/Inc\stm32f1xx_ll_exti.h **** 
 162:C:/Users/nace/OneDrive/Desktop/STM32/Projects_nace/NUCLEO_LL_Project_LCD/STM32_template_proj/Drivers/STM32F1xx_HAL_Driver/Inc\stm32f1xx_ll_exti.h **** /** @defgroup EXTI_LL_EC_MODE Mode
 163:C:/Users/nace/OneDrive/Desktop/STM32/Projects_nace/NUCLEO_LL_Project_LCD/STM32_template_proj/Drivers/STM32F1xx_HAL_Driver/Inc\stm32f1xx_ll_exti.h ****   * @{
 164:C:/Users/nace/OneDrive/Desktop/STM32/Projects_nace/NUCLEO_LL_Project_LCD/STM32_template_proj/Drivers/STM32F1xx_HAL_Driver/Inc\stm32f1xx_ll_exti.h ****   */
 165:C:/Users/nace/OneDrive/Desktop/STM32/Projects_nace/NUCLEO_LL_Project_LCD/STM32_template_proj/Drivers/STM32F1xx_HAL_Driver/Inc\stm32f1xx_ll_exti.h **** #define LL_EXTI_MODE_IT                 ((uint8_t)0x00) /*!< Interrupt Mode */
 166:C:/Users/nace/OneDrive/Desktop/STM32/Projects_nace/NUCLEO_LL_Project_LCD/STM32_template_proj/Drivers/STM32F1xx_HAL_Driver/Inc\stm32f1xx_ll_exti.h **** #define LL_EXTI_MODE_EVENT              ((uint8_t)0x01) /*!< Event Mode */
 167:C:/Users/nace/OneDrive/Desktop/STM32/Projects_nace/NUCLEO_LL_Project_LCD/STM32_template_proj/Drivers/STM32F1xx_HAL_Driver/Inc\stm32f1xx_ll_exti.h **** #define LL_EXTI_MODE_IT_EVENT           ((uint8_t)0x02) /*!< Interrupt & Event Mode */
 168:C:/Users/nace/OneDrive/Desktop/STM32/Projects_nace/NUCLEO_LL_Project_LCD/STM32_template_proj/Drivers/STM32F1xx_HAL_Driver/Inc\stm32f1xx_ll_exti.h **** /**
 169:C:/Users/nace/OneDrive/Desktop/STM32/Projects_nace/NUCLEO_LL_Project_LCD/STM32_template_proj/Drivers/STM32F1xx_HAL_Driver/Inc\stm32f1xx_ll_exti.h ****   * @}
 170:C:/Users/nace/OneDrive/Desktop/STM32/Projects_nace/NUCLEO_LL_Project_LCD/STM32_template_proj/Drivers/STM32F1xx_HAL_Driver/Inc\stm32f1xx_ll_exti.h ****   */
 171:C:/Users/nace/OneDrive/Desktop/STM32/Projects_nace/NUCLEO_LL_Project_LCD/STM32_template_proj/Drivers/STM32F1xx_HAL_Driver/Inc\stm32f1xx_ll_exti.h **** 
 172:C:/Users/nace/OneDrive/Desktop/STM32/Projects_nace/NUCLEO_LL_Project_LCD/STM32_template_proj/Drivers/STM32F1xx_HAL_Driver/Inc\stm32f1xx_ll_exti.h **** /** @defgroup EXTI_LL_EC_TRIGGER Edge Trigger
 173:C:/Users/nace/OneDrive/Desktop/STM32/Projects_nace/NUCLEO_LL_Project_LCD/STM32_template_proj/Drivers/STM32F1xx_HAL_Driver/Inc\stm32f1xx_ll_exti.h ****   * @{
 174:C:/Users/nace/OneDrive/Desktop/STM32/Projects_nace/NUCLEO_LL_Project_LCD/STM32_template_proj/Drivers/STM32F1xx_HAL_Driver/Inc\stm32f1xx_ll_exti.h ****   */
 175:C:/Users/nace/OneDrive/Desktop/STM32/Projects_nace/NUCLEO_LL_Project_LCD/STM32_template_proj/Drivers/STM32F1xx_HAL_Driver/Inc\stm32f1xx_ll_exti.h **** #define LL_EXTI_TRIGGER_NONE            ((uint8_t)0x00) /*!< No Trigger Mode */
 176:C:/Users/nace/OneDrive/Desktop/STM32/Projects_nace/NUCLEO_LL_Project_LCD/STM32_template_proj/Drivers/STM32F1xx_HAL_Driver/Inc\stm32f1xx_ll_exti.h **** #define LL_EXTI_TRIGGER_RISING          ((uint8_t)0x01) /*!< Trigger Rising Mode */
 177:C:/Users/nace/OneDrive/Desktop/STM32/Projects_nace/NUCLEO_LL_Project_LCD/STM32_template_proj/Drivers/STM32F1xx_HAL_Driver/Inc\stm32f1xx_ll_exti.h **** #define LL_EXTI_TRIGGER_FALLING         ((uint8_t)0x02) /*!< Trigger Falling Mode */
 178:C:/Users/nace/OneDrive/Desktop/STM32/Projects_nace/NUCLEO_LL_Project_LCD/STM32_template_proj/Drivers/STM32F1xx_HAL_Driver/Inc\stm32f1xx_ll_exti.h **** #define LL_EXTI_TRIGGER_RISING_FALLING  ((uint8_t)0x03) /*!< Trigger Rising & Falling Mode */
 179:C:/Users/nace/OneDrive/Desktop/STM32/Projects_nace/NUCLEO_LL_Project_LCD/STM32_template_proj/Drivers/STM32F1xx_HAL_Driver/Inc\stm32f1xx_ll_exti.h **** 
 180:C:/Users/nace/OneDrive/Desktop/STM32/Projects_nace/NUCLEO_LL_Project_LCD/STM32_template_proj/Drivers/STM32F1xx_HAL_Driver/Inc\stm32f1xx_ll_exti.h **** /**
 181:C:/Users/nace/OneDrive/Desktop/STM32/Projects_nace/NUCLEO_LL_Project_LCD/STM32_template_proj/Drivers/STM32F1xx_HAL_Driver/Inc\stm32f1xx_ll_exti.h ****   * @}
 182:C:/Users/nace/OneDrive/Desktop/STM32/Projects_nace/NUCLEO_LL_Project_LCD/STM32_template_proj/Drivers/STM32F1xx_HAL_Driver/Inc\stm32f1xx_ll_exti.h ****   */
 183:C:/Users/nace/OneDrive/Desktop/STM32/Projects_nace/NUCLEO_LL_Project_LCD/STM32_template_proj/Drivers/STM32F1xx_HAL_Driver/Inc\stm32f1xx_ll_exti.h **** 
 184:C:/Users/nace/OneDrive/Desktop/STM32/Projects_nace/NUCLEO_LL_Project_LCD/STM32_template_proj/Drivers/STM32F1xx_HAL_Driver/Inc\stm32f1xx_ll_exti.h **** 
 185:C:/Users/nace/OneDrive/Desktop/STM32/Projects_nace/NUCLEO_LL_Project_LCD/STM32_template_proj/Drivers/STM32F1xx_HAL_Driver/Inc\stm32f1xx_ll_exti.h **** #endif /*USE_FULL_LL_DRIVER*/
 186:C:/Users/nace/OneDrive/Desktop/STM32/Projects_nace/NUCLEO_LL_Project_LCD/STM32_template_proj/Drivers/STM32F1xx_HAL_Driver/Inc\stm32f1xx_ll_exti.h **** 
 187:C:/Users/nace/OneDrive/Desktop/STM32/Projects_nace/NUCLEO_LL_Project_LCD/STM32_template_proj/Drivers/STM32F1xx_HAL_Driver/Inc\stm32f1xx_ll_exti.h **** 
 188:C:/Users/nace/OneDrive/Desktop/STM32/Projects_nace/NUCLEO_LL_Project_LCD/STM32_template_proj/Drivers/STM32F1xx_HAL_Driver/Inc\stm32f1xx_ll_exti.h **** /**
 189:C:/Users/nace/OneDrive/Desktop/STM32/Projects_nace/NUCLEO_LL_Project_LCD/STM32_template_proj/Drivers/STM32F1xx_HAL_Driver/Inc\stm32f1xx_ll_exti.h ****   * @}
 190:C:/Users/nace/OneDrive/Desktop/STM32/Projects_nace/NUCLEO_LL_Project_LCD/STM32_template_proj/Drivers/STM32F1xx_HAL_Driver/Inc\stm32f1xx_ll_exti.h ****   */
 191:C:/Users/nace/OneDrive/Desktop/STM32/Projects_nace/NUCLEO_LL_Project_LCD/STM32_template_proj/Drivers/STM32F1xx_HAL_Driver/Inc\stm32f1xx_ll_exti.h **** 
 192:C:/Users/nace/OneDrive/Desktop/STM32/Projects_nace/NUCLEO_LL_Project_LCD/STM32_template_proj/Drivers/STM32F1xx_HAL_Driver/Inc\stm32f1xx_ll_exti.h **** /* Exported macro ------------------------------------------------------------*/
 193:C:/Users/nace/OneDrive/Desktop/STM32/Projects_nace/NUCLEO_LL_Project_LCD/STM32_template_proj/Drivers/STM32F1xx_HAL_Driver/Inc\stm32f1xx_ll_exti.h **** /** @defgroup EXTI_LL_Exported_Macros EXTI Exported Macros
 194:C:/Users/nace/OneDrive/Desktop/STM32/Projects_nace/NUCLEO_LL_Project_LCD/STM32_template_proj/Drivers/STM32F1xx_HAL_Driver/Inc\stm32f1xx_ll_exti.h ****   * @{
 195:C:/Users/nace/OneDrive/Desktop/STM32/Projects_nace/NUCLEO_LL_Project_LCD/STM32_template_proj/Drivers/STM32F1xx_HAL_Driver/Inc\stm32f1xx_ll_exti.h ****   */
 196:C:/Users/nace/OneDrive/Desktop/STM32/Projects_nace/NUCLEO_LL_Project_LCD/STM32_template_proj/Drivers/STM32F1xx_HAL_Driver/Inc\stm32f1xx_ll_exti.h **** 
 197:C:/Users/nace/OneDrive/Desktop/STM32/Projects_nace/NUCLEO_LL_Project_LCD/STM32_template_proj/Drivers/STM32F1xx_HAL_Driver/Inc\stm32f1xx_ll_exti.h **** /** @defgroup EXTI_LL_EM_WRITE_READ Common Write and read registers Macros
 198:C:/Users/nace/OneDrive/Desktop/STM32/Projects_nace/NUCLEO_LL_Project_LCD/STM32_template_proj/Drivers/STM32F1xx_HAL_Driver/Inc\stm32f1xx_ll_exti.h ****   * @{
 199:C:/Users/nace/OneDrive/Desktop/STM32/Projects_nace/NUCLEO_LL_Project_LCD/STM32_template_proj/Drivers/STM32F1xx_HAL_Driver/Inc\stm32f1xx_ll_exti.h ****   */
 200:C:/Users/nace/OneDrive/Desktop/STM32/Projects_nace/NUCLEO_LL_Project_LCD/STM32_template_proj/Drivers/STM32F1xx_HAL_Driver/Inc\stm32f1xx_ll_exti.h **** 
 201:C:/Users/nace/OneDrive/Desktop/STM32/Projects_nace/NUCLEO_LL_Project_LCD/STM32_template_proj/Drivers/STM32F1xx_HAL_Driver/Inc\stm32f1xx_ll_exti.h **** /**
 202:C:/Users/nace/OneDrive/Desktop/STM32/Projects_nace/NUCLEO_LL_Project_LCD/STM32_template_proj/Drivers/STM32F1xx_HAL_Driver/Inc\stm32f1xx_ll_exti.h ****   * @brief  Write a value in EXTI register
 203:C:/Users/nace/OneDrive/Desktop/STM32/Projects_nace/NUCLEO_LL_Project_LCD/STM32_template_proj/Drivers/STM32F1xx_HAL_Driver/Inc\stm32f1xx_ll_exti.h ****   * @param  __REG__ Register to be written
 204:C:/Users/nace/OneDrive/Desktop/STM32/Projects_nace/NUCLEO_LL_Project_LCD/STM32_template_proj/Drivers/STM32F1xx_HAL_Driver/Inc\stm32f1xx_ll_exti.h ****   * @param  __VALUE__ Value to be written in the register
 205:C:/Users/nace/OneDrive/Desktop/STM32/Projects_nace/NUCLEO_LL_Project_LCD/STM32_template_proj/Drivers/STM32F1xx_HAL_Driver/Inc\stm32f1xx_ll_exti.h ****   * @retval None
 206:C:/Users/nace/OneDrive/Desktop/STM32/Projects_nace/NUCLEO_LL_Project_LCD/STM32_template_proj/Drivers/STM32F1xx_HAL_Driver/Inc\stm32f1xx_ll_exti.h ****   */
 207:C:/Users/nace/OneDrive/Desktop/STM32/Projects_nace/NUCLEO_LL_Project_LCD/STM32_template_proj/Drivers/STM32F1xx_HAL_Driver/Inc\stm32f1xx_ll_exti.h **** #define LL_EXTI_WriteReg(__REG__, __VALUE__) WRITE_REG(EXTI->__REG__, (__VALUE__))
 208:C:/Users/nace/OneDrive/Desktop/STM32/Projects_nace/NUCLEO_LL_Project_LCD/STM32_template_proj/Drivers/STM32F1xx_HAL_Driver/Inc\stm32f1xx_ll_exti.h **** 
 209:C:/Users/nace/OneDrive/Desktop/STM32/Projects_nace/NUCLEO_LL_Project_LCD/STM32_template_proj/Drivers/STM32F1xx_HAL_Driver/Inc\stm32f1xx_ll_exti.h **** /**
 210:C:/Users/nace/OneDrive/Desktop/STM32/Projects_nace/NUCLEO_LL_Project_LCD/STM32_template_proj/Drivers/STM32F1xx_HAL_Driver/Inc\stm32f1xx_ll_exti.h ****   * @brief  Read a value in EXTI register
 211:C:/Users/nace/OneDrive/Desktop/STM32/Projects_nace/NUCLEO_LL_Project_LCD/STM32_template_proj/Drivers/STM32F1xx_HAL_Driver/Inc\stm32f1xx_ll_exti.h ****   * @param  __REG__ Register to be read
 212:C:/Users/nace/OneDrive/Desktop/STM32/Projects_nace/NUCLEO_LL_Project_LCD/STM32_template_proj/Drivers/STM32F1xx_HAL_Driver/Inc\stm32f1xx_ll_exti.h ****   * @retval Register value
 213:C:/Users/nace/OneDrive/Desktop/STM32/Projects_nace/NUCLEO_LL_Project_LCD/STM32_template_proj/Drivers/STM32F1xx_HAL_Driver/Inc\stm32f1xx_ll_exti.h ****   */
 214:C:/Users/nace/OneDrive/Desktop/STM32/Projects_nace/NUCLEO_LL_Project_LCD/STM32_template_proj/Drivers/STM32F1xx_HAL_Driver/Inc\stm32f1xx_ll_exti.h **** #define LL_EXTI_ReadReg(__REG__) READ_REG(EXTI->__REG__)
 215:C:/Users/nace/OneDrive/Desktop/STM32/Projects_nace/NUCLEO_LL_Project_LCD/STM32_template_proj/Drivers/STM32F1xx_HAL_Driver/Inc\stm32f1xx_ll_exti.h **** /**
 216:C:/Users/nace/OneDrive/Desktop/STM32/Projects_nace/NUCLEO_LL_Project_LCD/STM32_template_proj/Drivers/STM32F1xx_HAL_Driver/Inc\stm32f1xx_ll_exti.h ****   * @}
 217:C:/Users/nace/OneDrive/Desktop/STM32/Projects_nace/NUCLEO_LL_Project_LCD/STM32_template_proj/Drivers/STM32F1xx_HAL_Driver/Inc\stm32f1xx_ll_exti.h ****   */
 218:C:/Users/nace/OneDrive/Desktop/STM32/Projects_nace/NUCLEO_LL_Project_LCD/STM32_template_proj/Drivers/STM32F1xx_HAL_Driver/Inc\stm32f1xx_ll_exti.h **** 
 219:C:/Users/nace/OneDrive/Desktop/STM32/Projects_nace/NUCLEO_LL_Project_LCD/STM32_template_proj/Drivers/STM32F1xx_HAL_Driver/Inc\stm32f1xx_ll_exti.h **** 
 220:C:/Users/nace/OneDrive/Desktop/STM32/Projects_nace/NUCLEO_LL_Project_LCD/STM32_template_proj/Drivers/STM32F1xx_HAL_Driver/Inc\stm32f1xx_ll_exti.h **** /**
 221:C:/Users/nace/OneDrive/Desktop/STM32/Projects_nace/NUCLEO_LL_Project_LCD/STM32_template_proj/Drivers/STM32F1xx_HAL_Driver/Inc\stm32f1xx_ll_exti.h ****   * @}
 222:C:/Users/nace/OneDrive/Desktop/STM32/Projects_nace/NUCLEO_LL_Project_LCD/STM32_template_proj/Drivers/STM32F1xx_HAL_Driver/Inc\stm32f1xx_ll_exti.h ****   */
 223:C:/Users/nace/OneDrive/Desktop/STM32/Projects_nace/NUCLEO_LL_Project_LCD/STM32_template_proj/Drivers/STM32F1xx_HAL_Driver/Inc\stm32f1xx_ll_exti.h **** 
 224:C:/Users/nace/OneDrive/Desktop/STM32/Projects_nace/NUCLEO_LL_Project_LCD/STM32_template_proj/Drivers/STM32F1xx_HAL_Driver/Inc\stm32f1xx_ll_exti.h **** 
 225:C:/Users/nace/OneDrive/Desktop/STM32/Projects_nace/NUCLEO_LL_Project_LCD/STM32_template_proj/Drivers/STM32F1xx_HAL_Driver/Inc\stm32f1xx_ll_exti.h **** 
 226:C:/Users/nace/OneDrive/Desktop/STM32/Projects_nace/NUCLEO_LL_Project_LCD/STM32_template_proj/Drivers/STM32F1xx_HAL_Driver/Inc\stm32f1xx_ll_exti.h **** /* Exported functions --------------------------------------------------------*/
 227:C:/Users/nace/OneDrive/Desktop/STM32/Projects_nace/NUCLEO_LL_Project_LCD/STM32_template_proj/Drivers/STM32F1xx_HAL_Driver/Inc\stm32f1xx_ll_exti.h **** /** @defgroup EXTI_LL_Exported_Functions EXTI Exported Functions
 228:C:/Users/nace/OneDrive/Desktop/STM32/Projects_nace/NUCLEO_LL_Project_LCD/STM32_template_proj/Drivers/STM32F1xx_HAL_Driver/Inc\stm32f1xx_ll_exti.h ****  * @{
 229:C:/Users/nace/OneDrive/Desktop/STM32/Projects_nace/NUCLEO_LL_Project_LCD/STM32_template_proj/Drivers/STM32F1xx_HAL_Driver/Inc\stm32f1xx_ll_exti.h ****  */
 230:C:/Users/nace/OneDrive/Desktop/STM32/Projects_nace/NUCLEO_LL_Project_LCD/STM32_template_proj/Drivers/STM32F1xx_HAL_Driver/Inc\stm32f1xx_ll_exti.h **** /** @defgroup EXTI_LL_EF_IT_Management IT_Management
 231:C:/Users/nace/OneDrive/Desktop/STM32/Projects_nace/NUCLEO_LL_Project_LCD/STM32_template_proj/Drivers/STM32F1xx_HAL_Driver/Inc\stm32f1xx_ll_exti.h ****   * @{
 232:C:/Users/nace/OneDrive/Desktop/STM32/Projects_nace/NUCLEO_LL_Project_LCD/STM32_template_proj/Drivers/STM32F1xx_HAL_Driver/Inc\stm32f1xx_ll_exti.h ****   */
 233:C:/Users/nace/OneDrive/Desktop/STM32/Projects_nace/NUCLEO_LL_Project_LCD/STM32_template_proj/Drivers/STM32F1xx_HAL_Driver/Inc\stm32f1xx_ll_exti.h **** 
 234:C:/Users/nace/OneDrive/Desktop/STM32/Projects_nace/NUCLEO_LL_Project_LCD/STM32_template_proj/Drivers/STM32F1xx_HAL_Driver/Inc\stm32f1xx_ll_exti.h **** /**
 235:C:/Users/nace/OneDrive/Desktop/STM32/Projects_nace/NUCLEO_LL_Project_LCD/STM32_template_proj/Drivers/STM32F1xx_HAL_Driver/Inc\stm32f1xx_ll_exti.h ****   * @brief  Enable ExtiLine Interrupt request for Lines in range 0 to 31
 236:C:/Users/nace/OneDrive/Desktop/STM32/Projects_nace/NUCLEO_LL_Project_LCD/STM32_template_proj/Drivers/STM32F1xx_HAL_Driver/Inc\stm32f1xx_ll_exti.h ****   * @note The reset value for the direct or internal lines (see RM)
 237:C:/Users/nace/OneDrive/Desktop/STM32/Projects_nace/NUCLEO_LL_Project_LCD/STM32_template_proj/Drivers/STM32F1xx_HAL_Driver/Inc\stm32f1xx_ll_exti.h ****   *       is set to 1 in order to enable the interrupt by default.
 238:C:/Users/nace/OneDrive/Desktop/STM32/Projects_nace/NUCLEO_LL_Project_LCD/STM32_template_proj/Drivers/STM32F1xx_HAL_Driver/Inc\stm32f1xx_ll_exti.h ****   *       Bits are set automatically at Power on.
 239:C:/Users/nace/OneDrive/Desktop/STM32/Projects_nace/NUCLEO_LL_Project_LCD/STM32_template_proj/Drivers/STM32F1xx_HAL_Driver/Inc\stm32f1xx_ll_exti.h ****   * @rmtoll IMR         IMx           LL_EXTI_EnableIT_0_31
 240:C:/Users/nace/OneDrive/Desktop/STM32/Projects_nace/NUCLEO_LL_Project_LCD/STM32_template_proj/Drivers/STM32F1xx_HAL_Driver/Inc\stm32f1xx_ll_exti.h ****   * @param  ExtiLine This parameter can be one of the following values:
 241:C:/Users/nace/OneDrive/Desktop/STM32/Projects_nace/NUCLEO_LL_Project_LCD/STM32_template_proj/Drivers/STM32F1xx_HAL_Driver/Inc\stm32f1xx_ll_exti.h ****   *         @arg @ref LL_EXTI_LINE_0
 242:C:/Users/nace/OneDrive/Desktop/STM32/Projects_nace/NUCLEO_LL_Project_LCD/STM32_template_proj/Drivers/STM32F1xx_HAL_Driver/Inc\stm32f1xx_ll_exti.h ****   *         @arg @ref LL_EXTI_LINE_1
 243:C:/Users/nace/OneDrive/Desktop/STM32/Projects_nace/NUCLEO_LL_Project_LCD/STM32_template_proj/Drivers/STM32F1xx_HAL_Driver/Inc\stm32f1xx_ll_exti.h ****   *         @arg @ref LL_EXTI_LINE_2
 244:C:/Users/nace/OneDrive/Desktop/STM32/Projects_nace/NUCLEO_LL_Project_LCD/STM32_template_proj/Drivers/STM32F1xx_HAL_Driver/Inc\stm32f1xx_ll_exti.h ****   *         @arg @ref LL_EXTI_LINE_3
 245:C:/Users/nace/OneDrive/Desktop/STM32/Projects_nace/NUCLEO_LL_Project_LCD/STM32_template_proj/Drivers/STM32F1xx_HAL_Driver/Inc\stm32f1xx_ll_exti.h ****   *         @arg @ref LL_EXTI_LINE_4
 246:C:/Users/nace/OneDrive/Desktop/STM32/Projects_nace/NUCLEO_LL_Project_LCD/STM32_template_proj/Drivers/STM32F1xx_HAL_Driver/Inc\stm32f1xx_ll_exti.h ****   *         @arg @ref LL_EXTI_LINE_5
 247:C:/Users/nace/OneDrive/Desktop/STM32/Projects_nace/NUCLEO_LL_Project_LCD/STM32_template_proj/Drivers/STM32F1xx_HAL_Driver/Inc\stm32f1xx_ll_exti.h ****   *         @arg @ref LL_EXTI_LINE_6
 248:C:/Users/nace/OneDrive/Desktop/STM32/Projects_nace/NUCLEO_LL_Project_LCD/STM32_template_proj/Drivers/STM32F1xx_HAL_Driver/Inc\stm32f1xx_ll_exti.h ****   *         @arg @ref LL_EXTI_LINE_7
 249:C:/Users/nace/OneDrive/Desktop/STM32/Projects_nace/NUCLEO_LL_Project_LCD/STM32_template_proj/Drivers/STM32F1xx_HAL_Driver/Inc\stm32f1xx_ll_exti.h ****   *         @arg @ref LL_EXTI_LINE_8
 250:C:/Users/nace/OneDrive/Desktop/STM32/Projects_nace/NUCLEO_LL_Project_LCD/STM32_template_proj/Drivers/STM32F1xx_HAL_Driver/Inc\stm32f1xx_ll_exti.h ****   *         @arg @ref LL_EXTI_LINE_9
 251:C:/Users/nace/OneDrive/Desktop/STM32/Projects_nace/NUCLEO_LL_Project_LCD/STM32_template_proj/Drivers/STM32F1xx_HAL_Driver/Inc\stm32f1xx_ll_exti.h ****   *         @arg @ref LL_EXTI_LINE_10
 252:C:/Users/nace/OneDrive/Desktop/STM32/Projects_nace/NUCLEO_LL_Project_LCD/STM32_template_proj/Drivers/STM32F1xx_HAL_Driver/Inc\stm32f1xx_ll_exti.h ****   *         @arg @ref LL_EXTI_LINE_11
 253:C:/Users/nace/OneDrive/Desktop/STM32/Projects_nace/NUCLEO_LL_Project_LCD/STM32_template_proj/Drivers/STM32F1xx_HAL_Driver/Inc\stm32f1xx_ll_exti.h ****   *         @arg @ref LL_EXTI_LINE_12
 254:C:/Users/nace/OneDrive/Desktop/STM32/Projects_nace/NUCLEO_LL_Project_LCD/STM32_template_proj/Drivers/STM32F1xx_HAL_Driver/Inc\stm32f1xx_ll_exti.h ****   *         @arg @ref LL_EXTI_LINE_13
 255:C:/Users/nace/OneDrive/Desktop/STM32/Projects_nace/NUCLEO_LL_Project_LCD/STM32_template_proj/Drivers/STM32F1xx_HAL_Driver/Inc\stm32f1xx_ll_exti.h ****   *         @arg @ref LL_EXTI_LINE_14
 256:C:/Users/nace/OneDrive/Desktop/STM32/Projects_nace/NUCLEO_LL_Project_LCD/STM32_template_proj/Drivers/STM32F1xx_HAL_Driver/Inc\stm32f1xx_ll_exti.h ****   *         @arg @ref LL_EXTI_LINE_15
 257:C:/Users/nace/OneDrive/Desktop/STM32/Projects_nace/NUCLEO_LL_Project_LCD/STM32_template_proj/Drivers/STM32F1xx_HAL_Driver/Inc\stm32f1xx_ll_exti.h ****   *         @arg @ref LL_EXTI_LINE_16
 258:C:/Users/nace/OneDrive/Desktop/STM32/Projects_nace/NUCLEO_LL_Project_LCD/STM32_template_proj/Drivers/STM32F1xx_HAL_Driver/Inc\stm32f1xx_ll_exti.h ****   *         @arg @ref LL_EXTI_LINE_17
 259:C:/Users/nace/OneDrive/Desktop/STM32/Projects_nace/NUCLEO_LL_Project_LCD/STM32_template_proj/Drivers/STM32F1xx_HAL_Driver/Inc\stm32f1xx_ll_exti.h ****   *         @arg @ref LL_EXTI_LINE_18
 260:C:/Users/nace/OneDrive/Desktop/STM32/Projects_nace/NUCLEO_LL_Project_LCD/STM32_template_proj/Drivers/STM32F1xx_HAL_Driver/Inc\stm32f1xx_ll_exti.h ****   *         @arg @ref LL_EXTI_LINE_19
 261:C:/Users/nace/OneDrive/Desktop/STM32/Projects_nace/NUCLEO_LL_Project_LCD/STM32_template_proj/Drivers/STM32F1xx_HAL_Driver/Inc\stm32f1xx_ll_exti.h ****   *         @arg @ref LL_EXTI_LINE_ALL_0_31
 262:C:/Users/nace/OneDrive/Desktop/STM32/Projects_nace/NUCLEO_LL_Project_LCD/STM32_template_proj/Drivers/STM32F1xx_HAL_Driver/Inc\stm32f1xx_ll_exti.h ****   * @note   Please check each device line mapping for EXTI Line availability
 263:C:/Users/nace/OneDrive/Desktop/STM32/Projects_nace/NUCLEO_LL_Project_LCD/STM32_template_proj/Drivers/STM32F1xx_HAL_Driver/Inc\stm32f1xx_ll_exti.h ****   * @retval None
 264:C:/Users/nace/OneDrive/Desktop/STM32/Projects_nace/NUCLEO_LL_Project_LCD/STM32_template_proj/Drivers/STM32F1xx_HAL_Driver/Inc\stm32f1xx_ll_exti.h ****   */
 265:C:/Users/nace/OneDrive/Desktop/STM32/Projects_nace/NUCLEO_LL_Project_LCD/STM32_template_proj/Drivers/STM32F1xx_HAL_Driver/Inc\stm32f1xx_ll_exti.h **** __STATIC_INLINE void LL_EXTI_EnableIT_0_31(uint32_t ExtiLine)
 266:C:/Users/nace/OneDrive/Desktop/STM32/Projects_nace/NUCLEO_LL_Project_LCD/STM32_template_proj/Drivers/STM32F1xx_HAL_Driver/Inc\stm32f1xx_ll_exti.h **** {
 267:C:/Users/nace/OneDrive/Desktop/STM32/Projects_nace/NUCLEO_LL_Project_LCD/STM32_template_proj/Drivers/STM32F1xx_HAL_Driver/Inc\stm32f1xx_ll_exti.h ****   SET_BIT(EXTI->IMR, ExtiLine);
 268:C:/Users/nace/OneDrive/Desktop/STM32/Projects_nace/NUCLEO_LL_Project_LCD/STM32_template_proj/Drivers/STM32F1xx_HAL_Driver/Inc\stm32f1xx_ll_exti.h **** }
 269:C:/Users/nace/OneDrive/Desktop/STM32/Projects_nace/NUCLEO_LL_Project_LCD/STM32_template_proj/Drivers/STM32F1xx_HAL_Driver/Inc\stm32f1xx_ll_exti.h **** 
 270:C:/Users/nace/OneDrive/Desktop/STM32/Projects_nace/NUCLEO_LL_Project_LCD/STM32_template_proj/Drivers/STM32F1xx_HAL_Driver/Inc\stm32f1xx_ll_exti.h **** /**
 271:C:/Users/nace/OneDrive/Desktop/STM32/Projects_nace/NUCLEO_LL_Project_LCD/STM32_template_proj/Drivers/STM32F1xx_HAL_Driver/Inc\stm32f1xx_ll_exti.h ****   * @brief  Disable ExtiLine Interrupt request for Lines in range 0 to 31
 272:C:/Users/nace/OneDrive/Desktop/STM32/Projects_nace/NUCLEO_LL_Project_LCD/STM32_template_proj/Drivers/STM32F1xx_HAL_Driver/Inc\stm32f1xx_ll_exti.h ****   * @note The reset value for the direct or internal lines (see RM)
 273:C:/Users/nace/OneDrive/Desktop/STM32/Projects_nace/NUCLEO_LL_Project_LCD/STM32_template_proj/Drivers/STM32F1xx_HAL_Driver/Inc\stm32f1xx_ll_exti.h ****   *       is set to 1 in order to enable the interrupt by default.
 274:C:/Users/nace/OneDrive/Desktop/STM32/Projects_nace/NUCLEO_LL_Project_LCD/STM32_template_proj/Drivers/STM32F1xx_HAL_Driver/Inc\stm32f1xx_ll_exti.h ****   *       Bits are set automatically at Power on.
 275:C:/Users/nace/OneDrive/Desktop/STM32/Projects_nace/NUCLEO_LL_Project_LCD/STM32_template_proj/Drivers/STM32F1xx_HAL_Driver/Inc\stm32f1xx_ll_exti.h ****   * @rmtoll IMR         IMx           LL_EXTI_DisableIT_0_31
 276:C:/Users/nace/OneDrive/Desktop/STM32/Projects_nace/NUCLEO_LL_Project_LCD/STM32_template_proj/Drivers/STM32F1xx_HAL_Driver/Inc\stm32f1xx_ll_exti.h ****   * @param  ExtiLine This parameter can be one of the following values:
 277:C:/Users/nace/OneDrive/Desktop/STM32/Projects_nace/NUCLEO_LL_Project_LCD/STM32_template_proj/Drivers/STM32F1xx_HAL_Driver/Inc\stm32f1xx_ll_exti.h ****   *         @arg @ref LL_EXTI_LINE_0
 278:C:/Users/nace/OneDrive/Desktop/STM32/Projects_nace/NUCLEO_LL_Project_LCD/STM32_template_proj/Drivers/STM32F1xx_HAL_Driver/Inc\stm32f1xx_ll_exti.h ****   *         @arg @ref LL_EXTI_LINE_1
 279:C:/Users/nace/OneDrive/Desktop/STM32/Projects_nace/NUCLEO_LL_Project_LCD/STM32_template_proj/Drivers/STM32F1xx_HAL_Driver/Inc\stm32f1xx_ll_exti.h ****   *         @arg @ref LL_EXTI_LINE_2
 280:C:/Users/nace/OneDrive/Desktop/STM32/Projects_nace/NUCLEO_LL_Project_LCD/STM32_template_proj/Drivers/STM32F1xx_HAL_Driver/Inc\stm32f1xx_ll_exti.h ****   *         @arg @ref LL_EXTI_LINE_3
 281:C:/Users/nace/OneDrive/Desktop/STM32/Projects_nace/NUCLEO_LL_Project_LCD/STM32_template_proj/Drivers/STM32F1xx_HAL_Driver/Inc\stm32f1xx_ll_exti.h ****   *         @arg @ref LL_EXTI_LINE_4
 282:C:/Users/nace/OneDrive/Desktop/STM32/Projects_nace/NUCLEO_LL_Project_LCD/STM32_template_proj/Drivers/STM32F1xx_HAL_Driver/Inc\stm32f1xx_ll_exti.h ****   *         @arg @ref LL_EXTI_LINE_5
 283:C:/Users/nace/OneDrive/Desktop/STM32/Projects_nace/NUCLEO_LL_Project_LCD/STM32_template_proj/Drivers/STM32F1xx_HAL_Driver/Inc\stm32f1xx_ll_exti.h ****   *         @arg @ref LL_EXTI_LINE_6
 284:C:/Users/nace/OneDrive/Desktop/STM32/Projects_nace/NUCLEO_LL_Project_LCD/STM32_template_proj/Drivers/STM32F1xx_HAL_Driver/Inc\stm32f1xx_ll_exti.h ****   *         @arg @ref LL_EXTI_LINE_7
 285:C:/Users/nace/OneDrive/Desktop/STM32/Projects_nace/NUCLEO_LL_Project_LCD/STM32_template_proj/Drivers/STM32F1xx_HAL_Driver/Inc\stm32f1xx_ll_exti.h ****   *         @arg @ref LL_EXTI_LINE_8
 286:C:/Users/nace/OneDrive/Desktop/STM32/Projects_nace/NUCLEO_LL_Project_LCD/STM32_template_proj/Drivers/STM32F1xx_HAL_Driver/Inc\stm32f1xx_ll_exti.h ****   *         @arg @ref LL_EXTI_LINE_9
 287:C:/Users/nace/OneDrive/Desktop/STM32/Projects_nace/NUCLEO_LL_Project_LCD/STM32_template_proj/Drivers/STM32F1xx_HAL_Driver/Inc\stm32f1xx_ll_exti.h ****   *         @arg @ref LL_EXTI_LINE_10
 288:C:/Users/nace/OneDrive/Desktop/STM32/Projects_nace/NUCLEO_LL_Project_LCD/STM32_template_proj/Drivers/STM32F1xx_HAL_Driver/Inc\stm32f1xx_ll_exti.h ****   *         @arg @ref LL_EXTI_LINE_11
 289:C:/Users/nace/OneDrive/Desktop/STM32/Projects_nace/NUCLEO_LL_Project_LCD/STM32_template_proj/Drivers/STM32F1xx_HAL_Driver/Inc\stm32f1xx_ll_exti.h ****   *         @arg @ref LL_EXTI_LINE_12
 290:C:/Users/nace/OneDrive/Desktop/STM32/Projects_nace/NUCLEO_LL_Project_LCD/STM32_template_proj/Drivers/STM32F1xx_HAL_Driver/Inc\stm32f1xx_ll_exti.h ****   *         @arg @ref LL_EXTI_LINE_13
 291:C:/Users/nace/OneDrive/Desktop/STM32/Projects_nace/NUCLEO_LL_Project_LCD/STM32_template_proj/Drivers/STM32F1xx_HAL_Driver/Inc\stm32f1xx_ll_exti.h ****   *         @arg @ref LL_EXTI_LINE_14
 292:C:/Users/nace/OneDrive/Desktop/STM32/Projects_nace/NUCLEO_LL_Project_LCD/STM32_template_proj/Drivers/STM32F1xx_HAL_Driver/Inc\stm32f1xx_ll_exti.h ****   *         @arg @ref LL_EXTI_LINE_15
 293:C:/Users/nace/OneDrive/Desktop/STM32/Projects_nace/NUCLEO_LL_Project_LCD/STM32_template_proj/Drivers/STM32F1xx_HAL_Driver/Inc\stm32f1xx_ll_exti.h ****   *         @arg @ref LL_EXTI_LINE_16
 294:C:/Users/nace/OneDrive/Desktop/STM32/Projects_nace/NUCLEO_LL_Project_LCD/STM32_template_proj/Drivers/STM32F1xx_HAL_Driver/Inc\stm32f1xx_ll_exti.h ****   *         @arg @ref LL_EXTI_LINE_17
 295:C:/Users/nace/OneDrive/Desktop/STM32/Projects_nace/NUCLEO_LL_Project_LCD/STM32_template_proj/Drivers/STM32F1xx_HAL_Driver/Inc\stm32f1xx_ll_exti.h ****   *         @arg @ref LL_EXTI_LINE_18
 296:C:/Users/nace/OneDrive/Desktop/STM32/Projects_nace/NUCLEO_LL_Project_LCD/STM32_template_proj/Drivers/STM32F1xx_HAL_Driver/Inc\stm32f1xx_ll_exti.h ****   *         @arg @ref LL_EXTI_LINE_19
 297:C:/Users/nace/OneDrive/Desktop/STM32/Projects_nace/NUCLEO_LL_Project_LCD/STM32_template_proj/Drivers/STM32F1xx_HAL_Driver/Inc\stm32f1xx_ll_exti.h ****   *         @arg @ref LL_EXTI_LINE_ALL_0_31
 298:C:/Users/nace/OneDrive/Desktop/STM32/Projects_nace/NUCLEO_LL_Project_LCD/STM32_template_proj/Drivers/STM32F1xx_HAL_Driver/Inc\stm32f1xx_ll_exti.h ****   * @note   Please check each device line mapping for EXTI Line availability
 299:C:/Users/nace/OneDrive/Desktop/STM32/Projects_nace/NUCLEO_LL_Project_LCD/STM32_template_proj/Drivers/STM32F1xx_HAL_Driver/Inc\stm32f1xx_ll_exti.h ****   * @retval None
 300:C:/Users/nace/OneDrive/Desktop/STM32/Projects_nace/NUCLEO_LL_Project_LCD/STM32_template_proj/Drivers/STM32F1xx_HAL_Driver/Inc\stm32f1xx_ll_exti.h ****   */
 301:C:/Users/nace/OneDrive/Desktop/STM32/Projects_nace/NUCLEO_LL_Project_LCD/STM32_template_proj/Drivers/STM32F1xx_HAL_Driver/Inc\stm32f1xx_ll_exti.h **** __STATIC_INLINE void LL_EXTI_DisableIT_0_31(uint32_t ExtiLine)
 302:C:/Users/nace/OneDrive/Desktop/STM32/Projects_nace/NUCLEO_LL_Project_LCD/STM32_template_proj/Drivers/STM32F1xx_HAL_Driver/Inc\stm32f1xx_ll_exti.h **** {
 303:C:/Users/nace/OneDrive/Desktop/STM32/Projects_nace/NUCLEO_LL_Project_LCD/STM32_template_proj/Drivers/STM32F1xx_HAL_Driver/Inc\stm32f1xx_ll_exti.h ****   CLEAR_BIT(EXTI->IMR, ExtiLine);
 304:C:/Users/nace/OneDrive/Desktop/STM32/Projects_nace/NUCLEO_LL_Project_LCD/STM32_template_proj/Drivers/STM32F1xx_HAL_Driver/Inc\stm32f1xx_ll_exti.h **** }
 305:C:/Users/nace/OneDrive/Desktop/STM32/Projects_nace/NUCLEO_LL_Project_LCD/STM32_template_proj/Drivers/STM32F1xx_HAL_Driver/Inc\stm32f1xx_ll_exti.h **** 
 306:C:/Users/nace/OneDrive/Desktop/STM32/Projects_nace/NUCLEO_LL_Project_LCD/STM32_template_proj/Drivers/STM32F1xx_HAL_Driver/Inc\stm32f1xx_ll_exti.h **** 
 307:C:/Users/nace/OneDrive/Desktop/STM32/Projects_nace/NUCLEO_LL_Project_LCD/STM32_template_proj/Drivers/STM32F1xx_HAL_Driver/Inc\stm32f1xx_ll_exti.h **** /**
 308:C:/Users/nace/OneDrive/Desktop/STM32/Projects_nace/NUCLEO_LL_Project_LCD/STM32_template_proj/Drivers/STM32F1xx_HAL_Driver/Inc\stm32f1xx_ll_exti.h ****   * @brief  Indicate if ExtiLine Interrupt request is enabled for Lines in range 0 to 31
 309:C:/Users/nace/OneDrive/Desktop/STM32/Projects_nace/NUCLEO_LL_Project_LCD/STM32_template_proj/Drivers/STM32F1xx_HAL_Driver/Inc\stm32f1xx_ll_exti.h ****   * @note The reset value for the direct or internal lines (see RM)
 310:C:/Users/nace/OneDrive/Desktop/STM32/Projects_nace/NUCLEO_LL_Project_LCD/STM32_template_proj/Drivers/STM32F1xx_HAL_Driver/Inc\stm32f1xx_ll_exti.h ****   *       is set to 1 in order to enable the interrupt by default.
 311:C:/Users/nace/OneDrive/Desktop/STM32/Projects_nace/NUCLEO_LL_Project_LCD/STM32_template_proj/Drivers/STM32F1xx_HAL_Driver/Inc\stm32f1xx_ll_exti.h ****   *       Bits are set automatically at Power on.
 312:C:/Users/nace/OneDrive/Desktop/STM32/Projects_nace/NUCLEO_LL_Project_LCD/STM32_template_proj/Drivers/STM32F1xx_HAL_Driver/Inc\stm32f1xx_ll_exti.h ****   * @rmtoll IMR         IMx           LL_EXTI_IsEnabledIT_0_31
 313:C:/Users/nace/OneDrive/Desktop/STM32/Projects_nace/NUCLEO_LL_Project_LCD/STM32_template_proj/Drivers/STM32F1xx_HAL_Driver/Inc\stm32f1xx_ll_exti.h ****   * @param  ExtiLine This parameter can be one of the following values:
 314:C:/Users/nace/OneDrive/Desktop/STM32/Projects_nace/NUCLEO_LL_Project_LCD/STM32_template_proj/Drivers/STM32F1xx_HAL_Driver/Inc\stm32f1xx_ll_exti.h ****   *         @arg @ref LL_EXTI_LINE_0
 315:C:/Users/nace/OneDrive/Desktop/STM32/Projects_nace/NUCLEO_LL_Project_LCD/STM32_template_proj/Drivers/STM32F1xx_HAL_Driver/Inc\stm32f1xx_ll_exti.h ****   *         @arg @ref LL_EXTI_LINE_1
 316:C:/Users/nace/OneDrive/Desktop/STM32/Projects_nace/NUCLEO_LL_Project_LCD/STM32_template_proj/Drivers/STM32F1xx_HAL_Driver/Inc\stm32f1xx_ll_exti.h ****   *         @arg @ref LL_EXTI_LINE_2
 317:C:/Users/nace/OneDrive/Desktop/STM32/Projects_nace/NUCLEO_LL_Project_LCD/STM32_template_proj/Drivers/STM32F1xx_HAL_Driver/Inc\stm32f1xx_ll_exti.h ****   *         @arg @ref LL_EXTI_LINE_3
 318:C:/Users/nace/OneDrive/Desktop/STM32/Projects_nace/NUCLEO_LL_Project_LCD/STM32_template_proj/Drivers/STM32F1xx_HAL_Driver/Inc\stm32f1xx_ll_exti.h ****   *         @arg @ref LL_EXTI_LINE_4
 319:C:/Users/nace/OneDrive/Desktop/STM32/Projects_nace/NUCLEO_LL_Project_LCD/STM32_template_proj/Drivers/STM32F1xx_HAL_Driver/Inc\stm32f1xx_ll_exti.h ****   *         @arg @ref LL_EXTI_LINE_5
 320:C:/Users/nace/OneDrive/Desktop/STM32/Projects_nace/NUCLEO_LL_Project_LCD/STM32_template_proj/Drivers/STM32F1xx_HAL_Driver/Inc\stm32f1xx_ll_exti.h ****   *         @arg @ref LL_EXTI_LINE_6
 321:C:/Users/nace/OneDrive/Desktop/STM32/Projects_nace/NUCLEO_LL_Project_LCD/STM32_template_proj/Drivers/STM32F1xx_HAL_Driver/Inc\stm32f1xx_ll_exti.h ****   *         @arg @ref LL_EXTI_LINE_7
 322:C:/Users/nace/OneDrive/Desktop/STM32/Projects_nace/NUCLEO_LL_Project_LCD/STM32_template_proj/Drivers/STM32F1xx_HAL_Driver/Inc\stm32f1xx_ll_exti.h ****   *         @arg @ref LL_EXTI_LINE_8
 323:C:/Users/nace/OneDrive/Desktop/STM32/Projects_nace/NUCLEO_LL_Project_LCD/STM32_template_proj/Drivers/STM32F1xx_HAL_Driver/Inc\stm32f1xx_ll_exti.h ****   *         @arg @ref LL_EXTI_LINE_9
 324:C:/Users/nace/OneDrive/Desktop/STM32/Projects_nace/NUCLEO_LL_Project_LCD/STM32_template_proj/Drivers/STM32F1xx_HAL_Driver/Inc\stm32f1xx_ll_exti.h ****   *         @arg @ref LL_EXTI_LINE_10
 325:C:/Users/nace/OneDrive/Desktop/STM32/Projects_nace/NUCLEO_LL_Project_LCD/STM32_template_proj/Drivers/STM32F1xx_HAL_Driver/Inc\stm32f1xx_ll_exti.h ****   *         @arg @ref LL_EXTI_LINE_11
 326:C:/Users/nace/OneDrive/Desktop/STM32/Projects_nace/NUCLEO_LL_Project_LCD/STM32_template_proj/Drivers/STM32F1xx_HAL_Driver/Inc\stm32f1xx_ll_exti.h ****   *         @arg @ref LL_EXTI_LINE_12
 327:C:/Users/nace/OneDrive/Desktop/STM32/Projects_nace/NUCLEO_LL_Project_LCD/STM32_template_proj/Drivers/STM32F1xx_HAL_Driver/Inc\stm32f1xx_ll_exti.h ****   *         @arg @ref LL_EXTI_LINE_13
 328:C:/Users/nace/OneDrive/Desktop/STM32/Projects_nace/NUCLEO_LL_Project_LCD/STM32_template_proj/Drivers/STM32F1xx_HAL_Driver/Inc\stm32f1xx_ll_exti.h ****   *         @arg @ref LL_EXTI_LINE_14
 329:C:/Users/nace/OneDrive/Desktop/STM32/Projects_nace/NUCLEO_LL_Project_LCD/STM32_template_proj/Drivers/STM32F1xx_HAL_Driver/Inc\stm32f1xx_ll_exti.h ****   *         @arg @ref LL_EXTI_LINE_15
 330:C:/Users/nace/OneDrive/Desktop/STM32/Projects_nace/NUCLEO_LL_Project_LCD/STM32_template_proj/Drivers/STM32F1xx_HAL_Driver/Inc\stm32f1xx_ll_exti.h ****   *         @arg @ref LL_EXTI_LINE_16
 331:C:/Users/nace/OneDrive/Desktop/STM32/Projects_nace/NUCLEO_LL_Project_LCD/STM32_template_proj/Drivers/STM32F1xx_HAL_Driver/Inc\stm32f1xx_ll_exti.h ****   *         @arg @ref LL_EXTI_LINE_17
 332:C:/Users/nace/OneDrive/Desktop/STM32/Projects_nace/NUCLEO_LL_Project_LCD/STM32_template_proj/Drivers/STM32F1xx_HAL_Driver/Inc\stm32f1xx_ll_exti.h ****   *         @arg @ref LL_EXTI_LINE_18
 333:C:/Users/nace/OneDrive/Desktop/STM32/Projects_nace/NUCLEO_LL_Project_LCD/STM32_template_proj/Drivers/STM32F1xx_HAL_Driver/Inc\stm32f1xx_ll_exti.h ****   *         @arg @ref LL_EXTI_LINE_19
 334:C:/Users/nace/OneDrive/Desktop/STM32/Projects_nace/NUCLEO_LL_Project_LCD/STM32_template_proj/Drivers/STM32F1xx_HAL_Driver/Inc\stm32f1xx_ll_exti.h ****   *         @arg @ref LL_EXTI_LINE_ALL_0_31
 335:C:/Users/nace/OneDrive/Desktop/STM32/Projects_nace/NUCLEO_LL_Project_LCD/STM32_template_proj/Drivers/STM32F1xx_HAL_Driver/Inc\stm32f1xx_ll_exti.h ****   * @note   Please check each device line mapping for EXTI Line availability
 336:C:/Users/nace/OneDrive/Desktop/STM32/Projects_nace/NUCLEO_LL_Project_LCD/STM32_template_proj/Drivers/STM32F1xx_HAL_Driver/Inc\stm32f1xx_ll_exti.h ****   * @retval State of bit (1 or 0).
 337:C:/Users/nace/OneDrive/Desktop/STM32/Projects_nace/NUCLEO_LL_Project_LCD/STM32_template_proj/Drivers/STM32F1xx_HAL_Driver/Inc\stm32f1xx_ll_exti.h ****   */
 338:C:/Users/nace/OneDrive/Desktop/STM32/Projects_nace/NUCLEO_LL_Project_LCD/STM32_template_proj/Drivers/STM32F1xx_HAL_Driver/Inc\stm32f1xx_ll_exti.h **** __STATIC_INLINE uint32_t LL_EXTI_IsEnabledIT_0_31(uint32_t ExtiLine)
 339:C:/Users/nace/OneDrive/Desktop/STM32/Projects_nace/NUCLEO_LL_Project_LCD/STM32_template_proj/Drivers/STM32F1xx_HAL_Driver/Inc\stm32f1xx_ll_exti.h **** {
 340:C:/Users/nace/OneDrive/Desktop/STM32/Projects_nace/NUCLEO_LL_Project_LCD/STM32_template_proj/Drivers/STM32F1xx_HAL_Driver/Inc\stm32f1xx_ll_exti.h ****   return (READ_BIT(EXTI->IMR, ExtiLine) == (ExtiLine));
 341:C:/Users/nace/OneDrive/Desktop/STM32/Projects_nace/NUCLEO_LL_Project_LCD/STM32_template_proj/Drivers/STM32F1xx_HAL_Driver/Inc\stm32f1xx_ll_exti.h **** }
 342:C:/Users/nace/OneDrive/Desktop/STM32/Projects_nace/NUCLEO_LL_Project_LCD/STM32_template_proj/Drivers/STM32F1xx_HAL_Driver/Inc\stm32f1xx_ll_exti.h **** 
 343:C:/Users/nace/OneDrive/Desktop/STM32/Projects_nace/NUCLEO_LL_Project_LCD/STM32_template_proj/Drivers/STM32F1xx_HAL_Driver/Inc\stm32f1xx_ll_exti.h **** 
 344:C:/Users/nace/OneDrive/Desktop/STM32/Projects_nace/NUCLEO_LL_Project_LCD/STM32_template_proj/Drivers/STM32F1xx_HAL_Driver/Inc\stm32f1xx_ll_exti.h **** /**
 345:C:/Users/nace/OneDrive/Desktop/STM32/Projects_nace/NUCLEO_LL_Project_LCD/STM32_template_proj/Drivers/STM32F1xx_HAL_Driver/Inc\stm32f1xx_ll_exti.h ****   * @}
 346:C:/Users/nace/OneDrive/Desktop/STM32/Projects_nace/NUCLEO_LL_Project_LCD/STM32_template_proj/Drivers/STM32F1xx_HAL_Driver/Inc\stm32f1xx_ll_exti.h ****   */
 347:C:/Users/nace/OneDrive/Desktop/STM32/Projects_nace/NUCLEO_LL_Project_LCD/STM32_template_proj/Drivers/STM32F1xx_HAL_Driver/Inc\stm32f1xx_ll_exti.h **** 
 348:C:/Users/nace/OneDrive/Desktop/STM32/Projects_nace/NUCLEO_LL_Project_LCD/STM32_template_proj/Drivers/STM32F1xx_HAL_Driver/Inc\stm32f1xx_ll_exti.h **** /** @defgroup EXTI_LL_EF_Event_Management Event_Management
 349:C:/Users/nace/OneDrive/Desktop/STM32/Projects_nace/NUCLEO_LL_Project_LCD/STM32_template_proj/Drivers/STM32F1xx_HAL_Driver/Inc\stm32f1xx_ll_exti.h ****   * @{
 350:C:/Users/nace/OneDrive/Desktop/STM32/Projects_nace/NUCLEO_LL_Project_LCD/STM32_template_proj/Drivers/STM32F1xx_HAL_Driver/Inc\stm32f1xx_ll_exti.h ****   */
 351:C:/Users/nace/OneDrive/Desktop/STM32/Projects_nace/NUCLEO_LL_Project_LCD/STM32_template_proj/Drivers/STM32F1xx_HAL_Driver/Inc\stm32f1xx_ll_exti.h **** 
 352:C:/Users/nace/OneDrive/Desktop/STM32/Projects_nace/NUCLEO_LL_Project_LCD/STM32_template_proj/Drivers/STM32F1xx_HAL_Driver/Inc\stm32f1xx_ll_exti.h **** /**
 353:C:/Users/nace/OneDrive/Desktop/STM32/Projects_nace/NUCLEO_LL_Project_LCD/STM32_template_proj/Drivers/STM32F1xx_HAL_Driver/Inc\stm32f1xx_ll_exti.h ****   * @brief  Enable ExtiLine Event request for Lines in range 0 to 31
 354:C:/Users/nace/OneDrive/Desktop/STM32/Projects_nace/NUCLEO_LL_Project_LCD/STM32_template_proj/Drivers/STM32F1xx_HAL_Driver/Inc\stm32f1xx_ll_exti.h ****   * @rmtoll EMR         EMx           LL_EXTI_EnableEvent_0_31
 355:C:/Users/nace/OneDrive/Desktop/STM32/Projects_nace/NUCLEO_LL_Project_LCD/STM32_template_proj/Drivers/STM32F1xx_HAL_Driver/Inc\stm32f1xx_ll_exti.h ****   * @param  ExtiLine This parameter can be one of the following values:
 356:C:/Users/nace/OneDrive/Desktop/STM32/Projects_nace/NUCLEO_LL_Project_LCD/STM32_template_proj/Drivers/STM32F1xx_HAL_Driver/Inc\stm32f1xx_ll_exti.h ****   *         @arg @ref LL_EXTI_LINE_0
 357:C:/Users/nace/OneDrive/Desktop/STM32/Projects_nace/NUCLEO_LL_Project_LCD/STM32_template_proj/Drivers/STM32F1xx_HAL_Driver/Inc\stm32f1xx_ll_exti.h ****   *         @arg @ref LL_EXTI_LINE_1
 358:C:/Users/nace/OneDrive/Desktop/STM32/Projects_nace/NUCLEO_LL_Project_LCD/STM32_template_proj/Drivers/STM32F1xx_HAL_Driver/Inc\stm32f1xx_ll_exti.h ****   *         @arg @ref LL_EXTI_LINE_2
 359:C:/Users/nace/OneDrive/Desktop/STM32/Projects_nace/NUCLEO_LL_Project_LCD/STM32_template_proj/Drivers/STM32F1xx_HAL_Driver/Inc\stm32f1xx_ll_exti.h ****   *         @arg @ref LL_EXTI_LINE_3
 360:C:/Users/nace/OneDrive/Desktop/STM32/Projects_nace/NUCLEO_LL_Project_LCD/STM32_template_proj/Drivers/STM32F1xx_HAL_Driver/Inc\stm32f1xx_ll_exti.h ****   *         @arg @ref LL_EXTI_LINE_4
 361:C:/Users/nace/OneDrive/Desktop/STM32/Projects_nace/NUCLEO_LL_Project_LCD/STM32_template_proj/Drivers/STM32F1xx_HAL_Driver/Inc\stm32f1xx_ll_exti.h ****   *         @arg @ref LL_EXTI_LINE_5
 362:C:/Users/nace/OneDrive/Desktop/STM32/Projects_nace/NUCLEO_LL_Project_LCD/STM32_template_proj/Drivers/STM32F1xx_HAL_Driver/Inc\stm32f1xx_ll_exti.h ****   *         @arg @ref LL_EXTI_LINE_6
 363:C:/Users/nace/OneDrive/Desktop/STM32/Projects_nace/NUCLEO_LL_Project_LCD/STM32_template_proj/Drivers/STM32F1xx_HAL_Driver/Inc\stm32f1xx_ll_exti.h ****   *         @arg @ref LL_EXTI_LINE_7
 364:C:/Users/nace/OneDrive/Desktop/STM32/Projects_nace/NUCLEO_LL_Project_LCD/STM32_template_proj/Drivers/STM32F1xx_HAL_Driver/Inc\stm32f1xx_ll_exti.h ****   *         @arg @ref LL_EXTI_LINE_8
 365:C:/Users/nace/OneDrive/Desktop/STM32/Projects_nace/NUCLEO_LL_Project_LCD/STM32_template_proj/Drivers/STM32F1xx_HAL_Driver/Inc\stm32f1xx_ll_exti.h ****   *         @arg @ref LL_EXTI_LINE_9
 366:C:/Users/nace/OneDrive/Desktop/STM32/Projects_nace/NUCLEO_LL_Project_LCD/STM32_template_proj/Drivers/STM32F1xx_HAL_Driver/Inc\stm32f1xx_ll_exti.h ****   *         @arg @ref LL_EXTI_LINE_10
 367:C:/Users/nace/OneDrive/Desktop/STM32/Projects_nace/NUCLEO_LL_Project_LCD/STM32_template_proj/Drivers/STM32F1xx_HAL_Driver/Inc\stm32f1xx_ll_exti.h ****   *         @arg @ref LL_EXTI_LINE_11
 368:C:/Users/nace/OneDrive/Desktop/STM32/Projects_nace/NUCLEO_LL_Project_LCD/STM32_template_proj/Drivers/STM32F1xx_HAL_Driver/Inc\stm32f1xx_ll_exti.h ****   *         @arg @ref LL_EXTI_LINE_12
 369:C:/Users/nace/OneDrive/Desktop/STM32/Projects_nace/NUCLEO_LL_Project_LCD/STM32_template_proj/Drivers/STM32F1xx_HAL_Driver/Inc\stm32f1xx_ll_exti.h ****   *         @arg @ref LL_EXTI_LINE_13
 370:C:/Users/nace/OneDrive/Desktop/STM32/Projects_nace/NUCLEO_LL_Project_LCD/STM32_template_proj/Drivers/STM32F1xx_HAL_Driver/Inc\stm32f1xx_ll_exti.h ****   *         @arg @ref LL_EXTI_LINE_14
 371:C:/Users/nace/OneDrive/Desktop/STM32/Projects_nace/NUCLEO_LL_Project_LCD/STM32_template_proj/Drivers/STM32F1xx_HAL_Driver/Inc\stm32f1xx_ll_exti.h ****   *         @arg @ref LL_EXTI_LINE_15
 372:C:/Users/nace/OneDrive/Desktop/STM32/Projects_nace/NUCLEO_LL_Project_LCD/STM32_template_proj/Drivers/STM32F1xx_HAL_Driver/Inc\stm32f1xx_ll_exti.h ****   *         @arg @ref LL_EXTI_LINE_16
 373:C:/Users/nace/OneDrive/Desktop/STM32/Projects_nace/NUCLEO_LL_Project_LCD/STM32_template_proj/Drivers/STM32F1xx_HAL_Driver/Inc\stm32f1xx_ll_exti.h ****   *         @arg @ref LL_EXTI_LINE_17
 374:C:/Users/nace/OneDrive/Desktop/STM32/Projects_nace/NUCLEO_LL_Project_LCD/STM32_template_proj/Drivers/STM32F1xx_HAL_Driver/Inc\stm32f1xx_ll_exti.h ****   *         @arg @ref LL_EXTI_LINE_18
 375:C:/Users/nace/OneDrive/Desktop/STM32/Projects_nace/NUCLEO_LL_Project_LCD/STM32_template_proj/Drivers/STM32F1xx_HAL_Driver/Inc\stm32f1xx_ll_exti.h ****   *         @arg @ref LL_EXTI_LINE_19
 376:C:/Users/nace/OneDrive/Desktop/STM32/Projects_nace/NUCLEO_LL_Project_LCD/STM32_template_proj/Drivers/STM32F1xx_HAL_Driver/Inc\stm32f1xx_ll_exti.h ****   *         @arg @ref LL_EXTI_LINE_ALL_0_31
 377:C:/Users/nace/OneDrive/Desktop/STM32/Projects_nace/NUCLEO_LL_Project_LCD/STM32_template_proj/Drivers/STM32F1xx_HAL_Driver/Inc\stm32f1xx_ll_exti.h ****   * @note   Please check each device line mapping for EXTI Line availability
 378:C:/Users/nace/OneDrive/Desktop/STM32/Projects_nace/NUCLEO_LL_Project_LCD/STM32_template_proj/Drivers/STM32F1xx_HAL_Driver/Inc\stm32f1xx_ll_exti.h ****   * @retval None
 379:C:/Users/nace/OneDrive/Desktop/STM32/Projects_nace/NUCLEO_LL_Project_LCD/STM32_template_proj/Drivers/STM32F1xx_HAL_Driver/Inc\stm32f1xx_ll_exti.h ****   */
 380:C:/Users/nace/OneDrive/Desktop/STM32/Projects_nace/NUCLEO_LL_Project_LCD/STM32_template_proj/Drivers/STM32F1xx_HAL_Driver/Inc\stm32f1xx_ll_exti.h **** __STATIC_INLINE void LL_EXTI_EnableEvent_0_31(uint32_t ExtiLine)
 381:C:/Users/nace/OneDrive/Desktop/STM32/Projects_nace/NUCLEO_LL_Project_LCD/STM32_template_proj/Drivers/STM32F1xx_HAL_Driver/Inc\stm32f1xx_ll_exti.h **** {
 382:C:/Users/nace/OneDrive/Desktop/STM32/Projects_nace/NUCLEO_LL_Project_LCD/STM32_template_proj/Drivers/STM32F1xx_HAL_Driver/Inc\stm32f1xx_ll_exti.h ****   SET_BIT(EXTI->EMR, ExtiLine);
 383:C:/Users/nace/OneDrive/Desktop/STM32/Projects_nace/NUCLEO_LL_Project_LCD/STM32_template_proj/Drivers/STM32F1xx_HAL_Driver/Inc\stm32f1xx_ll_exti.h **** 
 384:C:/Users/nace/OneDrive/Desktop/STM32/Projects_nace/NUCLEO_LL_Project_LCD/STM32_template_proj/Drivers/STM32F1xx_HAL_Driver/Inc\stm32f1xx_ll_exti.h **** }
 385:C:/Users/nace/OneDrive/Desktop/STM32/Projects_nace/NUCLEO_LL_Project_LCD/STM32_template_proj/Drivers/STM32F1xx_HAL_Driver/Inc\stm32f1xx_ll_exti.h **** 
 386:C:/Users/nace/OneDrive/Desktop/STM32/Projects_nace/NUCLEO_LL_Project_LCD/STM32_template_proj/Drivers/STM32F1xx_HAL_Driver/Inc\stm32f1xx_ll_exti.h **** 
 387:C:/Users/nace/OneDrive/Desktop/STM32/Projects_nace/NUCLEO_LL_Project_LCD/STM32_template_proj/Drivers/STM32F1xx_HAL_Driver/Inc\stm32f1xx_ll_exti.h **** /**
 388:C:/Users/nace/OneDrive/Desktop/STM32/Projects_nace/NUCLEO_LL_Project_LCD/STM32_template_proj/Drivers/STM32F1xx_HAL_Driver/Inc\stm32f1xx_ll_exti.h ****   * @brief  Disable ExtiLine Event request for Lines in range 0 to 31
 389:C:/Users/nace/OneDrive/Desktop/STM32/Projects_nace/NUCLEO_LL_Project_LCD/STM32_template_proj/Drivers/STM32F1xx_HAL_Driver/Inc\stm32f1xx_ll_exti.h ****   * @rmtoll EMR         EMx           LL_EXTI_DisableEvent_0_31
 390:C:/Users/nace/OneDrive/Desktop/STM32/Projects_nace/NUCLEO_LL_Project_LCD/STM32_template_proj/Drivers/STM32F1xx_HAL_Driver/Inc\stm32f1xx_ll_exti.h ****   * @param  ExtiLine This parameter can be one of the following values:
 391:C:/Users/nace/OneDrive/Desktop/STM32/Projects_nace/NUCLEO_LL_Project_LCD/STM32_template_proj/Drivers/STM32F1xx_HAL_Driver/Inc\stm32f1xx_ll_exti.h ****   *         @arg @ref LL_EXTI_LINE_0
 392:C:/Users/nace/OneDrive/Desktop/STM32/Projects_nace/NUCLEO_LL_Project_LCD/STM32_template_proj/Drivers/STM32F1xx_HAL_Driver/Inc\stm32f1xx_ll_exti.h ****   *         @arg @ref LL_EXTI_LINE_1
 393:C:/Users/nace/OneDrive/Desktop/STM32/Projects_nace/NUCLEO_LL_Project_LCD/STM32_template_proj/Drivers/STM32F1xx_HAL_Driver/Inc\stm32f1xx_ll_exti.h ****   *         @arg @ref LL_EXTI_LINE_2
 394:C:/Users/nace/OneDrive/Desktop/STM32/Projects_nace/NUCLEO_LL_Project_LCD/STM32_template_proj/Drivers/STM32F1xx_HAL_Driver/Inc\stm32f1xx_ll_exti.h ****   *         @arg @ref LL_EXTI_LINE_3
 395:C:/Users/nace/OneDrive/Desktop/STM32/Projects_nace/NUCLEO_LL_Project_LCD/STM32_template_proj/Drivers/STM32F1xx_HAL_Driver/Inc\stm32f1xx_ll_exti.h ****   *         @arg @ref LL_EXTI_LINE_4
 396:C:/Users/nace/OneDrive/Desktop/STM32/Projects_nace/NUCLEO_LL_Project_LCD/STM32_template_proj/Drivers/STM32F1xx_HAL_Driver/Inc\stm32f1xx_ll_exti.h ****   *         @arg @ref LL_EXTI_LINE_5
 397:C:/Users/nace/OneDrive/Desktop/STM32/Projects_nace/NUCLEO_LL_Project_LCD/STM32_template_proj/Drivers/STM32F1xx_HAL_Driver/Inc\stm32f1xx_ll_exti.h ****   *         @arg @ref LL_EXTI_LINE_6
 398:C:/Users/nace/OneDrive/Desktop/STM32/Projects_nace/NUCLEO_LL_Project_LCD/STM32_template_proj/Drivers/STM32F1xx_HAL_Driver/Inc\stm32f1xx_ll_exti.h ****   *         @arg @ref LL_EXTI_LINE_7
 399:C:/Users/nace/OneDrive/Desktop/STM32/Projects_nace/NUCLEO_LL_Project_LCD/STM32_template_proj/Drivers/STM32F1xx_HAL_Driver/Inc\stm32f1xx_ll_exti.h ****   *         @arg @ref LL_EXTI_LINE_8
 400:C:/Users/nace/OneDrive/Desktop/STM32/Projects_nace/NUCLEO_LL_Project_LCD/STM32_template_proj/Drivers/STM32F1xx_HAL_Driver/Inc\stm32f1xx_ll_exti.h ****   *         @arg @ref LL_EXTI_LINE_9
 401:C:/Users/nace/OneDrive/Desktop/STM32/Projects_nace/NUCLEO_LL_Project_LCD/STM32_template_proj/Drivers/STM32F1xx_HAL_Driver/Inc\stm32f1xx_ll_exti.h ****   *         @arg @ref LL_EXTI_LINE_10
 402:C:/Users/nace/OneDrive/Desktop/STM32/Projects_nace/NUCLEO_LL_Project_LCD/STM32_template_proj/Drivers/STM32F1xx_HAL_Driver/Inc\stm32f1xx_ll_exti.h ****   *         @arg @ref LL_EXTI_LINE_11
 403:C:/Users/nace/OneDrive/Desktop/STM32/Projects_nace/NUCLEO_LL_Project_LCD/STM32_template_proj/Drivers/STM32F1xx_HAL_Driver/Inc\stm32f1xx_ll_exti.h ****   *         @arg @ref LL_EXTI_LINE_12
 404:C:/Users/nace/OneDrive/Desktop/STM32/Projects_nace/NUCLEO_LL_Project_LCD/STM32_template_proj/Drivers/STM32F1xx_HAL_Driver/Inc\stm32f1xx_ll_exti.h ****   *         @arg @ref LL_EXTI_LINE_13
 405:C:/Users/nace/OneDrive/Desktop/STM32/Projects_nace/NUCLEO_LL_Project_LCD/STM32_template_proj/Drivers/STM32F1xx_HAL_Driver/Inc\stm32f1xx_ll_exti.h ****   *         @arg @ref LL_EXTI_LINE_14
 406:C:/Users/nace/OneDrive/Desktop/STM32/Projects_nace/NUCLEO_LL_Project_LCD/STM32_template_proj/Drivers/STM32F1xx_HAL_Driver/Inc\stm32f1xx_ll_exti.h ****   *         @arg @ref LL_EXTI_LINE_15
 407:C:/Users/nace/OneDrive/Desktop/STM32/Projects_nace/NUCLEO_LL_Project_LCD/STM32_template_proj/Drivers/STM32F1xx_HAL_Driver/Inc\stm32f1xx_ll_exti.h ****   *         @arg @ref LL_EXTI_LINE_16
 408:C:/Users/nace/OneDrive/Desktop/STM32/Projects_nace/NUCLEO_LL_Project_LCD/STM32_template_proj/Drivers/STM32F1xx_HAL_Driver/Inc\stm32f1xx_ll_exti.h ****   *         @arg @ref LL_EXTI_LINE_17
 409:C:/Users/nace/OneDrive/Desktop/STM32/Projects_nace/NUCLEO_LL_Project_LCD/STM32_template_proj/Drivers/STM32F1xx_HAL_Driver/Inc\stm32f1xx_ll_exti.h ****   *         @arg @ref LL_EXTI_LINE_18
 410:C:/Users/nace/OneDrive/Desktop/STM32/Projects_nace/NUCLEO_LL_Project_LCD/STM32_template_proj/Drivers/STM32F1xx_HAL_Driver/Inc\stm32f1xx_ll_exti.h ****   *         @arg @ref LL_EXTI_LINE_19
 411:C:/Users/nace/OneDrive/Desktop/STM32/Projects_nace/NUCLEO_LL_Project_LCD/STM32_template_proj/Drivers/STM32F1xx_HAL_Driver/Inc\stm32f1xx_ll_exti.h ****   *         @arg @ref LL_EXTI_LINE_ALL_0_31
 412:C:/Users/nace/OneDrive/Desktop/STM32/Projects_nace/NUCLEO_LL_Project_LCD/STM32_template_proj/Drivers/STM32F1xx_HAL_Driver/Inc\stm32f1xx_ll_exti.h ****   * @note   Please check each device line mapping for EXTI Line availability
 413:C:/Users/nace/OneDrive/Desktop/STM32/Projects_nace/NUCLEO_LL_Project_LCD/STM32_template_proj/Drivers/STM32F1xx_HAL_Driver/Inc\stm32f1xx_ll_exti.h ****   * @retval None
 414:C:/Users/nace/OneDrive/Desktop/STM32/Projects_nace/NUCLEO_LL_Project_LCD/STM32_template_proj/Drivers/STM32F1xx_HAL_Driver/Inc\stm32f1xx_ll_exti.h ****   */
 415:C:/Users/nace/OneDrive/Desktop/STM32/Projects_nace/NUCLEO_LL_Project_LCD/STM32_template_proj/Drivers/STM32F1xx_HAL_Driver/Inc\stm32f1xx_ll_exti.h **** __STATIC_INLINE void LL_EXTI_DisableEvent_0_31(uint32_t ExtiLine)
 416:C:/Users/nace/OneDrive/Desktop/STM32/Projects_nace/NUCLEO_LL_Project_LCD/STM32_template_proj/Drivers/STM32F1xx_HAL_Driver/Inc\stm32f1xx_ll_exti.h **** {
 417:C:/Users/nace/OneDrive/Desktop/STM32/Projects_nace/NUCLEO_LL_Project_LCD/STM32_template_proj/Drivers/STM32F1xx_HAL_Driver/Inc\stm32f1xx_ll_exti.h ****   CLEAR_BIT(EXTI->EMR, ExtiLine);
 418:C:/Users/nace/OneDrive/Desktop/STM32/Projects_nace/NUCLEO_LL_Project_LCD/STM32_template_proj/Drivers/STM32F1xx_HAL_Driver/Inc\stm32f1xx_ll_exti.h **** }
 419:C:/Users/nace/OneDrive/Desktop/STM32/Projects_nace/NUCLEO_LL_Project_LCD/STM32_template_proj/Drivers/STM32F1xx_HAL_Driver/Inc\stm32f1xx_ll_exti.h **** 
 420:C:/Users/nace/OneDrive/Desktop/STM32/Projects_nace/NUCLEO_LL_Project_LCD/STM32_template_proj/Drivers/STM32F1xx_HAL_Driver/Inc\stm32f1xx_ll_exti.h **** 
 421:C:/Users/nace/OneDrive/Desktop/STM32/Projects_nace/NUCLEO_LL_Project_LCD/STM32_template_proj/Drivers/STM32F1xx_HAL_Driver/Inc\stm32f1xx_ll_exti.h **** /**
 422:C:/Users/nace/OneDrive/Desktop/STM32/Projects_nace/NUCLEO_LL_Project_LCD/STM32_template_proj/Drivers/STM32F1xx_HAL_Driver/Inc\stm32f1xx_ll_exti.h ****   * @brief  Indicate if ExtiLine Event request is enabled for Lines in range 0 to 31
 423:C:/Users/nace/OneDrive/Desktop/STM32/Projects_nace/NUCLEO_LL_Project_LCD/STM32_template_proj/Drivers/STM32F1xx_HAL_Driver/Inc\stm32f1xx_ll_exti.h ****   * @rmtoll EMR         EMx           LL_EXTI_IsEnabledEvent_0_31
 424:C:/Users/nace/OneDrive/Desktop/STM32/Projects_nace/NUCLEO_LL_Project_LCD/STM32_template_proj/Drivers/STM32F1xx_HAL_Driver/Inc\stm32f1xx_ll_exti.h ****   * @param  ExtiLine This parameter can be one of the following values:
 425:C:/Users/nace/OneDrive/Desktop/STM32/Projects_nace/NUCLEO_LL_Project_LCD/STM32_template_proj/Drivers/STM32F1xx_HAL_Driver/Inc\stm32f1xx_ll_exti.h ****   *         @arg @ref LL_EXTI_LINE_0
 426:C:/Users/nace/OneDrive/Desktop/STM32/Projects_nace/NUCLEO_LL_Project_LCD/STM32_template_proj/Drivers/STM32F1xx_HAL_Driver/Inc\stm32f1xx_ll_exti.h ****   *         @arg @ref LL_EXTI_LINE_1
 427:C:/Users/nace/OneDrive/Desktop/STM32/Projects_nace/NUCLEO_LL_Project_LCD/STM32_template_proj/Drivers/STM32F1xx_HAL_Driver/Inc\stm32f1xx_ll_exti.h ****   *         @arg @ref LL_EXTI_LINE_2
 428:C:/Users/nace/OneDrive/Desktop/STM32/Projects_nace/NUCLEO_LL_Project_LCD/STM32_template_proj/Drivers/STM32F1xx_HAL_Driver/Inc\stm32f1xx_ll_exti.h ****   *         @arg @ref LL_EXTI_LINE_3
 429:C:/Users/nace/OneDrive/Desktop/STM32/Projects_nace/NUCLEO_LL_Project_LCD/STM32_template_proj/Drivers/STM32F1xx_HAL_Driver/Inc\stm32f1xx_ll_exti.h ****   *         @arg @ref LL_EXTI_LINE_4
 430:C:/Users/nace/OneDrive/Desktop/STM32/Projects_nace/NUCLEO_LL_Project_LCD/STM32_template_proj/Drivers/STM32F1xx_HAL_Driver/Inc\stm32f1xx_ll_exti.h ****   *         @arg @ref LL_EXTI_LINE_5
 431:C:/Users/nace/OneDrive/Desktop/STM32/Projects_nace/NUCLEO_LL_Project_LCD/STM32_template_proj/Drivers/STM32F1xx_HAL_Driver/Inc\stm32f1xx_ll_exti.h ****   *         @arg @ref LL_EXTI_LINE_6
 432:C:/Users/nace/OneDrive/Desktop/STM32/Projects_nace/NUCLEO_LL_Project_LCD/STM32_template_proj/Drivers/STM32F1xx_HAL_Driver/Inc\stm32f1xx_ll_exti.h ****   *         @arg @ref LL_EXTI_LINE_7
 433:C:/Users/nace/OneDrive/Desktop/STM32/Projects_nace/NUCLEO_LL_Project_LCD/STM32_template_proj/Drivers/STM32F1xx_HAL_Driver/Inc\stm32f1xx_ll_exti.h ****   *         @arg @ref LL_EXTI_LINE_8
 434:C:/Users/nace/OneDrive/Desktop/STM32/Projects_nace/NUCLEO_LL_Project_LCD/STM32_template_proj/Drivers/STM32F1xx_HAL_Driver/Inc\stm32f1xx_ll_exti.h ****   *         @arg @ref LL_EXTI_LINE_9
 435:C:/Users/nace/OneDrive/Desktop/STM32/Projects_nace/NUCLEO_LL_Project_LCD/STM32_template_proj/Drivers/STM32F1xx_HAL_Driver/Inc\stm32f1xx_ll_exti.h ****   *         @arg @ref LL_EXTI_LINE_10
 436:C:/Users/nace/OneDrive/Desktop/STM32/Projects_nace/NUCLEO_LL_Project_LCD/STM32_template_proj/Drivers/STM32F1xx_HAL_Driver/Inc\stm32f1xx_ll_exti.h ****   *         @arg @ref LL_EXTI_LINE_11
 437:C:/Users/nace/OneDrive/Desktop/STM32/Projects_nace/NUCLEO_LL_Project_LCD/STM32_template_proj/Drivers/STM32F1xx_HAL_Driver/Inc\stm32f1xx_ll_exti.h ****   *         @arg @ref LL_EXTI_LINE_12
 438:C:/Users/nace/OneDrive/Desktop/STM32/Projects_nace/NUCLEO_LL_Project_LCD/STM32_template_proj/Drivers/STM32F1xx_HAL_Driver/Inc\stm32f1xx_ll_exti.h ****   *         @arg @ref LL_EXTI_LINE_13
 439:C:/Users/nace/OneDrive/Desktop/STM32/Projects_nace/NUCLEO_LL_Project_LCD/STM32_template_proj/Drivers/STM32F1xx_HAL_Driver/Inc\stm32f1xx_ll_exti.h ****   *         @arg @ref LL_EXTI_LINE_14
 440:C:/Users/nace/OneDrive/Desktop/STM32/Projects_nace/NUCLEO_LL_Project_LCD/STM32_template_proj/Drivers/STM32F1xx_HAL_Driver/Inc\stm32f1xx_ll_exti.h ****   *         @arg @ref LL_EXTI_LINE_15
 441:C:/Users/nace/OneDrive/Desktop/STM32/Projects_nace/NUCLEO_LL_Project_LCD/STM32_template_proj/Drivers/STM32F1xx_HAL_Driver/Inc\stm32f1xx_ll_exti.h ****   *         @arg @ref LL_EXTI_LINE_16
 442:C:/Users/nace/OneDrive/Desktop/STM32/Projects_nace/NUCLEO_LL_Project_LCD/STM32_template_proj/Drivers/STM32F1xx_HAL_Driver/Inc\stm32f1xx_ll_exti.h ****   *         @arg @ref LL_EXTI_LINE_17
 443:C:/Users/nace/OneDrive/Desktop/STM32/Projects_nace/NUCLEO_LL_Project_LCD/STM32_template_proj/Drivers/STM32F1xx_HAL_Driver/Inc\stm32f1xx_ll_exti.h ****   *         @arg @ref LL_EXTI_LINE_18
 444:C:/Users/nace/OneDrive/Desktop/STM32/Projects_nace/NUCLEO_LL_Project_LCD/STM32_template_proj/Drivers/STM32F1xx_HAL_Driver/Inc\stm32f1xx_ll_exti.h ****   *         @arg @ref LL_EXTI_LINE_19
 445:C:/Users/nace/OneDrive/Desktop/STM32/Projects_nace/NUCLEO_LL_Project_LCD/STM32_template_proj/Drivers/STM32F1xx_HAL_Driver/Inc\stm32f1xx_ll_exti.h ****   *         @arg @ref LL_EXTI_LINE_ALL_0_31
 446:C:/Users/nace/OneDrive/Desktop/STM32/Projects_nace/NUCLEO_LL_Project_LCD/STM32_template_proj/Drivers/STM32F1xx_HAL_Driver/Inc\stm32f1xx_ll_exti.h ****   * @note   Please check each device line mapping for EXTI Line availability
 447:C:/Users/nace/OneDrive/Desktop/STM32/Projects_nace/NUCLEO_LL_Project_LCD/STM32_template_proj/Drivers/STM32F1xx_HAL_Driver/Inc\stm32f1xx_ll_exti.h ****   * @retval State of bit (1 or 0).
 448:C:/Users/nace/OneDrive/Desktop/STM32/Projects_nace/NUCLEO_LL_Project_LCD/STM32_template_proj/Drivers/STM32F1xx_HAL_Driver/Inc\stm32f1xx_ll_exti.h ****   */
 449:C:/Users/nace/OneDrive/Desktop/STM32/Projects_nace/NUCLEO_LL_Project_LCD/STM32_template_proj/Drivers/STM32F1xx_HAL_Driver/Inc\stm32f1xx_ll_exti.h **** __STATIC_INLINE uint32_t LL_EXTI_IsEnabledEvent_0_31(uint32_t ExtiLine)
 450:C:/Users/nace/OneDrive/Desktop/STM32/Projects_nace/NUCLEO_LL_Project_LCD/STM32_template_proj/Drivers/STM32F1xx_HAL_Driver/Inc\stm32f1xx_ll_exti.h **** {
 451:C:/Users/nace/OneDrive/Desktop/STM32/Projects_nace/NUCLEO_LL_Project_LCD/STM32_template_proj/Drivers/STM32F1xx_HAL_Driver/Inc\stm32f1xx_ll_exti.h ****   return (READ_BIT(EXTI->EMR, ExtiLine) == (ExtiLine));
 452:C:/Users/nace/OneDrive/Desktop/STM32/Projects_nace/NUCLEO_LL_Project_LCD/STM32_template_proj/Drivers/STM32F1xx_HAL_Driver/Inc\stm32f1xx_ll_exti.h **** 
 453:C:/Users/nace/OneDrive/Desktop/STM32/Projects_nace/NUCLEO_LL_Project_LCD/STM32_template_proj/Drivers/STM32F1xx_HAL_Driver/Inc\stm32f1xx_ll_exti.h **** }
 454:C:/Users/nace/OneDrive/Desktop/STM32/Projects_nace/NUCLEO_LL_Project_LCD/STM32_template_proj/Drivers/STM32F1xx_HAL_Driver/Inc\stm32f1xx_ll_exti.h **** 
 455:C:/Users/nace/OneDrive/Desktop/STM32/Projects_nace/NUCLEO_LL_Project_LCD/STM32_template_proj/Drivers/STM32F1xx_HAL_Driver/Inc\stm32f1xx_ll_exti.h **** 
 456:C:/Users/nace/OneDrive/Desktop/STM32/Projects_nace/NUCLEO_LL_Project_LCD/STM32_template_proj/Drivers/STM32F1xx_HAL_Driver/Inc\stm32f1xx_ll_exti.h **** /**
 457:C:/Users/nace/OneDrive/Desktop/STM32/Projects_nace/NUCLEO_LL_Project_LCD/STM32_template_proj/Drivers/STM32F1xx_HAL_Driver/Inc\stm32f1xx_ll_exti.h ****   * @}
 458:C:/Users/nace/OneDrive/Desktop/STM32/Projects_nace/NUCLEO_LL_Project_LCD/STM32_template_proj/Drivers/STM32F1xx_HAL_Driver/Inc\stm32f1xx_ll_exti.h ****   */
 459:C:/Users/nace/OneDrive/Desktop/STM32/Projects_nace/NUCLEO_LL_Project_LCD/STM32_template_proj/Drivers/STM32F1xx_HAL_Driver/Inc\stm32f1xx_ll_exti.h **** 
 460:C:/Users/nace/OneDrive/Desktop/STM32/Projects_nace/NUCLEO_LL_Project_LCD/STM32_template_proj/Drivers/STM32F1xx_HAL_Driver/Inc\stm32f1xx_ll_exti.h **** /** @defgroup EXTI_LL_EF_Rising_Trigger_Management Rising_Trigger_Management
 461:C:/Users/nace/OneDrive/Desktop/STM32/Projects_nace/NUCLEO_LL_Project_LCD/STM32_template_proj/Drivers/STM32F1xx_HAL_Driver/Inc\stm32f1xx_ll_exti.h ****   * @{
 462:C:/Users/nace/OneDrive/Desktop/STM32/Projects_nace/NUCLEO_LL_Project_LCD/STM32_template_proj/Drivers/STM32F1xx_HAL_Driver/Inc\stm32f1xx_ll_exti.h ****   */
 463:C:/Users/nace/OneDrive/Desktop/STM32/Projects_nace/NUCLEO_LL_Project_LCD/STM32_template_proj/Drivers/STM32F1xx_HAL_Driver/Inc\stm32f1xx_ll_exti.h **** 
 464:C:/Users/nace/OneDrive/Desktop/STM32/Projects_nace/NUCLEO_LL_Project_LCD/STM32_template_proj/Drivers/STM32F1xx_HAL_Driver/Inc\stm32f1xx_ll_exti.h **** /**
 465:C:/Users/nace/OneDrive/Desktop/STM32/Projects_nace/NUCLEO_LL_Project_LCD/STM32_template_proj/Drivers/STM32F1xx_HAL_Driver/Inc\stm32f1xx_ll_exti.h ****   * @brief  Enable ExtiLine Rising Edge Trigger for Lines in range 0 to 31
 466:C:/Users/nace/OneDrive/Desktop/STM32/Projects_nace/NUCLEO_LL_Project_LCD/STM32_template_proj/Drivers/STM32F1xx_HAL_Driver/Inc\stm32f1xx_ll_exti.h ****   * @note The configurable wakeup lines are edge-triggered. No glitch must be
 467:C:/Users/nace/OneDrive/Desktop/STM32/Projects_nace/NUCLEO_LL_Project_LCD/STM32_template_proj/Drivers/STM32F1xx_HAL_Driver/Inc\stm32f1xx_ll_exti.h ****   *       generated on these lines. If a rising edge on a configurable interrupt
 468:C:/Users/nace/OneDrive/Desktop/STM32/Projects_nace/NUCLEO_LL_Project_LCD/STM32_template_proj/Drivers/STM32F1xx_HAL_Driver/Inc\stm32f1xx_ll_exti.h ****   *       line occurs during a write operation in the EXTI_RTSR register, the
 469:C:/Users/nace/OneDrive/Desktop/STM32/Projects_nace/NUCLEO_LL_Project_LCD/STM32_template_proj/Drivers/STM32F1xx_HAL_Driver/Inc\stm32f1xx_ll_exti.h ****   *       pending bit is not set.
 470:C:/Users/nace/OneDrive/Desktop/STM32/Projects_nace/NUCLEO_LL_Project_LCD/STM32_template_proj/Drivers/STM32F1xx_HAL_Driver/Inc\stm32f1xx_ll_exti.h ****   *       Rising and falling edge triggers can be set for
 471:C:/Users/nace/OneDrive/Desktop/STM32/Projects_nace/NUCLEO_LL_Project_LCD/STM32_template_proj/Drivers/STM32F1xx_HAL_Driver/Inc\stm32f1xx_ll_exti.h ****   *       the same interrupt line. In this case, both generate a trigger
 472:C:/Users/nace/OneDrive/Desktop/STM32/Projects_nace/NUCLEO_LL_Project_LCD/STM32_template_proj/Drivers/STM32F1xx_HAL_Driver/Inc\stm32f1xx_ll_exti.h ****   *       condition.
 473:C:/Users/nace/OneDrive/Desktop/STM32/Projects_nace/NUCLEO_LL_Project_LCD/STM32_template_proj/Drivers/STM32F1xx_HAL_Driver/Inc\stm32f1xx_ll_exti.h ****   * @rmtoll RTSR        RTx           LL_EXTI_EnableRisingTrig_0_31
 474:C:/Users/nace/OneDrive/Desktop/STM32/Projects_nace/NUCLEO_LL_Project_LCD/STM32_template_proj/Drivers/STM32F1xx_HAL_Driver/Inc\stm32f1xx_ll_exti.h ****   * @param  ExtiLine This parameter can be a combination of the following values:
 475:C:/Users/nace/OneDrive/Desktop/STM32/Projects_nace/NUCLEO_LL_Project_LCD/STM32_template_proj/Drivers/STM32F1xx_HAL_Driver/Inc\stm32f1xx_ll_exti.h ****   *         @arg @ref LL_EXTI_LINE_0
 476:C:/Users/nace/OneDrive/Desktop/STM32/Projects_nace/NUCLEO_LL_Project_LCD/STM32_template_proj/Drivers/STM32F1xx_HAL_Driver/Inc\stm32f1xx_ll_exti.h ****   *         @arg @ref LL_EXTI_LINE_1
 477:C:/Users/nace/OneDrive/Desktop/STM32/Projects_nace/NUCLEO_LL_Project_LCD/STM32_template_proj/Drivers/STM32F1xx_HAL_Driver/Inc\stm32f1xx_ll_exti.h ****   *         @arg @ref LL_EXTI_LINE_2
 478:C:/Users/nace/OneDrive/Desktop/STM32/Projects_nace/NUCLEO_LL_Project_LCD/STM32_template_proj/Drivers/STM32F1xx_HAL_Driver/Inc\stm32f1xx_ll_exti.h ****   *         @arg @ref LL_EXTI_LINE_3
 479:C:/Users/nace/OneDrive/Desktop/STM32/Projects_nace/NUCLEO_LL_Project_LCD/STM32_template_proj/Drivers/STM32F1xx_HAL_Driver/Inc\stm32f1xx_ll_exti.h ****   *         @arg @ref LL_EXTI_LINE_4
 480:C:/Users/nace/OneDrive/Desktop/STM32/Projects_nace/NUCLEO_LL_Project_LCD/STM32_template_proj/Drivers/STM32F1xx_HAL_Driver/Inc\stm32f1xx_ll_exti.h ****   *         @arg @ref LL_EXTI_LINE_5
 481:C:/Users/nace/OneDrive/Desktop/STM32/Projects_nace/NUCLEO_LL_Project_LCD/STM32_template_proj/Drivers/STM32F1xx_HAL_Driver/Inc\stm32f1xx_ll_exti.h ****   *         @arg @ref LL_EXTI_LINE_6
 482:C:/Users/nace/OneDrive/Desktop/STM32/Projects_nace/NUCLEO_LL_Project_LCD/STM32_template_proj/Drivers/STM32F1xx_HAL_Driver/Inc\stm32f1xx_ll_exti.h ****   *         @arg @ref LL_EXTI_LINE_7
 483:C:/Users/nace/OneDrive/Desktop/STM32/Projects_nace/NUCLEO_LL_Project_LCD/STM32_template_proj/Drivers/STM32F1xx_HAL_Driver/Inc\stm32f1xx_ll_exti.h ****   *         @arg @ref LL_EXTI_LINE_8
 484:C:/Users/nace/OneDrive/Desktop/STM32/Projects_nace/NUCLEO_LL_Project_LCD/STM32_template_proj/Drivers/STM32F1xx_HAL_Driver/Inc\stm32f1xx_ll_exti.h ****   *         @arg @ref LL_EXTI_LINE_9
 485:C:/Users/nace/OneDrive/Desktop/STM32/Projects_nace/NUCLEO_LL_Project_LCD/STM32_template_proj/Drivers/STM32F1xx_HAL_Driver/Inc\stm32f1xx_ll_exti.h ****   *         @arg @ref LL_EXTI_LINE_10
 486:C:/Users/nace/OneDrive/Desktop/STM32/Projects_nace/NUCLEO_LL_Project_LCD/STM32_template_proj/Drivers/STM32F1xx_HAL_Driver/Inc\stm32f1xx_ll_exti.h ****   *         @arg @ref LL_EXTI_LINE_11
 487:C:/Users/nace/OneDrive/Desktop/STM32/Projects_nace/NUCLEO_LL_Project_LCD/STM32_template_proj/Drivers/STM32F1xx_HAL_Driver/Inc\stm32f1xx_ll_exti.h ****   *         @arg @ref LL_EXTI_LINE_12
 488:C:/Users/nace/OneDrive/Desktop/STM32/Projects_nace/NUCLEO_LL_Project_LCD/STM32_template_proj/Drivers/STM32F1xx_HAL_Driver/Inc\stm32f1xx_ll_exti.h ****   *         @arg @ref LL_EXTI_LINE_13
 489:C:/Users/nace/OneDrive/Desktop/STM32/Projects_nace/NUCLEO_LL_Project_LCD/STM32_template_proj/Drivers/STM32F1xx_HAL_Driver/Inc\stm32f1xx_ll_exti.h ****   *         @arg @ref LL_EXTI_LINE_14
 490:C:/Users/nace/OneDrive/Desktop/STM32/Projects_nace/NUCLEO_LL_Project_LCD/STM32_template_proj/Drivers/STM32F1xx_HAL_Driver/Inc\stm32f1xx_ll_exti.h ****   *         @arg @ref LL_EXTI_LINE_15
 491:C:/Users/nace/OneDrive/Desktop/STM32/Projects_nace/NUCLEO_LL_Project_LCD/STM32_template_proj/Drivers/STM32F1xx_HAL_Driver/Inc\stm32f1xx_ll_exti.h ****   *         @arg @ref LL_EXTI_LINE_16
 492:C:/Users/nace/OneDrive/Desktop/STM32/Projects_nace/NUCLEO_LL_Project_LCD/STM32_template_proj/Drivers/STM32F1xx_HAL_Driver/Inc\stm32f1xx_ll_exti.h ****   *         @arg @ref LL_EXTI_LINE_18
 493:C:/Users/nace/OneDrive/Desktop/STM32/Projects_nace/NUCLEO_LL_Project_LCD/STM32_template_proj/Drivers/STM32F1xx_HAL_Driver/Inc\stm32f1xx_ll_exti.h ****   *         @arg @ref LL_EXTI_LINE_19
 494:C:/Users/nace/OneDrive/Desktop/STM32/Projects_nace/NUCLEO_LL_Project_LCD/STM32_template_proj/Drivers/STM32F1xx_HAL_Driver/Inc\stm32f1xx_ll_exti.h ****   * @note   Please check each device line mapping for EXTI Line availability
 495:C:/Users/nace/OneDrive/Desktop/STM32/Projects_nace/NUCLEO_LL_Project_LCD/STM32_template_proj/Drivers/STM32F1xx_HAL_Driver/Inc\stm32f1xx_ll_exti.h ****   * @retval None
 496:C:/Users/nace/OneDrive/Desktop/STM32/Projects_nace/NUCLEO_LL_Project_LCD/STM32_template_proj/Drivers/STM32F1xx_HAL_Driver/Inc\stm32f1xx_ll_exti.h ****   */
 497:C:/Users/nace/OneDrive/Desktop/STM32/Projects_nace/NUCLEO_LL_Project_LCD/STM32_template_proj/Drivers/STM32F1xx_HAL_Driver/Inc\stm32f1xx_ll_exti.h **** __STATIC_INLINE void LL_EXTI_EnableRisingTrig_0_31(uint32_t ExtiLine)
 498:C:/Users/nace/OneDrive/Desktop/STM32/Projects_nace/NUCLEO_LL_Project_LCD/STM32_template_proj/Drivers/STM32F1xx_HAL_Driver/Inc\stm32f1xx_ll_exti.h **** {
 499:C:/Users/nace/OneDrive/Desktop/STM32/Projects_nace/NUCLEO_LL_Project_LCD/STM32_template_proj/Drivers/STM32F1xx_HAL_Driver/Inc\stm32f1xx_ll_exti.h ****   SET_BIT(EXTI->RTSR, ExtiLine);
 500:C:/Users/nace/OneDrive/Desktop/STM32/Projects_nace/NUCLEO_LL_Project_LCD/STM32_template_proj/Drivers/STM32F1xx_HAL_Driver/Inc\stm32f1xx_ll_exti.h **** 
 501:C:/Users/nace/OneDrive/Desktop/STM32/Projects_nace/NUCLEO_LL_Project_LCD/STM32_template_proj/Drivers/STM32F1xx_HAL_Driver/Inc\stm32f1xx_ll_exti.h **** }
 502:C:/Users/nace/OneDrive/Desktop/STM32/Projects_nace/NUCLEO_LL_Project_LCD/STM32_template_proj/Drivers/STM32F1xx_HAL_Driver/Inc\stm32f1xx_ll_exti.h **** 
 503:C:/Users/nace/OneDrive/Desktop/STM32/Projects_nace/NUCLEO_LL_Project_LCD/STM32_template_proj/Drivers/STM32F1xx_HAL_Driver/Inc\stm32f1xx_ll_exti.h **** 
 504:C:/Users/nace/OneDrive/Desktop/STM32/Projects_nace/NUCLEO_LL_Project_LCD/STM32_template_proj/Drivers/STM32F1xx_HAL_Driver/Inc\stm32f1xx_ll_exti.h **** /**
 505:C:/Users/nace/OneDrive/Desktop/STM32/Projects_nace/NUCLEO_LL_Project_LCD/STM32_template_proj/Drivers/STM32F1xx_HAL_Driver/Inc\stm32f1xx_ll_exti.h ****   * @brief  Disable ExtiLine Rising Edge Trigger for Lines in range 0 to 31
 506:C:/Users/nace/OneDrive/Desktop/STM32/Projects_nace/NUCLEO_LL_Project_LCD/STM32_template_proj/Drivers/STM32F1xx_HAL_Driver/Inc\stm32f1xx_ll_exti.h ****   * @note The configurable wakeup lines are edge-triggered. No glitch must be
 507:C:/Users/nace/OneDrive/Desktop/STM32/Projects_nace/NUCLEO_LL_Project_LCD/STM32_template_proj/Drivers/STM32F1xx_HAL_Driver/Inc\stm32f1xx_ll_exti.h ****   *       generated on these lines. If a rising edge on a configurable interrupt
 508:C:/Users/nace/OneDrive/Desktop/STM32/Projects_nace/NUCLEO_LL_Project_LCD/STM32_template_proj/Drivers/STM32F1xx_HAL_Driver/Inc\stm32f1xx_ll_exti.h ****   *       line occurs during a write operation in the EXTI_RTSR register, the
 509:C:/Users/nace/OneDrive/Desktop/STM32/Projects_nace/NUCLEO_LL_Project_LCD/STM32_template_proj/Drivers/STM32F1xx_HAL_Driver/Inc\stm32f1xx_ll_exti.h ****   *       pending bit is not set.
 510:C:/Users/nace/OneDrive/Desktop/STM32/Projects_nace/NUCLEO_LL_Project_LCD/STM32_template_proj/Drivers/STM32F1xx_HAL_Driver/Inc\stm32f1xx_ll_exti.h ****   *       Rising and falling edge triggers can be set for
 511:C:/Users/nace/OneDrive/Desktop/STM32/Projects_nace/NUCLEO_LL_Project_LCD/STM32_template_proj/Drivers/STM32F1xx_HAL_Driver/Inc\stm32f1xx_ll_exti.h ****   *       the same interrupt line. In this case, both generate a trigger
 512:C:/Users/nace/OneDrive/Desktop/STM32/Projects_nace/NUCLEO_LL_Project_LCD/STM32_template_proj/Drivers/STM32F1xx_HAL_Driver/Inc\stm32f1xx_ll_exti.h ****   *       condition.
 513:C:/Users/nace/OneDrive/Desktop/STM32/Projects_nace/NUCLEO_LL_Project_LCD/STM32_template_proj/Drivers/STM32F1xx_HAL_Driver/Inc\stm32f1xx_ll_exti.h ****   * @rmtoll RTSR        RTx           LL_EXTI_DisableRisingTrig_0_31
 514:C:/Users/nace/OneDrive/Desktop/STM32/Projects_nace/NUCLEO_LL_Project_LCD/STM32_template_proj/Drivers/STM32F1xx_HAL_Driver/Inc\stm32f1xx_ll_exti.h ****   * @param  ExtiLine This parameter can be a combination of the following values:
 515:C:/Users/nace/OneDrive/Desktop/STM32/Projects_nace/NUCLEO_LL_Project_LCD/STM32_template_proj/Drivers/STM32F1xx_HAL_Driver/Inc\stm32f1xx_ll_exti.h ****   *         @arg @ref LL_EXTI_LINE_0
 516:C:/Users/nace/OneDrive/Desktop/STM32/Projects_nace/NUCLEO_LL_Project_LCD/STM32_template_proj/Drivers/STM32F1xx_HAL_Driver/Inc\stm32f1xx_ll_exti.h ****   *         @arg @ref LL_EXTI_LINE_1
 517:C:/Users/nace/OneDrive/Desktop/STM32/Projects_nace/NUCLEO_LL_Project_LCD/STM32_template_proj/Drivers/STM32F1xx_HAL_Driver/Inc\stm32f1xx_ll_exti.h ****   *         @arg @ref LL_EXTI_LINE_2
 518:C:/Users/nace/OneDrive/Desktop/STM32/Projects_nace/NUCLEO_LL_Project_LCD/STM32_template_proj/Drivers/STM32F1xx_HAL_Driver/Inc\stm32f1xx_ll_exti.h ****   *         @arg @ref LL_EXTI_LINE_3
 519:C:/Users/nace/OneDrive/Desktop/STM32/Projects_nace/NUCLEO_LL_Project_LCD/STM32_template_proj/Drivers/STM32F1xx_HAL_Driver/Inc\stm32f1xx_ll_exti.h ****   *         @arg @ref LL_EXTI_LINE_4
 520:C:/Users/nace/OneDrive/Desktop/STM32/Projects_nace/NUCLEO_LL_Project_LCD/STM32_template_proj/Drivers/STM32F1xx_HAL_Driver/Inc\stm32f1xx_ll_exti.h ****   *         @arg @ref LL_EXTI_LINE_5
 521:C:/Users/nace/OneDrive/Desktop/STM32/Projects_nace/NUCLEO_LL_Project_LCD/STM32_template_proj/Drivers/STM32F1xx_HAL_Driver/Inc\stm32f1xx_ll_exti.h ****   *         @arg @ref LL_EXTI_LINE_6
 522:C:/Users/nace/OneDrive/Desktop/STM32/Projects_nace/NUCLEO_LL_Project_LCD/STM32_template_proj/Drivers/STM32F1xx_HAL_Driver/Inc\stm32f1xx_ll_exti.h ****   *         @arg @ref LL_EXTI_LINE_7
 523:C:/Users/nace/OneDrive/Desktop/STM32/Projects_nace/NUCLEO_LL_Project_LCD/STM32_template_proj/Drivers/STM32F1xx_HAL_Driver/Inc\stm32f1xx_ll_exti.h ****   *         @arg @ref LL_EXTI_LINE_8
 524:C:/Users/nace/OneDrive/Desktop/STM32/Projects_nace/NUCLEO_LL_Project_LCD/STM32_template_proj/Drivers/STM32F1xx_HAL_Driver/Inc\stm32f1xx_ll_exti.h ****   *         @arg @ref LL_EXTI_LINE_9
 525:C:/Users/nace/OneDrive/Desktop/STM32/Projects_nace/NUCLEO_LL_Project_LCD/STM32_template_proj/Drivers/STM32F1xx_HAL_Driver/Inc\stm32f1xx_ll_exti.h ****   *         @arg @ref LL_EXTI_LINE_10
 526:C:/Users/nace/OneDrive/Desktop/STM32/Projects_nace/NUCLEO_LL_Project_LCD/STM32_template_proj/Drivers/STM32F1xx_HAL_Driver/Inc\stm32f1xx_ll_exti.h ****   *         @arg @ref LL_EXTI_LINE_11
 527:C:/Users/nace/OneDrive/Desktop/STM32/Projects_nace/NUCLEO_LL_Project_LCD/STM32_template_proj/Drivers/STM32F1xx_HAL_Driver/Inc\stm32f1xx_ll_exti.h ****   *         @arg @ref LL_EXTI_LINE_12
 528:C:/Users/nace/OneDrive/Desktop/STM32/Projects_nace/NUCLEO_LL_Project_LCD/STM32_template_proj/Drivers/STM32F1xx_HAL_Driver/Inc\stm32f1xx_ll_exti.h ****   *         @arg @ref LL_EXTI_LINE_13
 529:C:/Users/nace/OneDrive/Desktop/STM32/Projects_nace/NUCLEO_LL_Project_LCD/STM32_template_proj/Drivers/STM32F1xx_HAL_Driver/Inc\stm32f1xx_ll_exti.h ****   *         @arg @ref LL_EXTI_LINE_14
 530:C:/Users/nace/OneDrive/Desktop/STM32/Projects_nace/NUCLEO_LL_Project_LCD/STM32_template_proj/Drivers/STM32F1xx_HAL_Driver/Inc\stm32f1xx_ll_exti.h ****   *         @arg @ref LL_EXTI_LINE_15
 531:C:/Users/nace/OneDrive/Desktop/STM32/Projects_nace/NUCLEO_LL_Project_LCD/STM32_template_proj/Drivers/STM32F1xx_HAL_Driver/Inc\stm32f1xx_ll_exti.h ****   *         @arg @ref LL_EXTI_LINE_16
 532:C:/Users/nace/OneDrive/Desktop/STM32/Projects_nace/NUCLEO_LL_Project_LCD/STM32_template_proj/Drivers/STM32F1xx_HAL_Driver/Inc\stm32f1xx_ll_exti.h ****   *         @arg @ref LL_EXTI_LINE_18
 533:C:/Users/nace/OneDrive/Desktop/STM32/Projects_nace/NUCLEO_LL_Project_LCD/STM32_template_proj/Drivers/STM32F1xx_HAL_Driver/Inc\stm32f1xx_ll_exti.h ****   *         @arg @ref LL_EXTI_LINE_19
 534:C:/Users/nace/OneDrive/Desktop/STM32/Projects_nace/NUCLEO_LL_Project_LCD/STM32_template_proj/Drivers/STM32F1xx_HAL_Driver/Inc\stm32f1xx_ll_exti.h ****   * @note   Please check each device line mapping for EXTI Line availability
 535:C:/Users/nace/OneDrive/Desktop/STM32/Projects_nace/NUCLEO_LL_Project_LCD/STM32_template_proj/Drivers/STM32F1xx_HAL_Driver/Inc\stm32f1xx_ll_exti.h ****   * @retval None
 536:C:/Users/nace/OneDrive/Desktop/STM32/Projects_nace/NUCLEO_LL_Project_LCD/STM32_template_proj/Drivers/STM32F1xx_HAL_Driver/Inc\stm32f1xx_ll_exti.h ****   */
 537:C:/Users/nace/OneDrive/Desktop/STM32/Projects_nace/NUCLEO_LL_Project_LCD/STM32_template_proj/Drivers/STM32F1xx_HAL_Driver/Inc\stm32f1xx_ll_exti.h **** __STATIC_INLINE void LL_EXTI_DisableRisingTrig_0_31(uint32_t ExtiLine)
 538:C:/Users/nace/OneDrive/Desktop/STM32/Projects_nace/NUCLEO_LL_Project_LCD/STM32_template_proj/Drivers/STM32F1xx_HAL_Driver/Inc\stm32f1xx_ll_exti.h **** {
 539:C:/Users/nace/OneDrive/Desktop/STM32/Projects_nace/NUCLEO_LL_Project_LCD/STM32_template_proj/Drivers/STM32F1xx_HAL_Driver/Inc\stm32f1xx_ll_exti.h ****   CLEAR_BIT(EXTI->RTSR, ExtiLine);
 540:C:/Users/nace/OneDrive/Desktop/STM32/Projects_nace/NUCLEO_LL_Project_LCD/STM32_template_proj/Drivers/STM32F1xx_HAL_Driver/Inc\stm32f1xx_ll_exti.h **** 
 541:C:/Users/nace/OneDrive/Desktop/STM32/Projects_nace/NUCLEO_LL_Project_LCD/STM32_template_proj/Drivers/STM32F1xx_HAL_Driver/Inc\stm32f1xx_ll_exti.h **** }
 542:C:/Users/nace/OneDrive/Desktop/STM32/Projects_nace/NUCLEO_LL_Project_LCD/STM32_template_proj/Drivers/STM32F1xx_HAL_Driver/Inc\stm32f1xx_ll_exti.h **** 
 543:C:/Users/nace/OneDrive/Desktop/STM32/Projects_nace/NUCLEO_LL_Project_LCD/STM32_template_proj/Drivers/STM32F1xx_HAL_Driver/Inc\stm32f1xx_ll_exti.h **** 
 544:C:/Users/nace/OneDrive/Desktop/STM32/Projects_nace/NUCLEO_LL_Project_LCD/STM32_template_proj/Drivers/STM32F1xx_HAL_Driver/Inc\stm32f1xx_ll_exti.h **** /**
 545:C:/Users/nace/OneDrive/Desktop/STM32/Projects_nace/NUCLEO_LL_Project_LCD/STM32_template_proj/Drivers/STM32F1xx_HAL_Driver/Inc\stm32f1xx_ll_exti.h ****   * @brief  Check if rising edge trigger is enabled for Lines in range 0 to 31
 546:C:/Users/nace/OneDrive/Desktop/STM32/Projects_nace/NUCLEO_LL_Project_LCD/STM32_template_proj/Drivers/STM32F1xx_HAL_Driver/Inc\stm32f1xx_ll_exti.h ****   * @rmtoll RTSR        RTx           LL_EXTI_IsEnabledRisingTrig_0_31
 547:C:/Users/nace/OneDrive/Desktop/STM32/Projects_nace/NUCLEO_LL_Project_LCD/STM32_template_proj/Drivers/STM32F1xx_HAL_Driver/Inc\stm32f1xx_ll_exti.h ****   * @param  ExtiLine This parameter can be a combination of the following values:
 548:C:/Users/nace/OneDrive/Desktop/STM32/Projects_nace/NUCLEO_LL_Project_LCD/STM32_template_proj/Drivers/STM32F1xx_HAL_Driver/Inc\stm32f1xx_ll_exti.h ****   *         @arg @ref LL_EXTI_LINE_0
 549:C:/Users/nace/OneDrive/Desktop/STM32/Projects_nace/NUCLEO_LL_Project_LCD/STM32_template_proj/Drivers/STM32F1xx_HAL_Driver/Inc\stm32f1xx_ll_exti.h ****   *         @arg @ref LL_EXTI_LINE_1
 550:C:/Users/nace/OneDrive/Desktop/STM32/Projects_nace/NUCLEO_LL_Project_LCD/STM32_template_proj/Drivers/STM32F1xx_HAL_Driver/Inc\stm32f1xx_ll_exti.h ****   *         @arg @ref LL_EXTI_LINE_2
 551:C:/Users/nace/OneDrive/Desktop/STM32/Projects_nace/NUCLEO_LL_Project_LCD/STM32_template_proj/Drivers/STM32F1xx_HAL_Driver/Inc\stm32f1xx_ll_exti.h ****   *         @arg @ref LL_EXTI_LINE_3
 552:C:/Users/nace/OneDrive/Desktop/STM32/Projects_nace/NUCLEO_LL_Project_LCD/STM32_template_proj/Drivers/STM32F1xx_HAL_Driver/Inc\stm32f1xx_ll_exti.h ****   *         @arg @ref LL_EXTI_LINE_4
 553:C:/Users/nace/OneDrive/Desktop/STM32/Projects_nace/NUCLEO_LL_Project_LCD/STM32_template_proj/Drivers/STM32F1xx_HAL_Driver/Inc\stm32f1xx_ll_exti.h ****   *         @arg @ref LL_EXTI_LINE_5
 554:C:/Users/nace/OneDrive/Desktop/STM32/Projects_nace/NUCLEO_LL_Project_LCD/STM32_template_proj/Drivers/STM32F1xx_HAL_Driver/Inc\stm32f1xx_ll_exti.h ****   *         @arg @ref LL_EXTI_LINE_6
 555:C:/Users/nace/OneDrive/Desktop/STM32/Projects_nace/NUCLEO_LL_Project_LCD/STM32_template_proj/Drivers/STM32F1xx_HAL_Driver/Inc\stm32f1xx_ll_exti.h ****   *         @arg @ref LL_EXTI_LINE_7
 556:C:/Users/nace/OneDrive/Desktop/STM32/Projects_nace/NUCLEO_LL_Project_LCD/STM32_template_proj/Drivers/STM32F1xx_HAL_Driver/Inc\stm32f1xx_ll_exti.h ****   *         @arg @ref LL_EXTI_LINE_8
 557:C:/Users/nace/OneDrive/Desktop/STM32/Projects_nace/NUCLEO_LL_Project_LCD/STM32_template_proj/Drivers/STM32F1xx_HAL_Driver/Inc\stm32f1xx_ll_exti.h ****   *         @arg @ref LL_EXTI_LINE_9
 558:C:/Users/nace/OneDrive/Desktop/STM32/Projects_nace/NUCLEO_LL_Project_LCD/STM32_template_proj/Drivers/STM32F1xx_HAL_Driver/Inc\stm32f1xx_ll_exti.h ****   *         @arg @ref LL_EXTI_LINE_10
 559:C:/Users/nace/OneDrive/Desktop/STM32/Projects_nace/NUCLEO_LL_Project_LCD/STM32_template_proj/Drivers/STM32F1xx_HAL_Driver/Inc\stm32f1xx_ll_exti.h ****   *         @arg @ref LL_EXTI_LINE_11
 560:C:/Users/nace/OneDrive/Desktop/STM32/Projects_nace/NUCLEO_LL_Project_LCD/STM32_template_proj/Drivers/STM32F1xx_HAL_Driver/Inc\stm32f1xx_ll_exti.h ****   *         @arg @ref LL_EXTI_LINE_12
 561:C:/Users/nace/OneDrive/Desktop/STM32/Projects_nace/NUCLEO_LL_Project_LCD/STM32_template_proj/Drivers/STM32F1xx_HAL_Driver/Inc\stm32f1xx_ll_exti.h ****   *         @arg @ref LL_EXTI_LINE_13
 562:C:/Users/nace/OneDrive/Desktop/STM32/Projects_nace/NUCLEO_LL_Project_LCD/STM32_template_proj/Drivers/STM32F1xx_HAL_Driver/Inc\stm32f1xx_ll_exti.h ****   *         @arg @ref LL_EXTI_LINE_14
 563:C:/Users/nace/OneDrive/Desktop/STM32/Projects_nace/NUCLEO_LL_Project_LCD/STM32_template_proj/Drivers/STM32F1xx_HAL_Driver/Inc\stm32f1xx_ll_exti.h ****   *         @arg @ref LL_EXTI_LINE_15
 564:C:/Users/nace/OneDrive/Desktop/STM32/Projects_nace/NUCLEO_LL_Project_LCD/STM32_template_proj/Drivers/STM32F1xx_HAL_Driver/Inc\stm32f1xx_ll_exti.h ****   *         @arg @ref LL_EXTI_LINE_16
 565:C:/Users/nace/OneDrive/Desktop/STM32/Projects_nace/NUCLEO_LL_Project_LCD/STM32_template_proj/Drivers/STM32F1xx_HAL_Driver/Inc\stm32f1xx_ll_exti.h ****   *         @arg @ref LL_EXTI_LINE_18
 566:C:/Users/nace/OneDrive/Desktop/STM32/Projects_nace/NUCLEO_LL_Project_LCD/STM32_template_proj/Drivers/STM32F1xx_HAL_Driver/Inc\stm32f1xx_ll_exti.h ****   *         @arg @ref LL_EXTI_LINE_19
 567:C:/Users/nace/OneDrive/Desktop/STM32/Projects_nace/NUCLEO_LL_Project_LCD/STM32_template_proj/Drivers/STM32F1xx_HAL_Driver/Inc\stm32f1xx_ll_exti.h ****   * @note   Please check each device line mapping for EXTI Line availability
 568:C:/Users/nace/OneDrive/Desktop/STM32/Projects_nace/NUCLEO_LL_Project_LCD/STM32_template_proj/Drivers/STM32F1xx_HAL_Driver/Inc\stm32f1xx_ll_exti.h ****   * @retval State of bit (1 or 0).
 569:C:/Users/nace/OneDrive/Desktop/STM32/Projects_nace/NUCLEO_LL_Project_LCD/STM32_template_proj/Drivers/STM32F1xx_HAL_Driver/Inc\stm32f1xx_ll_exti.h ****   */
 570:C:/Users/nace/OneDrive/Desktop/STM32/Projects_nace/NUCLEO_LL_Project_LCD/STM32_template_proj/Drivers/STM32F1xx_HAL_Driver/Inc\stm32f1xx_ll_exti.h **** __STATIC_INLINE uint32_t LL_EXTI_IsEnabledRisingTrig_0_31(uint32_t ExtiLine)
 571:C:/Users/nace/OneDrive/Desktop/STM32/Projects_nace/NUCLEO_LL_Project_LCD/STM32_template_proj/Drivers/STM32F1xx_HAL_Driver/Inc\stm32f1xx_ll_exti.h **** {
 572:C:/Users/nace/OneDrive/Desktop/STM32/Projects_nace/NUCLEO_LL_Project_LCD/STM32_template_proj/Drivers/STM32F1xx_HAL_Driver/Inc\stm32f1xx_ll_exti.h ****   return (READ_BIT(EXTI->RTSR, ExtiLine) == (ExtiLine));
 573:C:/Users/nace/OneDrive/Desktop/STM32/Projects_nace/NUCLEO_LL_Project_LCD/STM32_template_proj/Drivers/STM32F1xx_HAL_Driver/Inc\stm32f1xx_ll_exti.h **** }
 574:C:/Users/nace/OneDrive/Desktop/STM32/Projects_nace/NUCLEO_LL_Project_LCD/STM32_template_proj/Drivers/STM32F1xx_HAL_Driver/Inc\stm32f1xx_ll_exti.h **** 
 575:C:/Users/nace/OneDrive/Desktop/STM32/Projects_nace/NUCLEO_LL_Project_LCD/STM32_template_proj/Drivers/STM32F1xx_HAL_Driver/Inc\stm32f1xx_ll_exti.h **** 
 576:C:/Users/nace/OneDrive/Desktop/STM32/Projects_nace/NUCLEO_LL_Project_LCD/STM32_template_proj/Drivers/STM32F1xx_HAL_Driver/Inc\stm32f1xx_ll_exti.h **** /**
 577:C:/Users/nace/OneDrive/Desktop/STM32/Projects_nace/NUCLEO_LL_Project_LCD/STM32_template_proj/Drivers/STM32F1xx_HAL_Driver/Inc\stm32f1xx_ll_exti.h ****   * @}
 578:C:/Users/nace/OneDrive/Desktop/STM32/Projects_nace/NUCLEO_LL_Project_LCD/STM32_template_proj/Drivers/STM32F1xx_HAL_Driver/Inc\stm32f1xx_ll_exti.h ****   */
 579:C:/Users/nace/OneDrive/Desktop/STM32/Projects_nace/NUCLEO_LL_Project_LCD/STM32_template_proj/Drivers/STM32F1xx_HAL_Driver/Inc\stm32f1xx_ll_exti.h **** 
 580:C:/Users/nace/OneDrive/Desktop/STM32/Projects_nace/NUCLEO_LL_Project_LCD/STM32_template_proj/Drivers/STM32F1xx_HAL_Driver/Inc\stm32f1xx_ll_exti.h **** /** @defgroup EXTI_LL_EF_Falling_Trigger_Management Falling_Trigger_Management
 581:C:/Users/nace/OneDrive/Desktop/STM32/Projects_nace/NUCLEO_LL_Project_LCD/STM32_template_proj/Drivers/STM32F1xx_HAL_Driver/Inc\stm32f1xx_ll_exti.h ****   * @{
 582:C:/Users/nace/OneDrive/Desktop/STM32/Projects_nace/NUCLEO_LL_Project_LCD/STM32_template_proj/Drivers/STM32F1xx_HAL_Driver/Inc\stm32f1xx_ll_exti.h ****   */
 583:C:/Users/nace/OneDrive/Desktop/STM32/Projects_nace/NUCLEO_LL_Project_LCD/STM32_template_proj/Drivers/STM32F1xx_HAL_Driver/Inc\stm32f1xx_ll_exti.h **** 
 584:C:/Users/nace/OneDrive/Desktop/STM32/Projects_nace/NUCLEO_LL_Project_LCD/STM32_template_proj/Drivers/STM32F1xx_HAL_Driver/Inc\stm32f1xx_ll_exti.h **** /**
 585:C:/Users/nace/OneDrive/Desktop/STM32/Projects_nace/NUCLEO_LL_Project_LCD/STM32_template_proj/Drivers/STM32F1xx_HAL_Driver/Inc\stm32f1xx_ll_exti.h ****   * @brief  Enable ExtiLine Falling Edge Trigger for Lines in range 0 to 31
 586:C:/Users/nace/OneDrive/Desktop/STM32/Projects_nace/NUCLEO_LL_Project_LCD/STM32_template_proj/Drivers/STM32F1xx_HAL_Driver/Inc\stm32f1xx_ll_exti.h ****   * @note The configurable wakeup lines are edge-triggered. No glitch must be
 587:C:/Users/nace/OneDrive/Desktop/STM32/Projects_nace/NUCLEO_LL_Project_LCD/STM32_template_proj/Drivers/STM32F1xx_HAL_Driver/Inc\stm32f1xx_ll_exti.h ****   *       generated on these lines. If a falling edge on a configurable interrupt
 588:C:/Users/nace/OneDrive/Desktop/STM32/Projects_nace/NUCLEO_LL_Project_LCD/STM32_template_proj/Drivers/STM32F1xx_HAL_Driver/Inc\stm32f1xx_ll_exti.h ****   *       line occurs during a write operation in the EXTI_FTSR register, the
 589:C:/Users/nace/OneDrive/Desktop/STM32/Projects_nace/NUCLEO_LL_Project_LCD/STM32_template_proj/Drivers/STM32F1xx_HAL_Driver/Inc\stm32f1xx_ll_exti.h ****   *       pending bit is not set.
 590:C:/Users/nace/OneDrive/Desktop/STM32/Projects_nace/NUCLEO_LL_Project_LCD/STM32_template_proj/Drivers/STM32F1xx_HAL_Driver/Inc\stm32f1xx_ll_exti.h ****   *       Rising and falling edge triggers can be set for
 591:C:/Users/nace/OneDrive/Desktop/STM32/Projects_nace/NUCLEO_LL_Project_LCD/STM32_template_proj/Drivers/STM32F1xx_HAL_Driver/Inc\stm32f1xx_ll_exti.h ****   *       the same interrupt line. In this case, both generate a trigger
 592:C:/Users/nace/OneDrive/Desktop/STM32/Projects_nace/NUCLEO_LL_Project_LCD/STM32_template_proj/Drivers/STM32F1xx_HAL_Driver/Inc\stm32f1xx_ll_exti.h ****   *       condition.
 593:C:/Users/nace/OneDrive/Desktop/STM32/Projects_nace/NUCLEO_LL_Project_LCD/STM32_template_proj/Drivers/STM32F1xx_HAL_Driver/Inc\stm32f1xx_ll_exti.h ****   * @rmtoll FTSR        FTx           LL_EXTI_EnableFallingTrig_0_31
 594:C:/Users/nace/OneDrive/Desktop/STM32/Projects_nace/NUCLEO_LL_Project_LCD/STM32_template_proj/Drivers/STM32F1xx_HAL_Driver/Inc\stm32f1xx_ll_exti.h ****   * @param  ExtiLine This parameter can be a combination of the following values:
 595:C:/Users/nace/OneDrive/Desktop/STM32/Projects_nace/NUCLEO_LL_Project_LCD/STM32_template_proj/Drivers/STM32F1xx_HAL_Driver/Inc\stm32f1xx_ll_exti.h ****   *         @arg @ref LL_EXTI_LINE_0
 596:C:/Users/nace/OneDrive/Desktop/STM32/Projects_nace/NUCLEO_LL_Project_LCD/STM32_template_proj/Drivers/STM32F1xx_HAL_Driver/Inc\stm32f1xx_ll_exti.h ****   *         @arg @ref LL_EXTI_LINE_1
 597:C:/Users/nace/OneDrive/Desktop/STM32/Projects_nace/NUCLEO_LL_Project_LCD/STM32_template_proj/Drivers/STM32F1xx_HAL_Driver/Inc\stm32f1xx_ll_exti.h ****   *         @arg @ref LL_EXTI_LINE_2
 598:C:/Users/nace/OneDrive/Desktop/STM32/Projects_nace/NUCLEO_LL_Project_LCD/STM32_template_proj/Drivers/STM32F1xx_HAL_Driver/Inc\stm32f1xx_ll_exti.h ****   *         @arg @ref LL_EXTI_LINE_3
 599:C:/Users/nace/OneDrive/Desktop/STM32/Projects_nace/NUCLEO_LL_Project_LCD/STM32_template_proj/Drivers/STM32F1xx_HAL_Driver/Inc\stm32f1xx_ll_exti.h ****   *         @arg @ref LL_EXTI_LINE_4
 600:C:/Users/nace/OneDrive/Desktop/STM32/Projects_nace/NUCLEO_LL_Project_LCD/STM32_template_proj/Drivers/STM32F1xx_HAL_Driver/Inc\stm32f1xx_ll_exti.h ****   *         @arg @ref LL_EXTI_LINE_5
 601:C:/Users/nace/OneDrive/Desktop/STM32/Projects_nace/NUCLEO_LL_Project_LCD/STM32_template_proj/Drivers/STM32F1xx_HAL_Driver/Inc\stm32f1xx_ll_exti.h ****   *         @arg @ref LL_EXTI_LINE_6
 602:C:/Users/nace/OneDrive/Desktop/STM32/Projects_nace/NUCLEO_LL_Project_LCD/STM32_template_proj/Drivers/STM32F1xx_HAL_Driver/Inc\stm32f1xx_ll_exti.h ****   *         @arg @ref LL_EXTI_LINE_7
 603:C:/Users/nace/OneDrive/Desktop/STM32/Projects_nace/NUCLEO_LL_Project_LCD/STM32_template_proj/Drivers/STM32F1xx_HAL_Driver/Inc\stm32f1xx_ll_exti.h ****   *         @arg @ref LL_EXTI_LINE_8
 604:C:/Users/nace/OneDrive/Desktop/STM32/Projects_nace/NUCLEO_LL_Project_LCD/STM32_template_proj/Drivers/STM32F1xx_HAL_Driver/Inc\stm32f1xx_ll_exti.h ****   *         @arg @ref LL_EXTI_LINE_9
 605:C:/Users/nace/OneDrive/Desktop/STM32/Projects_nace/NUCLEO_LL_Project_LCD/STM32_template_proj/Drivers/STM32F1xx_HAL_Driver/Inc\stm32f1xx_ll_exti.h ****   *         @arg @ref LL_EXTI_LINE_10
 606:C:/Users/nace/OneDrive/Desktop/STM32/Projects_nace/NUCLEO_LL_Project_LCD/STM32_template_proj/Drivers/STM32F1xx_HAL_Driver/Inc\stm32f1xx_ll_exti.h ****   *         @arg @ref LL_EXTI_LINE_11
 607:C:/Users/nace/OneDrive/Desktop/STM32/Projects_nace/NUCLEO_LL_Project_LCD/STM32_template_proj/Drivers/STM32F1xx_HAL_Driver/Inc\stm32f1xx_ll_exti.h ****   *         @arg @ref LL_EXTI_LINE_12
 608:C:/Users/nace/OneDrive/Desktop/STM32/Projects_nace/NUCLEO_LL_Project_LCD/STM32_template_proj/Drivers/STM32F1xx_HAL_Driver/Inc\stm32f1xx_ll_exti.h ****   *         @arg @ref LL_EXTI_LINE_13
 609:C:/Users/nace/OneDrive/Desktop/STM32/Projects_nace/NUCLEO_LL_Project_LCD/STM32_template_proj/Drivers/STM32F1xx_HAL_Driver/Inc\stm32f1xx_ll_exti.h ****   *         @arg @ref LL_EXTI_LINE_14
 610:C:/Users/nace/OneDrive/Desktop/STM32/Projects_nace/NUCLEO_LL_Project_LCD/STM32_template_proj/Drivers/STM32F1xx_HAL_Driver/Inc\stm32f1xx_ll_exti.h ****   *         @arg @ref LL_EXTI_LINE_15
 611:C:/Users/nace/OneDrive/Desktop/STM32/Projects_nace/NUCLEO_LL_Project_LCD/STM32_template_proj/Drivers/STM32F1xx_HAL_Driver/Inc\stm32f1xx_ll_exti.h ****   *         @arg @ref LL_EXTI_LINE_16
 612:C:/Users/nace/OneDrive/Desktop/STM32/Projects_nace/NUCLEO_LL_Project_LCD/STM32_template_proj/Drivers/STM32F1xx_HAL_Driver/Inc\stm32f1xx_ll_exti.h ****   *         @arg @ref LL_EXTI_LINE_18
 613:C:/Users/nace/OneDrive/Desktop/STM32/Projects_nace/NUCLEO_LL_Project_LCD/STM32_template_proj/Drivers/STM32F1xx_HAL_Driver/Inc\stm32f1xx_ll_exti.h ****   *         @arg @ref LL_EXTI_LINE_19
 614:C:/Users/nace/OneDrive/Desktop/STM32/Projects_nace/NUCLEO_LL_Project_LCD/STM32_template_proj/Drivers/STM32F1xx_HAL_Driver/Inc\stm32f1xx_ll_exti.h ****   * @note   Please check each device line mapping for EXTI Line availability
 615:C:/Users/nace/OneDrive/Desktop/STM32/Projects_nace/NUCLEO_LL_Project_LCD/STM32_template_proj/Drivers/STM32F1xx_HAL_Driver/Inc\stm32f1xx_ll_exti.h ****   * @retval None
 616:C:/Users/nace/OneDrive/Desktop/STM32/Projects_nace/NUCLEO_LL_Project_LCD/STM32_template_proj/Drivers/STM32F1xx_HAL_Driver/Inc\stm32f1xx_ll_exti.h ****   */
 617:C:/Users/nace/OneDrive/Desktop/STM32/Projects_nace/NUCLEO_LL_Project_LCD/STM32_template_proj/Drivers/STM32F1xx_HAL_Driver/Inc\stm32f1xx_ll_exti.h **** __STATIC_INLINE void LL_EXTI_EnableFallingTrig_0_31(uint32_t ExtiLine)
 618:C:/Users/nace/OneDrive/Desktop/STM32/Projects_nace/NUCLEO_LL_Project_LCD/STM32_template_proj/Drivers/STM32F1xx_HAL_Driver/Inc\stm32f1xx_ll_exti.h **** {
 619:C:/Users/nace/OneDrive/Desktop/STM32/Projects_nace/NUCLEO_LL_Project_LCD/STM32_template_proj/Drivers/STM32F1xx_HAL_Driver/Inc\stm32f1xx_ll_exti.h ****   SET_BIT(EXTI->FTSR, ExtiLine);
 620:C:/Users/nace/OneDrive/Desktop/STM32/Projects_nace/NUCLEO_LL_Project_LCD/STM32_template_proj/Drivers/STM32F1xx_HAL_Driver/Inc\stm32f1xx_ll_exti.h **** }
 621:C:/Users/nace/OneDrive/Desktop/STM32/Projects_nace/NUCLEO_LL_Project_LCD/STM32_template_proj/Drivers/STM32F1xx_HAL_Driver/Inc\stm32f1xx_ll_exti.h **** 
 622:C:/Users/nace/OneDrive/Desktop/STM32/Projects_nace/NUCLEO_LL_Project_LCD/STM32_template_proj/Drivers/STM32F1xx_HAL_Driver/Inc\stm32f1xx_ll_exti.h **** 
 623:C:/Users/nace/OneDrive/Desktop/STM32/Projects_nace/NUCLEO_LL_Project_LCD/STM32_template_proj/Drivers/STM32F1xx_HAL_Driver/Inc\stm32f1xx_ll_exti.h **** /**
 624:C:/Users/nace/OneDrive/Desktop/STM32/Projects_nace/NUCLEO_LL_Project_LCD/STM32_template_proj/Drivers/STM32F1xx_HAL_Driver/Inc\stm32f1xx_ll_exti.h ****   * @brief  Disable ExtiLine Falling Edge Trigger for Lines in range 0 to 31
 625:C:/Users/nace/OneDrive/Desktop/STM32/Projects_nace/NUCLEO_LL_Project_LCD/STM32_template_proj/Drivers/STM32F1xx_HAL_Driver/Inc\stm32f1xx_ll_exti.h ****   * @note The configurable wakeup lines are edge-triggered. No glitch must be
 626:C:/Users/nace/OneDrive/Desktop/STM32/Projects_nace/NUCLEO_LL_Project_LCD/STM32_template_proj/Drivers/STM32F1xx_HAL_Driver/Inc\stm32f1xx_ll_exti.h ****   *       generated on these lines. If a Falling edge on a configurable interrupt
 627:C:/Users/nace/OneDrive/Desktop/STM32/Projects_nace/NUCLEO_LL_Project_LCD/STM32_template_proj/Drivers/STM32F1xx_HAL_Driver/Inc\stm32f1xx_ll_exti.h ****   *       line occurs during a write operation in the EXTI_FTSR register, the
 628:C:/Users/nace/OneDrive/Desktop/STM32/Projects_nace/NUCLEO_LL_Project_LCD/STM32_template_proj/Drivers/STM32F1xx_HAL_Driver/Inc\stm32f1xx_ll_exti.h ****   *       pending bit is not set.
 629:C:/Users/nace/OneDrive/Desktop/STM32/Projects_nace/NUCLEO_LL_Project_LCD/STM32_template_proj/Drivers/STM32F1xx_HAL_Driver/Inc\stm32f1xx_ll_exti.h ****   *       Rising and falling edge triggers can be set for the same interrupt line.
 630:C:/Users/nace/OneDrive/Desktop/STM32/Projects_nace/NUCLEO_LL_Project_LCD/STM32_template_proj/Drivers/STM32F1xx_HAL_Driver/Inc\stm32f1xx_ll_exti.h ****   *       In this case, both generate a trigger condition.
 631:C:/Users/nace/OneDrive/Desktop/STM32/Projects_nace/NUCLEO_LL_Project_LCD/STM32_template_proj/Drivers/STM32F1xx_HAL_Driver/Inc\stm32f1xx_ll_exti.h ****   * @rmtoll FTSR        FTx           LL_EXTI_DisableFallingTrig_0_31
 632:C:/Users/nace/OneDrive/Desktop/STM32/Projects_nace/NUCLEO_LL_Project_LCD/STM32_template_proj/Drivers/STM32F1xx_HAL_Driver/Inc\stm32f1xx_ll_exti.h ****   * @param  ExtiLine This parameter can be a combination of the following values:
 633:C:/Users/nace/OneDrive/Desktop/STM32/Projects_nace/NUCLEO_LL_Project_LCD/STM32_template_proj/Drivers/STM32F1xx_HAL_Driver/Inc\stm32f1xx_ll_exti.h ****   *         @arg @ref LL_EXTI_LINE_0
 634:C:/Users/nace/OneDrive/Desktop/STM32/Projects_nace/NUCLEO_LL_Project_LCD/STM32_template_proj/Drivers/STM32F1xx_HAL_Driver/Inc\stm32f1xx_ll_exti.h ****   *         @arg @ref LL_EXTI_LINE_1
 635:C:/Users/nace/OneDrive/Desktop/STM32/Projects_nace/NUCLEO_LL_Project_LCD/STM32_template_proj/Drivers/STM32F1xx_HAL_Driver/Inc\stm32f1xx_ll_exti.h ****   *         @arg @ref LL_EXTI_LINE_2
 636:C:/Users/nace/OneDrive/Desktop/STM32/Projects_nace/NUCLEO_LL_Project_LCD/STM32_template_proj/Drivers/STM32F1xx_HAL_Driver/Inc\stm32f1xx_ll_exti.h ****   *         @arg @ref LL_EXTI_LINE_3
 637:C:/Users/nace/OneDrive/Desktop/STM32/Projects_nace/NUCLEO_LL_Project_LCD/STM32_template_proj/Drivers/STM32F1xx_HAL_Driver/Inc\stm32f1xx_ll_exti.h ****   *         @arg @ref LL_EXTI_LINE_4
 638:C:/Users/nace/OneDrive/Desktop/STM32/Projects_nace/NUCLEO_LL_Project_LCD/STM32_template_proj/Drivers/STM32F1xx_HAL_Driver/Inc\stm32f1xx_ll_exti.h ****   *         @arg @ref LL_EXTI_LINE_5
 639:C:/Users/nace/OneDrive/Desktop/STM32/Projects_nace/NUCLEO_LL_Project_LCD/STM32_template_proj/Drivers/STM32F1xx_HAL_Driver/Inc\stm32f1xx_ll_exti.h ****   *         @arg @ref LL_EXTI_LINE_6
 640:C:/Users/nace/OneDrive/Desktop/STM32/Projects_nace/NUCLEO_LL_Project_LCD/STM32_template_proj/Drivers/STM32F1xx_HAL_Driver/Inc\stm32f1xx_ll_exti.h ****   *         @arg @ref LL_EXTI_LINE_7
 641:C:/Users/nace/OneDrive/Desktop/STM32/Projects_nace/NUCLEO_LL_Project_LCD/STM32_template_proj/Drivers/STM32F1xx_HAL_Driver/Inc\stm32f1xx_ll_exti.h ****   *         @arg @ref LL_EXTI_LINE_8
 642:C:/Users/nace/OneDrive/Desktop/STM32/Projects_nace/NUCLEO_LL_Project_LCD/STM32_template_proj/Drivers/STM32F1xx_HAL_Driver/Inc\stm32f1xx_ll_exti.h ****   *         @arg @ref LL_EXTI_LINE_9
 643:C:/Users/nace/OneDrive/Desktop/STM32/Projects_nace/NUCLEO_LL_Project_LCD/STM32_template_proj/Drivers/STM32F1xx_HAL_Driver/Inc\stm32f1xx_ll_exti.h ****   *         @arg @ref LL_EXTI_LINE_10
 644:C:/Users/nace/OneDrive/Desktop/STM32/Projects_nace/NUCLEO_LL_Project_LCD/STM32_template_proj/Drivers/STM32F1xx_HAL_Driver/Inc\stm32f1xx_ll_exti.h ****   *         @arg @ref LL_EXTI_LINE_11
 645:C:/Users/nace/OneDrive/Desktop/STM32/Projects_nace/NUCLEO_LL_Project_LCD/STM32_template_proj/Drivers/STM32F1xx_HAL_Driver/Inc\stm32f1xx_ll_exti.h ****   *         @arg @ref LL_EXTI_LINE_12
 646:C:/Users/nace/OneDrive/Desktop/STM32/Projects_nace/NUCLEO_LL_Project_LCD/STM32_template_proj/Drivers/STM32F1xx_HAL_Driver/Inc\stm32f1xx_ll_exti.h ****   *         @arg @ref LL_EXTI_LINE_13
 647:C:/Users/nace/OneDrive/Desktop/STM32/Projects_nace/NUCLEO_LL_Project_LCD/STM32_template_proj/Drivers/STM32F1xx_HAL_Driver/Inc\stm32f1xx_ll_exti.h ****   *         @arg @ref LL_EXTI_LINE_14
 648:C:/Users/nace/OneDrive/Desktop/STM32/Projects_nace/NUCLEO_LL_Project_LCD/STM32_template_proj/Drivers/STM32F1xx_HAL_Driver/Inc\stm32f1xx_ll_exti.h ****   *         @arg @ref LL_EXTI_LINE_15
 649:C:/Users/nace/OneDrive/Desktop/STM32/Projects_nace/NUCLEO_LL_Project_LCD/STM32_template_proj/Drivers/STM32F1xx_HAL_Driver/Inc\stm32f1xx_ll_exti.h ****   *         @arg @ref LL_EXTI_LINE_16
 650:C:/Users/nace/OneDrive/Desktop/STM32/Projects_nace/NUCLEO_LL_Project_LCD/STM32_template_proj/Drivers/STM32F1xx_HAL_Driver/Inc\stm32f1xx_ll_exti.h ****   *         @arg @ref LL_EXTI_LINE_18
 651:C:/Users/nace/OneDrive/Desktop/STM32/Projects_nace/NUCLEO_LL_Project_LCD/STM32_template_proj/Drivers/STM32F1xx_HAL_Driver/Inc\stm32f1xx_ll_exti.h ****   *         @arg @ref LL_EXTI_LINE_19
 652:C:/Users/nace/OneDrive/Desktop/STM32/Projects_nace/NUCLEO_LL_Project_LCD/STM32_template_proj/Drivers/STM32F1xx_HAL_Driver/Inc\stm32f1xx_ll_exti.h ****   * @note   Please check each device line mapping for EXTI Line availability
 653:C:/Users/nace/OneDrive/Desktop/STM32/Projects_nace/NUCLEO_LL_Project_LCD/STM32_template_proj/Drivers/STM32F1xx_HAL_Driver/Inc\stm32f1xx_ll_exti.h ****   * @retval None
 654:C:/Users/nace/OneDrive/Desktop/STM32/Projects_nace/NUCLEO_LL_Project_LCD/STM32_template_proj/Drivers/STM32F1xx_HAL_Driver/Inc\stm32f1xx_ll_exti.h ****   */
 655:C:/Users/nace/OneDrive/Desktop/STM32/Projects_nace/NUCLEO_LL_Project_LCD/STM32_template_proj/Drivers/STM32F1xx_HAL_Driver/Inc\stm32f1xx_ll_exti.h **** __STATIC_INLINE void LL_EXTI_DisableFallingTrig_0_31(uint32_t ExtiLine)
 656:C:/Users/nace/OneDrive/Desktop/STM32/Projects_nace/NUCLEO_LL_Project_LCD/STM32_template_proj/Drivers/STM32F1xx_HAL_Driver/Inc\stm32f1xx_ll_exti.h **** {
 657:C:/Users/nace/OneDrive/Desktop/STM32/Projects_nace/NUCLEO_LL_Project_LCD/STM32_template_proj/Drivers/STM32F1xx_HAL_Driver/Inc\stm32f1xx_ll_exti.h ****   CLEAR_BIT(EXTI->FTSR, ExtiLine);
 658:C:/Users/nace/OneDrive/Desktop/STM32/Projects_nace/NUCLEO_LL_Project_LCD/STM32_template_proj/Drivers/STM32F1xx_HAL_Driver/Inc\stm32f1xx_ll_exti.h **** }
 659:C:/Users/nace/OneDrive/Desktop/STM32/Projects_nace/NUCLEO_LL_Project_LCD/STM32_template_proj/Drivers/STM32F1xx_HAL_Driver/Inc\stm32f1xx_ll_exti.h **** 
 660:C:/Users/nace/OneDrive/Desktop/STM32/Projects_nace/NUCLEO_LL_Project_LCD/STM32_template_proj/Drivers/STM32F1xx_HAL_Driver/Inc\stm32f1xx_ll_exti.h **** 
 661:C:/Users/nace/OneDrive/Desktop/STM32/Projects_nace/NUCLEO_LL_Project_LCD/STM32_template_proj/Drivers/STM32F1xx_HAL_Driver/Inc\stm32f1xx_ll_exti.h **** /**
 662:C:/Users/nace/OneDrive/Desktop/STM32/Projects_nace/NUCLEO_LL_Project_LCD/STM32_template_proj/Drivers/STM32F1xx_HAL_Driver/Inc\stm32f1xx_ll_exti.h ****   * @brief  Check if falling edge trigger is enabled for Lines in range 0 to 31
 663:C:/Users/nace/OneDrive/Desktop/STM32/Projects_nace/NUCLEO_LL_Project_LCD/STM32_template_proj/Drivers/STM32F1xx_HAL_Driver/Inc\stm32f1xx_ll_exti.h ****   * @rmtoll FTSR        FTx           LL_EXTI_IsEnabledFallingTrig_0_31
 664:C:/Users/nace/OneDrive/Desktop/STM32/Projects_nace/NUCLEO_LL_Project_LCD/STM32_template_proj/Drivers/STM32F1xx_HAL_Driver/Inc\stm32f1xx_ll_exti.h ****   * @param  ExtiLine This parameter can be a combination of the following values:
 665:C:/Users/nace/OneDrive/Desktop/STM32/Projects_nace/NUCLEO_LL_Project_LCD/STM32_template_proj/Drivers/STM32F1xx_HAL_Driver/Inc\stm32f1xx_ll_exti.h ****   *         @arg @ref LL_EXTI_LINE_0
 666:C:/Users/nace/OneDrive/Desktop/STM32/Projects_nace/NUCLEO_LL_Project_LCD/STM32_template_proj/Drivers/STM32F1xx_HAL_Driver/Inc\stm32f1xx_ll_exti.h ****   *         @arg @ref LL_EXTI_LINE_1
 667:C:/Users/nace/OneDrive/Desktop/STM32/Projects_nace/NUCLEO_LL_Project_LCD/STM32_template_proj/Drivers/STM32F1xx_HAL_Driver/Inc\stm32f1xx_ll_exti.h ****   *         @arg @ref LL_EXTI_LINE_2
 668:C:/Users/nace/OneDrive/Desktop/STM32/Projects_nace/NUCLEO_LL_Project_LCD/STM32_template_proj/Drivers/STM32F1xx_HAL_Driver/Inc\stm32f1xx_ll_exti.h ****   *         @arg @ref LL_EXTI_LINE_3
 669:C:/Users/nace/OneDrive/Desktop/STM32/Projects_nace/NUCLEO_LL_Project_LCD/STM32_template_proj/Drivers/STM32F1xx_HAL_Driver/Inc\stm32f1xx_ll_exti.h ****   *         @arg @ref LL_EXTI_LINE_4
 670:C:/Users/nace/OneDrive/Desktop/STM32/Projects_nace/NUCLEO_LL_Project_LCD/STM32_template_proj/Drivers/STM32F1xx_HAL_Driver/Inc\stm32f1xx_ll_exti.h ****   *         @arg @ref LL_EXTI_LINE_5
 671:C:/Users/nace/OneDrive/Desktop/STM32/Projects_nace/NUCLEO_LL_Project_LCD/STM32_template_proj/Drivers/STM32F1xx_HAL_Driver/Inc\stm32f1xx_ll_exti.h ****   *         @arg @ref LL_EXTI_LINE_6
 672:C:/Users/nace/OneDrive/Desktop/STM32/Projects_nace/NUCLEO_LL_Project_LCD/STM32_template_proj/Drivers/STM32F1xx_HAL_Driver/Inc\stm32f1xx_ll_exti.h ****   *         @arg @ref LL_EXTI_LINE_7
 673:C:/Users/nace/OneDrive/Desktop/STM32/Projects_nace/NUCLEO_LL_Project_LCD/STM32_template_proj/Drivers/STM32F1xx_HAL_Driver/Inc\stm32f1xx_ll_exti.h ****   *         @arg @ref LL_EXTI_LINE_8
 674:C:/Users/nace/OneDrive/Desktop/STM32/Projects_nace/NUCLEO_LL_Project_LCD/STM32_template_proj/Drivers/STM32F1xx_HAL_Driver/Inc\stm32f1xx_ll_exti.h ****   *         @arg @ref LL_EXTI_LINE_9
 675:C:/Users/nace/OneDrive/Desktop/STM32/Projects_nace/NUCLEO_LL_Project_LCD/STM32_template_proj/Drivers/STM32F1xx_HAL_Driver/Inc\stm32f1xx_ll_exti.h ****   *         @arg @ref LL_EXTI_LINE_10
 676:C:/Users/nace/OneDrive/Desktop/STM32/Projects_nace/NUCLEO_LL_Project_LCD/STM32_template_proj/Drivers/STM32F1xx_HAL_Driver/Inc\stm32f1xx_ll_exti.h ****   *         @arg @ref LL_EXTI_LINE_11
 677:C:/Users/nace/OneDrive/Desktop/STM32/Projects_nace/NUCLEO_LL_Project_LCD/STM32_template_proj/Drivers/STM32F1xx_HAL_Driver/Inc\stm32f1xx_ll_exti.h ****   *         @arg @ref LL_EXTI_LINE_12
 678:C:/Users/nace/OneDrive/Desktop/STM32/Projects_nace/NUCLEO_LL_Project_LCD/STM32_template_proj/Drivers/STM32F1xx_HAL_Driver/Inc\stm32f1xx_ll_exti.h ****   *         @arg @ref LL_EXTI_LINE_13
 679:C:/Users/nace/OneDrive/Desktop/STM32/Projects_nace/NUCLEO_LL_Project_LCD/STM32_template_proj/Drivers/STM32F1xx_HAL_Driver/Inc\stm32f1xx_ll_exti.h ****   *         @arg @ref LL_EXTI_LINE_14
 680:C:/Users/nace/OneDrive/Desktop/STM32/Projects_nace/NUCLEO_LL_Project_LCD/STM32_template_proj/Drivers/STM32F1xx_HAL_Driver/Inc\stm32f1xx_ll_exti.h ****   *         @arg @ref LL_EXTI_LINE_15
 681:C:/Users/nace/OneDrive/Desktop/STM32/Projects_nace/NUCLEO_LL_Project_LCD/STM32_template_proj/Drivers/STM32F1xx_HAL_Driver/Inc\stm32f1xx_ll_exti.h ****   *         @arg @ref LL_EXTI_LINE_16
 682:C:/Users/nace/OneDrive/Desktop/STM32/Projects_nace/NUCLEO_LL_Project_LCD/STM32_template_proj/Drivers/STM32F1xx_HAL_Driver/Inc\stm32f1xx_ll_exti.h ****   *         @arg @ref LL_EXTI_LINE_18
 683:C:/Users/nace/OneDrive/Desktop/STM32/Projects_nace/NUCLEO_LL_Project_LCD/STM32_template_proj/Drivers/STM32F1xx_HAL_Driver/Inc\stm32f1xx_ll_exti.h ****   *         @arg @ref LL_EXTI_LINE_19
 684:C:/Users/nace/OneDrive/Desktop/STM32/Projects_nace/NUCLEO_LL_Project_LCD/STM32_template_proj/Drivers/STM32F1xx_HAL_Driver/Inc\stm32f1xx_ll_exti.h ****   * @note   Please check each device line mapping for EXTI Line availability
 685:C:/Users/nace/OneDrive/Desktop/STM32/Projects_nace/NUCLEO_LL_Project_LCD/STM32_template_proj/Drivers/STM32F1xx_HAL_Driver/Inc\stm32f1xx_ll_exti.h ****   * @retval State of bit (1 or 0).
 686:C:/Users/nace/OneDrive/Desktop/STM32/Projects_nace/NUCLEO_LL_Project_LCD/STM32_template_proj/Drivers/STM32F1xx_HAL_Driver/Inc\stm32f1xx_ll_exti.h ****   */
 687:C:/Users/nace/OneDrive/Desktop/STM32/Projects_nace/NUCLEO_LL_Project_LCD/STM32_template_proj/Drivers/STM32F1xx_HAL_Driver/Inc\stm32f1xx_ll_exti.h **** __STATIC_INLINE uint32_t LL_EXTI_IsEnabledFallingTrig_0_31(uint32_t ExtiLine)
 688:C:/Users/nace/OneDrive/Desktop/STM32/Projects_nace/NUCLEO_LL_Project_LCD/STM32_template_proj/Drivers/STM32F1xx_HAL_Driver/Inc\stm32f1xx_ll_exti.h **** {
 689:C:/Users/nace/OneDrive/Desktop/STM32/Projects_nace/NUCLEO_LL_Project_LCD/STM32_template_proj/Drivers/STM32F1xx_HAL_Driver/Inc\stm32f1xx_ll_exti.h ****   return (READ_BIT(EXTI->FTSR, ExtiLine) == (ExtiLine));
 690:C:/Users/nace/OneDrive/Desktop/STM32/Projects_nace/NUCLEO_LL_Project_LCD/STM32_template_proj/Drivers/STM32F1xx_HAL_Driver/Inc\stm32f1xx_ll_exti.h **** }
 691:C:/Users/nace/OneDrive/Desktop/STM32/Projects_nace/NUCLEO_LL_Project_LCD/STM32_template_proj/Drivers/STM32F1xx_HAL_Driver/Inc\stm32f1xx_ll_exti.h **** 
 692:C:/Users/nace/OneDrive/Desktop/STM32/Projects_nace/NUCLEO_LL_Project_LCD/STM32_template_proj/Drivers/STM32F1xx_HAL_Driver/Inc\stm32f1xx_ll_exti.h **** 
 693:C:/Users/nace/OneDrive/Desktop/STM32/Projects_nace/NUCLEO_LL_Project_LCD/STM32_template_proj/Drivers/STM32F1xx_HAL_Driver/Inc\stm32f1xx_ll_exti.h **** /**
 694:C:/Users/nace/OneDrive/Desktop/STM32/Projects_nace/NUCLEO_LL_Project_LCD/STM32_template_proj/Drivers/STM32F1xx_HAL_Driver/Inc\stm32f1xx_ll_exti.h ****   * @}
 695:C:/Users/nace/OneDrive/Desktop/STM32/Projects_nace/NUCLEO_LL_Project_LCD/STM32_template_proj/Drivers/STM32F1xx_HAL_Driver/Inc\stm32f1xx_ll_exti.h ****   */
 696:C:/Users/nace/OneDrive/Desktop/STM32/Projects_nace/NUCLEO_LL_Project_LCD/STM32_template_proj/Drivers/STM32F1xx_HAL_Driver/Inc\stm32f1xx_ll_exti.h **** 
 697:C:/Users/nace/OneDrive/Desktop/STM32/Projects_nace/NUCLEO_LL_Project_LCD/STM32_template_proj/Drivers/STM32F1xx_HAL_Driver/Inc\stm32f1xx_ll_exti.h **** /** @defgroup EXTI_LL_EF_Software_Interrupt_Management Software_Interrupt_Management
 698:C:/Users/nace/OneDrive/Desktop/STM32/Projects_nace/NUCLEO_LL_Project_LCD/STM32_template_proj/Drivers/STM32F1xx_HAL_Driver/Inc\stm32f1xx_ll_exti.h ****   * @{
 699:C:/Users/nace/OneDrive/Desktop/STM32/Projects_nace/NUCLEO_LL_Project_LCD/STM32_template_proj/Drivers/STM32F1xx_HAL_Driver/Inc\stm32f1xx_ll_exti.h ****   */
 700:C:/Users/nace/OneDrive/Desktop/STM32/Projects_nace/NUCLEO_LL_Project_LCD/STM32_template_proj/Drivers/STM32F1xx_HAL_Driver/Inc\stm32f1xx_ll_exti.h **** 
 701:C:/Users/nace/OneDrive/Desktop/STM32/Projects_nace/NUCLEO_LL_Project_LCD/STM32_template_proj/Drivers/STM32F1xx_HAL_Driver/Inc\stm32f1xx_ll_exti.h **** /**
 702:C:/Users/nace/OneDrive/Desktop/STM32/Projects_nace/NUCLEO_LL_Project_LCD/STM32_template_proj/Drivers/STM32F1xx_HAL_Driver/Inc\stm32f1xx_ll_exti.h ****   * @brief  Generate a software Interrupt Event for Lines in range 0 to 31
 703:C:/Users/nace/OneDrive/Desktop/STM32/Projects_nace/NUCLEO_LL_Project_LCD/STM32_template_proj/Drivers/STM32F1xx_HAL_Driver/Inc\stm32f1xx_ll_exti.h ****   * @note If the interrupt is enabled on this line in the EXTI_IMR, writing a 1 to
 704:C:/Users/nace/OneDrive/Desktop/STM32/Projects_nace/NUCLEO_LL_Project_LCD/STM32_template_proj/Drivers/STM32F1xx_HAL_Driver/Inc\stm32f1xx_ll_exti.h ****   *       this bit when it is at '0' sets the corresponding pending bit in EXTI_PR
 705:C:/Users/nace/OneDrive/Desktop/STM32/Projects_nace/NUCLEO_LL_Project_LCD/STM32_template_proj/Drivers/STM32F1xx_HAL_Driver/Inc\stm32f1xx_ll_exti.h ****   *       resulting in an interrupt request generation.
 706:C:/Users/nace/OneDrive/Desktop/STM32/Projects_nace/NUCLEO_LL_Project_LCD/STM32_template_proj/Drivers/STM32F1xx_HAL_Driver/Inc\stm32f1xx_ll_exti.h ****   *       This bit is cleared by clearing the corresponding bit in the EXTI_PR
 707:C:/Users/nace/OneDrive/Desktop/STM32/Projects_nace/NUCLEO_LL_Project_LCD/STM32_template_proj/Drivers/STM32F1xx_HAL_Driver/Inc\stm32f1xx_ll_exti.h ****   *       register (by writing a 1 into the bit)
 708:C:/Users/nace/OneDrive/Desktop/STM32/Projects_nace/NUCLEO_LL_Project_LCD/STM32_template_proj/Drivers/STM32F1xx_HAL_Driver/Inc\stm32f1xx_ll_exti.h ****   * @rmtoll SWIER       SWIx          LL_EXTI_GenerateSWI_0_31
 709:C:/Users/nace/OneDrive/Desktop/STM32/Projects_nace/NUCLEO_LL_Project_LCD/STM32_template_proj/Drivers/STM32F1xx_HAL_Driver/Inc\stm32f1xx_ll_exti.h ****   * @param  ExtiLine This parameter can be a combination of the following values:
 710:C:/Users/nace/OneDrive/Desktop/STM32/Projects_nace/NUCLEO_LL_Project_LCD/STM32_template_proj/Drivers/STM32F1xx_HAL_Driver/Inc\stm32f1xx_ll_exti.h ****   *         @arg @ref LL_EXTI_LINE_0
 711:C:/Users/nace/OneDrive/Desktop/STM32/Projects_nace/NUCLEO_LL_Project_LCD/STM32_template_proj/Drivers/STM32F1xx_HAL_Driver/Inc\stm32f1xx_ll_exti.h ****   *         @arg @ref LL_EXTI_LINE_1
 712:C:/Users/nace/OneDrive/Desktop/STM32/Projects_nace/NUCLEO_LL_Project_LCD/STM32_template_proj/Drivers/STM32F1xx_HAL_Driver/Inc\stm32f1xx_ll_exti.h ****   *         @arg @ref LL_EXTI_LINE_2
 713:C:/Users/nace/OneDrive/Desktop/STM32/Projects_nace/NUCLEO_LL_Project_LCD/STM32_template_proj/Drivers/STM32F1xx_HAL_Driver/Inc\stm32f1xx_ll_exti.h ****   *         @arg @ref LL_EXTI_LINE_3
 714:C:/Users/nace/OneDrive/Desktop/STM32/Projects_nace/NUCLEO_LL_Project_LCD/STM32_template_proj/Drivers/STM32F1xx_HAL_Driver/Inc\stm32f1xx_ll_exti.h ****   *         @arg @ref LL_EXTI_LINE_4
 715:C:/Users/nace/OneDrive/Desktop/STM32/Projects_nace/NUCLEO_LL_Project_LCD/STM32_template_proj/Drivers/STM32F1xx_HAL_Driver/Inc\stm32f1xx_ll_exti.h ****   *         @arg @ref LL_EXTI_LINE_5
 716:C:/Users/nace/OneDrive/Desktop/STM32/Projects_nace/NUCLEO_LL_Project_LCD/STM32_template_proj/Drivers/STM32F1xx_HAL_Driver/Inc\stm32f1xx_ll_exti.h ****   *         @arg @ref LL_EXTI_LINE_6
 717:C:/Users/nace/OneDrive/Desktop/STM32/Projects_nace/NUCLEO_LL_Project_LCD/STM32_template_proj/Drivers/STM32F1xx_HAL_Driver/Inc\stm32f1xx_ll_exti.h ****   *         @arg @ref LL_EXTI_LINE_7
 718:C:/Users/nace/OneDrive/Desktop/STM32/Projects_nace/NUCLEO_LL_Project_LCD/STM32_template_proj/Drivers/STM32F1xx_HAL_Driver/Inc\stm32f1xx_ll_exti.h ****   *         @arg @ref LL_EXTI_LINE_8
 719:C:/Users/nace/OneDrive/Desktop/STM32/Projects_nace/NUCLEO_LL_Project_LCD/STM32_template_proj/Drivers/STM32F1xx_HAL_Driver/Inc\stm32f1xx_ll_exti.h ****   *         @arg @ref LL_EXTI_LINE_9
 720:C:/Users/nace/OneDrive/Desktop/STM32/Projects_nace/NUCLEO_LL_Project_LCD/STM32_template_proj/Drivers/STM32F1xx_HAL_Driver/Inc\stm32f1xx_ll_exti.h ****   *         @arg @ref LL_EXTI_LINE_10
 721:C:/Users/nace/OneDrive/Desktop/STM32/Projects_nace/NUCLEO_LL_Project_LCD/STM32_template_proj/Drivers/STM32F1xx_HAL_Driver/Inc\stm32f1xx_ll_exti.h ****   *         @arg @ref LL_EXTI_LINE_11
 722:C:/Users/nace/OneDrive/Desktop/STM32/Projects_nace/NUCLEO_LL_Project_LCD/STM32_template_proj/Drivers/STM32F1xx_HAL_Driver/Inc\stm32f1xx_ll_exti.h ****   *         @arg @ref LL_EXTI_LINE_12
 723:C:/Users/nace/OneDrive/Desktop/STM32/Projects_nace/NUCLEO_LL_Project_LCD/STM32_template_proj/Drivers/STM32F1xx_HAL_Driver/Inc\stm32f1xx_ll_exti.h ****   *         @arg @ref LL_EXTI_LINE_13
 724:C:/Users/nace/OneDrive/Desktop/STM32/Projects_nace/NUCLEO_LL_Project_LCD/STM32_template_proj/Drivers/STM32F1xx_HAL_Driver/Inc\stm32f1xx_ll_exti.h ****   *         @arg @ref LL_EXTI_LINE_14
 725:C:/Users/nace/OneDrive/Desktop/STM32/Projects_nace/NUCLEO_LL_Project_LCD/STM32_template_proj/Drivers/STM32F1xx_HAL_Driver/Inc\stm32f1xx_ll_exti.h ****   *         @arg @ref LL_EXTI_LINE_15
 726:C:/Users/nace/OneDrive/Desktop/STM32/Projects_nace/NUCLEO_LL_Project_LCD/STM32_template_proj/Drivers/STM32F1xx_HAL_Driver/Inc\stm32f1xx_ll_exti.h ****   *         @arg @ref LL_EXTI_LINE_16
 727:C:/Users/nace/OneDrive/Desktop/STM32/Projects_nace/NUCLEO_LL_Project_LCD/STM32_template_proj/Drivers/STM32F1xx_HAL_Driver/Inc\stm32f1xx_ll_exti.h ****   *         @arg @ref LL_EXTI_LINE_18
 728:C:/Users/nace/OneDrive/Desktop/STM32/Projects_nace/NUCLEO_LL_Project_LCD/STM32_template_proj/Drivers/STM32F1xx_HAL_Driver/Inc\stm32f1xx_ll_exti.h ****   *         @arg @ref LL_EXTI_LINE_19
 729:C:/Users/nace/OneDrive/Desktop/STM32/Projects_nace/NUCLEO_LL_Project_LCD/STM32_template_proj/Drivers/STM32F1xx_HAL_Driver/Inc\stm32f1xx_ll_exti.h ****   * @note   Please check each device line mapping for EXTI Line availability
 730:C:/Users/nace/OneDrive/Desktop/STM32/Projects_nace/NUCLEO_LL_Project_LCD/STM32_template_proj/Drivers/STM32F1xx_HAL_Driver/Inc\stm32f1xx_ll_exti.h ****   * @retval None
 731:C:/Users/nace/OneDrive/Desktop/STM32/Projects_nace/NUCLEO_LL_Project_LCD/STM32_template_proj/Drivers/STM32F1xx_HAL_Driver/Inc\stm32f1xx_ll_exti.h ****   */
 732:C:/Users/nace/OneDrive/Desktop/STM32/Projects_nace/NUCLEO_LL_Project_LCD/STM32_template_proj/Drivers/STM32F1xx_HAL_Driver/Inc\stm32f1xx_ll_exti.h **** __STATIC_INLINE void LL_EXTI_GenerateSWI_0_31(uint32_t ExtiLine)
 733:C:/Users/nace/OneDrive/Desktop/STM32/Projects_nace/NUCLEO_LL_Project_LCD/STM32_template_proj/Drivers/STM32F1xx_HAL_Driver/Inc\stm32f1xx_ll_exti.h **** {
 734:C:/Users/nace/OneDrive/Desktop/STM32/Projects_nace/NUCLEO_LL_Project_LCD/STM32_template_proj/Drivers/STM32F1xx_HAL_Driver/Inc\stm32f1xx_ll_exti.h ****   SET_BIT(EXTI->SWIER, ExtiLine);
 735:C:/Users/nace/OneDrive/Desktop/STM32/Projects_nace/NUCLEO_LL_Project_LCD/STM32_template_proj/Drivers/STM32F1xx_HAL_Driver/Inc\stm32f1xx_ll_exti.h **** }
 736:C:/Users/nace/OneDrive/Desktop/STM32/Projects_nace/NUCLEO_LL_Project_LCD/STM32_template_proj/Drivers/STM32F1xx_HAL_Driver/Inc\stm32f1xx_ll_exti.h **** 
 737:C:/Users/nace/OneDrive/Desktop/STM32/Projects_nace/NUCLEO_LL_Project_LCD/STM32_template_proj/Drivers/STM32F1xx_HAL_Driver/Inc\stm32f1xx_ll_exti.h **** 
 738:C:/Users/nace/OneDrive/Desktop/STM32/Projects_nace/NUCLEO_LL_Project_LCD/STM32_template_proj/Drivers/STM32F1xx_HAL_Driver/Inc\stm32f1xx_ll_exti.h **** /**
 739:C:/Users/nace/OneDrive/Desktop/STM32/Projects_nace/NUCLEO_LL_Project_LCD/STM32_template_proj/Drivers/STM32F1xx_HAL_Driver/Inc\stm32f1xx_ll_exti.h ****   * @}
 740:C:/Users/nace/OneDrive/Desktop/STM32/Projects_nace/NUCLEO_LL_Project_LCD/STM32_template_proj/Drivers/STM32F1xx_HAL_Driver/Inc\stm32f1xx_ll_exti.h ****   */
 741:C:/Users/nace/OneDrive/Desktop/STM32/Projects_nace/NUCLEO_LL_Project_LCD/STM32_template_proj/Drivers/STM32F1xx_HAL_Driver/Inc\stm32f1xx_ll_exti.h **** 
 742:C:/Users/nace/OneDrive/Desktop/STM32/Projects_nace/NUCLEO_LL_Project_LCD/STM32_template_proj/Drivers/STM32F1xx_HAL_Driver/Inc\stm32f1xx_ll_exti.h **** /** @defgroup EXTI_LL_EF_Flag_Management Flag_Management
 743:C:/Users/nace/OneDrive/Desktop/STM32/Projects_nace/NUCLEO_LL_Project_LCD/STM32_template_proj/Drivers/STM32F1xx_HAL_Driver/Inc\stm32f1xx_ll_exti.h ****   * @{
 744:C:/Users/nace/OneDrive/Desktop/STM32/Projects_nace/NUCLEO_LL_Project_LCD/STM32_template_proj/Drivers/STM32F1xx_HAL_Driver/Inc\stm32f1xx_ll_exti.h ****   */
 745:C:/Users/nace/OneDrive/Desktop/STM32/Projects_nace/NUCLEO_LL_Project_LCD/STM32_template_proj/Drivers/STM32F1xx_HAL_Driver/Inc\stm32f1xx_ll_exti.h **** 
 746:C:/Users/nace/OneDrive/Desktop/STM32/Projects_nace/NUCLEO_LL_Project_LCD/STM32_template_proj/Drivers/STM32F1xx_HAL_Driver/Inc\stm32f1xx_ll_exti.h **** /**
 747:C:/Users/nace/OneDrive/Desktop/STM32/Projects_nace/NUCLEO_LL_Project_LCD/STM32_template_proj/Drivers/STM32F1xx_HAL_Driver/Inc\stm32f1xx_ll_exti.h ****   * @brief  Check if the ExtLine Flag is set or not for Lines in range 0 to 31
 748:C:/Users/nace/OneDrive/Desktop/STM32/Projects_nace/NUCLEO_LL_Project_LCD/STM32_template_proj/Drivers/STM32F1xx_HAL_Driver/Inc\stm32f1xx_ll_exti.h ****   * @note This bit is set when the selected edge event arrives on the interrupt
 749:C:/Users/nace/OneDrive/Desktop/STM32/Projects_nace/NUCLEO_LL_Project_LCD/STM32_template_proj/Drivers/STM32F1xx_HAL_Driver/Inc\stm32f1xx_ll_exti.h ****   *       line. This bit is cleared by writing a 1 to the bit.
 750:C:/Users/nace/OneDrive/Desktop/STM32/Projects_nace/NUCLEO_LL_Project_LCD/STM32_template_proj/Drivers/STM32F1xx_HAL_Driver/Inc\stm32f1xx_ll_exti.h ****   * @rmtoll PR          PIFx           LL_EXTI_IsActiveFlag_0_31
 751:C:/Users/nace/OneDrive/Desktop/STM32/Projects_nace/NUCLEO_LL_Project_LCD/STM32_template_proj/Drivers/STM32F1xx_HAL_Driver/Inc\stm32f1xx_ll_exti.h ****   * @param  ExtiLine This parameter can be a combination of the following values:
 752:C:/Users/nace/OneDrive/Desktop/STM32/Projects_nace/NUCLEO_LL_Project_LCD/STM32_template_proj/Drivers/STM32F1xx_HAL_Driver/Inc\stm32f1xx_ll_exti.h ****   *         @arg @ref LL_EXTI_LINE_0
 753:C:/Users/nace/OneDrive/Desktop/STM32/Projects_nace/NUCLEO_LL_Project_LCD/STM32_template_proj/Drivers/STM32F1xx_HAL_Driver/Inc\stm32f1xx_ll_exti.h ****   *         @arg @ref LL_EXTI_LINE_1
 754:C:/Users/nace/OneDrive/Desktop/STM32/Projects_nace/NUCLEO_LL_Project_LCD/STM32_template_proj/Drivers/STM32F1xx_HAL_Driver/Inc\stm32f1xx_ll_exti.h ****   *         @arg @ref LL_EXTI_LINE_2
 755:C:/Users/nace/OneDrive/Desktop/STM32/Projects_nace/NUCLEO_LL_Project_LCD/STM32_template_proj/Drivers/STM32F1xx_HAL_Driver/Inc\stm32f1xx_ll_exti.h ****   *         @arg @ref LL_EXTI_LINE_3
 756:C:/Users/nace/OneDrive/Desktop/STM32/Projects_nace/NUCLEO_LL_Project_LCD/STM32_template_proj/Drivers/STM32F1xx_HAL_Driver/Inc\stm32f1xx_ll_exti.h ****   *         @arg @ref LL_EXTI_LINE_4
 757:C:/Users/nace/OneDrive/Desktop/STM32/Projects_nace/NUCLEO_LL_Project_LCD/STM32_template_proj/Drivers/STM32F1xx_HAL_Driver/Inc\stm32f1xx_ll_exti.h ****   *         @arg @ref LL_EXTI_LINE_5
 758:C:/Users/nace/OneDrive/Desktop/STM32/Projects_nace/NUCLEO_LL_Project_LCD/STM32_template_proj/Drivers/STM32F1xx_HAL_Driver/Inc\stm32f1xx_ll_exti.h ****   *         @arg @ref LL_EXTI_LINE_6
 759:C:/Users/nace/OneDrive/Desktop/STM32/Projects_nace/NUCLEO_LL_Project_LCD/STM32_template_proj/Drivers/STM32F1xx_HAL_Driver/Inc\stm32f1xx_ll_exti.h ****   *         @arg @ref LL_EXTI_LINE_7
 760:C:/Users/nace/OneDrive/Desktop/STM32/Projects_nace/NUCLEO_LL_Project_LCD/STM32_template_proj/Drivers/STM32F1xx_HAL_Driver/Inc\stm32f1xx_ll_exti.h ****   *         @arg @ref LL_EXTI_LINE_8
 761:C:/Users/nace/OneDrive/Desktop/STM32/Projects_nace/NUCLEO_LL_Project_LCD/STM32_template_proj/Drivers/STM32F1xx_HAL_Driver/Inc\stm32f1xx_ll_exti.h ****   *         @arg @ref LL_EXTI_LINE_9
 762:C:/Users/nace/OneDrive/Desktop/STM32/Projects_nace/NUCLEO_LL_Project_LCD/STM32_template_proj/Drivers/STM32F1xx_HAL_Driver/Inc\stm32f1xx_ll_exti.h ****   *         @arg @ref LL_EXTI_LINE_10
 763:C:/Users/nace/OneDrive/Desktop/STM32/Projects_nace/NUCLEO_LL_Project_LCD/STM32_template_proj/Drivers/STM32F1xx_HAL_Driver/Inc\stm32f1xx_ll_exti.h ****   *         @arg @ref LL_EXTI_LINE_11
 764:C:/Users/nace/OneDrive/Desktop/STM32/Projects_nace/NUCLEO_LL_Project_LCD/STM32_template_proj/Drivers/STM32F1xx_HAL_Driver/Inc\stm32f1xx_ll_exti.h ****   *         @arg @ref LL_EXTI_LINE_12
 765:C:/Users/nace/OneDrive/Desktop/STM32/Projects_nace/NUCLEO_LL_Project_LCD/STM32_template_proj/Drivers/STM32F1xx_HAL_Driver/Inc\stm32f1xx_ll_exti.h ****   *         @arg @ref LL_EXTI_LINE_13
 766:C:/Users/nace/OneDrive/Desktop/STM32/Projects_nace/NUCLEO_LL_Project_LCD/STM32_template_proj/Drivers/STM32F1xx_HAL_Driver/Inc\stm32f1xx_ll_exti.h ****   *         @arg @ref LL_EXTI_LINE_14
 767:C:/Users/nace/OneDrive/Desktop/STM32/Projects_nace/NUCLEO_LL_Project_LCD/STM32_template_proj/Drivers/STM32F1xx_HAL_Driver/Inc\stm32f1xx_ll_exti.h ****   *         @arg @ref LL_EXTI_LINE_15
 768:C:/Users/nace/OneDrive/Desktop/STM32/Projects_nace/NUCLEO_LL_Project_LCD/STM32_template_proj/Drivers/STM32F1xx_HAL_Driver/Inc\stm32f1xx_ll_exti.h ****   *         @arg @ref LL_EXTI_LINE_16
 769:C:/Users/nace/OneDrive/Desktop/STM32/Projects_nace/NUCLEO_LL_Project_LCD/STM32_template_proj/Drivers/STM32F1xx_HAL_Driver/Inc\stm32f1xx_ll_exti.h ****   *         @arg @ref LL_EXTI_LINE_18
 770:C:/Users/nace/OneDrive/Desktop/STM32/Projects_nace/NUCLEO_LL_Project_LCD/STM32_template_proj/Drivers/STM32F1xx_HAL_Driver/Inc\stm32f1xx_ll_exti.h ****   *         @arg @ref LL_EXTI_LINE_19
 771:C:/Users/nace/OneDrive/Desktop/STM32/Projects_nace/NUCLEO_LL_Project_LCD/STM32_template_proj/Drivers/STM32F1xx_HAL_Driver/Inc\stm32f1xx_ll_exti.h ****   * @note   Please check each device line mapping for EXTI Line availability
 772:C:/Users/nace/OneDrive/Desktop/STM32/Projects_nace/NUCLEO_LL_Project_LCD/STM32_template_proj/Drivers/STM32F1xx_HAL_Driver/Inc\stm32f1xx_ll_exti.h ****   * @retval State of bit (1 or 0).
 773:C:/Users/nace/OneDrive/Desktop/STM32/Projects_nace/NUCLEO_LL_Project_LCD/STM32_template_proj/Drivers/STM32F1xx_HAL_Driver/Inc\stm32f1xx_ll_exti.h ****   */
 774:C:/Users/nace/OneDrive/Desktop/STM32/Projects_nace/NUCLEO_LL_Project_LCD/STM32_template_proj/Drivers/STM32F1xx_HAL_Driver/Inc\stm32f1xx_ll_exti.h **** __STATIC_INLINE uint32_t LL_EXTI_IsActiveFlag_0_31(uint32_t ExtiLine)
 205              		.loc 2 774 26 view .LVU26
 206              	.LBB43:
 775:C:/Users/nace/OneDrive/Desktop/STM32/Projects_nace/NUCLEO_LL_Project_LCD/STM32_template_proj/Drivers/STM32F1xx_HAL_Driver/Inc\stm32f1xx_ll_exti.h **** {
 776:C:/Users/nace/OneDrive/Desktop/STM32/Projects_nace/NUCLEO_LL_Project_LCD/STM32_template_proj/Drivers/STM32F1xx_HAL_Driver/Inc\stm32f1xx_ll_exti.h ****   return (READ_BIT(EXTI->PR, ExtiLine) == (ExtiLine));
 207              		.loc 2 776 3 view .LVU27
 208              		.loc 2 776 11 is_stmt 0 view .LVU28
 209 0000 044B     		ldr	r3, .L15
 210 0002 5B69     		ldr	r3, [r3, #20]
 211              	.LVL1:
 212              		.loc 2 776 11 view .LVU29
 213              	.LBE43:
 214              	.LBE42:
 215              		.loc 1 156 6 view .LVU30
 216 0004 13F4005F 		tst	r3, #8192
 217 0008 03D0     		beq	.L13
 157:C:/Users/nace/OneDrive/Desktop/STM32/Projects_nace/NUCLEO_LL_Project_LCD/STM32_template_proj/Core/Src\stm32f1xx_it.c ****   {
 158:C:/Users/nace/OneDrive/Desktop/STM32/Projects_nace/NUCLEO_LL_Project_LCD/STM32_template_proj/Core/Src\stm32f1xx_it.c ****     LL_EXTI_ClearFlag_0_31(LL_EXTI_LINE_13);
 218              		.loc 1 158 5 is_stmt 1 view .LVU31
 219              	.LVL2:
 220              	.LBB44:
 221              	.LBI44:
 777:C:/Users/nace/OneDrive/Desktop/STM32/Projects_nace/NUCLEO_LL_Project_LCD/STM32_template_proj/Drivers/STM32F1xx_HAL_Driver/Inc\stm32f1xx_ll_exti.h **** }
 778:C:/Users/nace/OneDrive/Desktop/STM32/Projects_nace/NUCLEO_LL_Project_LCD/STM32_template_proj/Drivers/STM32F1xx_HAL_Driver/Inc\stm32f1xx_ll_exti.h **** 
 779:C:/Users/nace/OneDrive/Desktop/STM32/Projects_nace/NUCLEO_LL_Project_LCD/STM32_template_proj/Drivers/STM32F1xx_HAL_Driver/Inc\stm32f1xx_ll_exti.h **** 
 780:C:/Users/nace/OneDrive/Desktop/STM32/Projects_nace/NUCLEO_LL_Project_LCD/STM32_template_proj/Drivers/STM32F1xx_HAL_Driver/Inc\stm32f1xx_ll_exti.h **** /**
 781:C:/Users/nace/OneDrive/Desktop/STM32/Projects_nace/NUCLEO_LL_Project_LCD/STM32_template_proj/Drivers/STM32F1xx_HAL_Driver/Inc\stm32f1xx_ll_exti.h ****   * @brief  Read ExtLine Combination Flag for Lines in range 0 to 31
 782:C:/Users/nace/OneDrive/Desktop/STM32/Projects_nace/NUCLEO_LL_Project_LCD/STM32_template_proj/Drivers/STM32F1xx_HAL_Driver/Inc\stm32f1xx_ll_exti.h ****   * @note This bit is set when the selected edge event arrives on the interrupt
 783:C:/Users/nace/OneDrive/Desktop/STM32/Projects_nace/NUCLEO_LL_Project_LCD/STM32_template_proj/Drivers/STM32F1xx_HAL_Driver/Inc\stm32f1xx_ll_exti.h ****   *       line. This bit is cleared by writing a 1 to the bit.
 784:C:/Users/nace/OneDrive/Desktop/STM32/Projects_nace/NUCLEO_LL_Project_LCD/STM32_template_proj/Drivers/STM32F1xx_HAL_Driver/Inc\stm32f1xx_ll_exti.h ****   * @rmtoll PR          PIFx           LL_EXTI_ReadFlag_0_31
 785:C:/Users/nace/OneDrive/Desktop/STM32/Projects_nace/NUCLEO_LL_Project_LCD/STM32_template_proj/Drivers/STM32F1xx_HAL_Driver/Inc\stm32f1xx_ll_exti.h ****   * @param  ExtiLine This parameter can be a combination of the following values:
 786:C:/Users/nace/OneDrive/Desktop/STM32/Projects_nace/NUCLEO_LL_Project_LCD/STM32_template_proj/Drivers/STM32F1xx_HAL_Driver/Inc\stm32f1xx_ll_exti.h ****   *         @arg @ref LL_EXTI_LINE_0
 787:C:/Users/nace/OneDrive/Desktop/STM32/Projects_nace/NUCLEO_LL_Project_LCD/STM32_template_proj/Drivers/STM32F1xx_HAL_Driver/Inc\stm32f1xx_ll_exti.h ****   *         @arg @ref LL_EXTI_LINE_1
 788:C:/Users/nace/OneDrive/Desktop/STM32/Projects_nace/NUCLEO_LL_Project_LCD/STM32_template_proj/Drivers/STM32F1xx_HAL_Driver/Inc\stm32f1xx_ll_exti.h ****   *         @arg @ref LL_EXTI_LINE_2
 789:C:/Users/nace/OneDrive/Desktop/STM32/Projects_nace/NUCLEO_LL_Project_LCD/STM32_template_proj/Drivers/STM32F1xx_HAL_Driver/Inc\stm32f1xx_ll_exti.h ****   *         @arg @ref LL_EXTI_LINE_3
 790:C:/Users/nace/OneDrive/Desktop/STM32/Projects_nace/NUCLEO_LL_Project_LCD/STM32_template_proj/Drivers/STM32F1xx_HAL_Driver/Inc\stm32f1xx_ll_exti.h ****   *         @arg @ref LL_EXTI_LINE_4
 791:C:/Users/nace/OneDrive/Desktop/STM32/Projects_nace/NUCLEO_LL_Project_LCD/STM32_template_proj/Drivers/STM32F1xx_HAL_Driver/Inc\stm32f1xx_ll_exti.h ****   *         @arg @ref LL_EXTI_LINE_5
 792:C:/Users/nace/OneDrive/Desktop/STM32/Projects_nace/NUCLEO_LL_Project_LCD/STM32_template_proj/Drivers/STM32F1xx_HAL_Driver/Inc\stm32f1xx_ll_exti.h ****   *         @arg @ref LL_EXTI_LINE_6
 793:C:/Users/nace/OneDrive/Desktop/STM32/Projects_nace/NUCLEO_LL_Project_LCD/STM32_template_proj/Drivers/STM32F1xx_HAL_Driver/Inc\stm32f1xx_ll_exti.h ****   *         @arg @ref LL_EXTI_LINE_7
 794:C:/Users/nace/OneDrive/Desktop/STM32/Projects_nace/NUCLEO_LL_Project_LCD/STM32_template_proj/Drivers/STM32F1xx_HAL_Driver/Inc\stm32f1xx_ll_exti.h ****   *         @arg @ref LL_EXTI_LINE_8
 795:C:/Users/nace/OneDrive/Desktop/STM32/Projects_nace/NUCLEO_LL_Project_LCD/STM32_template_proj/Drivers/STM32F1xx_HAL_Driver/Inc\stm32f1xx_ll_exti.h ****   *         @arg @ref LL_EXTI_LINE_9
 796:C:/Users/nace/OneDrive/Desktop/STM32/Projects_nace/NUCLEO_LL_Project_LCD/STM32_template_proj/Drivers/STM32F1xx_HAL_Driver/Inc\stm32f1xx_ll_exti.h ****   *         @arg @ref LL_EXTI_LINE_10
 797:C:/Users/nace/OneDrive/Desktop/STM32/Projects_nace/NUCLEO_LL_Project_LCD/STM32_template_proj/Drivers/STM32F1xx_HAL_Driver/Inc\stm32f1xx_ll_exti.h ****   *         @arg @ref LL_EXTI_LINE_11
 798:C:/Users/nace/OneDrive/Desktop/STM32/Projects_nace/NUCLEO_LL_Project_LCD/STM32_template_proj/Drivers/STM32F1xx_HAL_Driver/Inc\stm32f1xx_ll_exti.h ****   *         @arg @ref LL_EXTI_LINE_12
 799:C:/Users/nace/OneDrive/Desktop/STM32/Projects_nace/NUCLEO_LL_Project_LCD/STM32_template_proj/Drivers/STM32F1xx_HAL_Driver/Inc\stm32f1xx_ll_exti.h ****   *         @arg @ref LL_EXTI_LINE_13
 800:C:/Users/nace/OneDrive/Desktop/STM32/Projects_nace/NUCLEO_LL_Project_LCD/STM32_template_proj/Drivers/STM32F1xx_HAL_Driver/Inc\stm32f1xx_ll_exti.h ****   *         @arg @ref LL_EXTI_LINE_14
 801:C:/Users/nace/OneDrive/Desktop/STM32/Projects_nace/NUCLEO_LL_Project_LCD/STM32_template_proj/Drivers/STM32F1xx_HAL_Driver/Inc\stm32f1xx_ll_exti.h ****   *         @arg @ref LL_EXTI_LINE_15
 802:C:/Users/nace/OneDrive/Desktop/STM32/Projects_nace/NUCLEO_LL_Project_LCD/STM32_template_proj/Drivers/STM32F1xx_HAL_Driver/Inc\stm32f1xx_ll_exti.h ****   *         @arg @ref LL_EXTI_LINE_16
 803:C:/Users/nace/OneDrive/Desktop/STM32/Projects_nace/NUCLEO_LL_Project_LCD/STM32_template_proj/Drivers/STM32F1xx_HAL_Driver/Inc\stm32f1xx_ll_exti.h ****   *         @arg @ref LL_EXTI_LINE_18
 804:C:/Users/nace/OneDrive/Desktop/STM32/Projects_nace/NUCLEO_LL_Project_LCD/STM32_template_proj/Drivers/STM32F1xx_HAL_Driver/Inc\stm32f1xx_ll_exti.h ****   *         @arg @ref LL_EXTI_LINE_19
 805:C:/Users/nace/OneDrive/Desktop/STM32/Projects_nace/NUCLEO_LL_Project_LCD/STM32_template_proj/Drivers/STM32F1xx_HAL_Driver/Inc\stm32f1xx_ll_exti.h ****   * @note   Please check each device line mapping for EXTI Line availability
 806:C:/Users/nace/OneDrive/Desktop/STM32/Projects_nace/NUCLEO_LL_Project_LCD/STM32_template_proj/Drivers/STM32F1xx_HAL_Driver/Inc\stm32f1xx_ll_exti.h ****   * @retval @note This bit is set when the selected edge event arrives on the interrupt
 807:C:/Users/nace/OneDrive/Desktop/STM32/Projects_nace/NUCLEO_LL_Project_LCD/STM32_template_proj/Drivers/STM32F1xx_HAL_Driver/Inc\stm32f1xx_ll_exti.h ****   */
 808:C:/Users/nace/OneDrive/Desktop/STM32/Projects_nace/NUCLEO_LL_Project_LCD/STM32_template_proj/Drivers/STM32F1xx_HAL_Driver/Inc\stm32f1xx_ll_exti.h **** __STATIC_INLINE uint32_t LL_EXTI_ReadFlag_0_31(uint32_t ExtiLine)
 809:C:/Users/nace/OneDrive/Desktop/STM32/Projects_nace/NUCLEO_LL_Project_LCD/STM32_template_proj/Drivers/STM32F1xx_HAL_Driver/Inc\stm32f1xx_ll_exti.h **** {
 810:C:/Users/nace/OneDrive/Desktop/STM32/Projects_nace/NUCLEO_LL_Project_LCD/STM32_template_proj/Drivers/STM32F1xx_HAL_Driver/Inc\stm32f1xx_ll_exti.h ****   return (uint32_t)(READ_BIT(EXTI->PR, ExtiLine));
 811:C:/Users/nace/OneDrive/Desktop/STM32/Projects_nace/NUCLEO_LL_Project_LCD/STM32_template_proj/Drivers/STM32F1xx_HAL_Driver/Inc\stm32f1xx_ll_exti.h **** }
 812:C:/Users/nace/OneDrive/Desktop/STM32/Projects_nace/NUCLEO_LL_Project_LCD/STM32_template_proj/Drivers/STM32F1xx_HAL_Driver/Inc\stm32f1xx_ll_exti.h **** 
 813:C:/Users/nace/OneDrive/Desktop/STM32/Projects_nace/NUCLEO_LL_Project_LCD/STM32_template_proj/Drivers/STM32F1xx_HAL_Driver/Inc\stm32f1xx_ll_exti.h **** 
 814:C:/Users/nace/OneDrive/Desktop/STM32/Projects_nace/NUCLEO_LL_Project_LCD/STM32_template_proj/Drivers/STM32F1xx_HAL_Driver/Inc\stm32f1xx_ll_exti.h **** /**
 815:C:/Users/nace/OneDrive/Desktop/STM32/Projects_nace/NUCLEO_LL_Project_LCD/STM32_template_proj/Drivers/STM32F1xx_HAL_Driver/Inc\stm32f1xx_ll_exti.h ****   * @brief  Clear ExtLine Flags  for Lines in range 0 to 31
 816:C:/Users/nace/OneDrive/Desktop/STM32/Projects_nace/NUCLEO_LL_Project_LCD/STM32_template_proj/Drivers/STM32F1xx_HAL_Driver/Inc\stm32f1xx_ll_exti.h ****   * @note This bit is set when the selected edge event arrives on the interrupt
 817:C:/Users/nace/OneDrive/Desktop/STM32/Projects_nace/NUCLEO_LL_Project_LCD/STM32_template_proj/Drivers/STM32F1xx_HAL_Driver/Inc\stm32f1xx_ll_exti.h ****   *       line. This bit is cleared by writing a 1 to the bit.
 818:C:/Users/nace/OneDrive/Desktop/STM32/Projects_nace/NUCLEO_LL_Project_LCD/STM32_template_proj/Drivers/STM32F1xx_HAL_Driver/Inc\stm32f1xx_ll_exti.h ****   * @rmtoll PR          PIFx           LL_EXTI_ClearFlag_0_31
 819:C:/Users/nace/OneDrive/Desktop/STM32/Projects_nace/NUCLEO_LL_Project_LCD/STM32_template_proj/Drivers/STM32F1xx_HAL_Driver/Inc\stm32f1xx_ll_exti.h ****   * @param  ExtiLine This parameter can be a combination of the following values:
 820:C:/Users/nace/OneDrive/Desktop/STM32/Projects_nace/NUCLEO_LL_Project_LCD/STM32_template_proj/Drivers/STM32F1xx_HAL_Driver/Inc\stm32f1xx_ll_exti.h ****   *         @arg @ref LL_EXTI_LINE_0
 821:C:/Users/nace/OneDrive/Desktop/STM32/Projects_nace/NUCLEO_LL_Project_LCD/STM32_template_proj/Drivers/STM32F1xx_HAL_Driver/Inc\stm32f1xx_ll_exti.h ****   *         @arg @ref LL_EXTI_LINE_1
 822:C:/Users/nace/OneDrive/Desktop/STM32/Projects_nace/NUCLEO_LL_Project_LCD/STM32_template_proj/Drivers/STM32F1xx_HAL_Driver/Inc\stm32f1xx_ll_exti.h ****   *         @arg @ref LL_EXTI_LINE_2
 823:C:/Users/nace/OneDrive/Desktop/STM32/Projects_nace/NUCLEO_LL_Project_LCD/STM32_template_proj/Drivers/STM32F1xx_HAL_Driver/Inc\stm32f1xx_ll_exti.h ****   *         @arg @ref LL_EXTI_LINE_3
 824:C:/Users/nace/OneDrive/Desktop/STM32/Projects_nace/NUCLEO_LL_Project_LCD/STM32_template_proj/Drivers/STM32F1xx_HAL_Driver/Inc\stm32f1xx_ll_exti.h ****   *         @arg @ref LL_EXTI_LINE_4
 825:C:/Users/nace/OneDrive/Desktop/STM32/Projects_nace/NUCLEO_LL_Project_LCD/STM32_template_proj/Drivers/STM32F1xx_HAL_Driver/Inc\stm32f1xx_ll_exti.h ****   *         @arg @ref LL_EXTI_LINE_5
 826:C:/Users/nace/OneDrive/Desktop/STM32/Projects_nace/NUCLEO_LL_Project_LCD/STM32_template_proj/Drivers/STM32F1xx_HAL_Driver/Inc\stm32f1xx_ll_exti.h ****   *         @arg @ref LL_EXTI_LINE_6
 827:C:/Users/nace/OneDrive/Desktop/STM32/Projects_nace/NUCLEO_LL_Project_LCD/STM32_template_proj/Drivers/STM32F1xx_HAL_Driver/Inc\stm32f1xx_ll_exti.h ****   *         @arg @ref LL_EXTI_LINE_7
 828:C:/Users/nace/OneDrive/Desktop/STM32/Projects_nace/NUCLEO_LL_Project_LCD/STM32_template_proj/Drivers/STM32F1xx_HAL_Driver/Inc\stm32f1xx_ll_exti.h ****   *         @arg @ref LL_EXTI_LINE_8
 829:C:/Users/nace/OneDrive/Desktop/STM32/Projects_nace/NUCLEO_LL_Project_LCD/STM32_template_proj/Drivers/STM32F1xx_HAL_Driver/Inc\stm32f1xx_ll_exti.h ****   *         @arg @ref LL_EXTI_LINE_9
 830:C:/Users/nace/OneDrive/Desktop/STM32/Projects_nace/NUCLEO_LL_Project_LCD/STM32_template_proj/Drivers/STM32F1xx_HAL_Driver/Inc\stm32f1xx_ll_exti.h ****   *         @arg @ref LL_EXTI_LINE_10
 831:C:/Users/nace/OneDrive/Desktop/STM32/Projects_nace/NUCLEO_LL_Project_LCD/STM32_template_proj/Drivers/STM32F1xx_HAL_Driver/Inc\stm32f1xx_ll_exti.h ****   *         @arg @ref LL_EXTI_LINE_11
 832:C:/Users/nace/OneDrive/Desktop/STM32/Projects_nace/NUCLEO_LL_Project_LCD/STM32_template_proj/Drivers/STM32F1xx_HAL_Driver/Inc\stm32f1xx_ll_exti.h ****   *         @arg @ref LL_EXTI_LINE_12
 833:C:/Users/nace/OneDrive/Desktop/STM32/Projects_nace/NUCLEO_LL_Project_LCD/STM32_template_proj/Drivers/STM32F1xx_HAL_Driver/Inc\stm32f1xx_ll_exti.h ****   *         @arg @ref LL_EXTI_LINE_13
 834:C:/Users/nace/OneDrive/Desktop/STM32/Projects_nace/NUCLEO_LL_Project_LCD/STM32_template_proj/Drivers/STM32F1xx_HAL_Driver/Inc\stm32f1xx_ll_exti.h ****   *         @arg @ref LL_EXTI_LINE_14
 835:C:/Users/nace/OneDrive/Desktop/STM32/Projects_nace/NUCLEO_LL_Project_LCD/STM32_template_proj/Drivers/STM32F1xx_HAL_Driver/Inc\stm32f1xx_ll_exti.h ****   *         @arg @ref LL_EXTI_LINE_15
 836:C:/Users/nace/OneDrive/Desktop/STM32/Projects_nace/NUCLEO_LL_Project_LCD/STM32_template_proj/Drivers/STM32F1xx_HAL_Driver/Inc\stm32f1xx_ll_exti.h ****   *         @arg @ref LL_EXTI_LINE_16
 837:C:/Users/nace/OneDrive/Desktop/STM32/Projects_nace/NUCLEO_LL_Project_LCD/STM32_template_proj/Drivers/STM32F1xx_HAL_Driver/Inc\stm32f1xx_ll_exti.h ****   *         @arg @ref LL_EXTI_LINE_18
 838:C:/Users/nace/OneDrive/Desktop/STM32/Projects_nace/NUCLEO_LL_Project_LCD/STM32_template_proj/Drivers/STM32F1xx_HAL_Driver/Inc\stm32f1xx_ll_exti.h ****   *         @arg @ref LL_EXTI_LINE_19
 839:C:/Users/nace/OneDrive/Desktop/STM32/Projects_nace/NUCLEO_LL_Project_LCD/STM32_template_proj/Drivers/STM32F1xx_HAL_Driver/Inc\stm32f1xx_ll_exti.h ****   * @note   Please check each device line mapping for EXTI Line availability
 840:C:/Users/nace/OneDrive/Desktop/STM32/Projects_nace/NUCLEO_LL_Project_LCD/STM32_template_proj/Drivers/STM32F1xx_HAL_Driver/Inc\stm32f1xx_ll_exti.h ****   * @retval None
 841:C:/Users/nace/OneDrive/Desktop/STM32/Projects_nace/NUCLEO_LL_Project_LCD/STM32_template_proj/Drivers/STM32F1xx_HAL_Driver/Inc\stm32f1xx_ll_exti.h ****   */
 842:C:/Users/nace/OneDrive/Desktop/STM32/Projects_nace/NUCLEO_LL_Project_LCD/STM32_template_proj/Drivers/STM32F1xx_HAL_Driver/Inc\stm32f1xx_ll_exti.h **** __STATIC_INLINE void LL_EXTI_ClearFlag_0_31(uint32_t ExtiLine)
 222              		.loc 2 842 22 view .LVU32
 223              	.LBB45:
 843:C:/Users/nace/OneDrive/Desktop/STM32/Projects_nace/NUCLEO_LL_Project_LCD/STM32_template_proj/Drivers/STM32F1xx_HAL_Driver/Inc\stm32f1xx_ll_exti.h **** {
 844:C:/Users/nace/OneDrive/Desktop/STM32/Projects_nace/NUCLEO_LL_Project_LCD/STM32_template_proj/Drivers/STM32F1xx_HAL_Driver/Inc\stm32f1xx_ll_exti.h ****   WRITE_REG(EXTI->PR, ExtiLine);
 224              		.loc 2 844 3 view .LVU33
 225 000a 024B     		ldr	r3, .L15
 226 000c 4FF40052 		mov	r2, #8192
 227 0010 5A61     		str	r2, [r3, #20]
 228              	.LVL3:
 229              	.L13:
 230              		.loc 2 844 3 is_stmt 0 view .LVU34
 231              	.LBE45:
 232              	.LBE44:
 159:C:/Users/nace/OneDrive/Desktop/STM32/Projects_nace/NUCLEO_LL_Project_LCD/STM32_template_proj/Core/Src\stm32f1xx_it.c ****     /* USER CODE BEGIN LL_EXTI_LINE_13 */
 160:C:/Users/nace/OneDrive/Desktop/STM32/Projects_nace/NUCLEO_LL_Project_LCD/STM32_template_proj/Core/Src\stm32f1xx_it.c **** 
 161:C:/Users/nace/OneDrive/Desktop/STM32/Projects_nace/NUCLEO_LL_Project_LCD/STM32_template_proj/Core/Src\stm32f1xx_it.c ****     /* USER CODE END LL_EXTI_LINE_13 */
 162:C:/Users/nace/OneDrive/Desktop/STM32/Projects_nace/NUCLEO_LL_Project_LCD/STM32_template_proj/Core/Src\stm32f1xx_it.c ****   }
 163:C:/Users/nace/OneDrive/Desktop/STM32/Projects_nace/NUCLEO_LL_Project_LCD/STM32_template_proj/Core/Src\stm32f1xx_it.c ****   /* USER CODE BEGIN EXTI15_10_IRQn 1 */
 164:C:/Users/nace/OneDrive/Desktop/STM32/Projects_nace/NUCLEO_LL_Project_LCD/STM32_template_proj/Core/Src\stm32f1xx_it.c **** 
 165:C:/Users/nace/OneDrive/Desktop/STM32/Projects_nace/NUCLEO_LL_Project_LCD/STM32_template_proj/Core/Src\stm32f1xx_it.c ****   /* USER CODE END EXTI15_10_IRQn 1 */
 166:C:/Users/nace/OneDrive/Desktop/STM32/Projects_nace/NUCLEO_LL_Project_LCD/STM32_template_proj/Core/Src\stm32f1xx_it.c **** }
 233              		.loc 1 166 1 view .LVU35
 234 0012 7047     		bx	lr
 235              	.L16:
 236              		.align	2
 237              	.L15:
 238 0014 00040140 		.word	1073808384
 239              		.cfi_endproc
 240              	.LFE713:
 242              		.section	.text.TIM1_UP_IRQHandler,"ax",%progbits
 243              		.align	1
 244              		.global	TIM1_UP_IRQHandler
 245              		.syntax unified
 246              		.thumb
 247              		.thumb_func
 249              	TIM1_UP_IRQHandler:
 250              	.LFB714:
 167:C:/Users/nace/OneDrive/Desktop/STM32/Projects_nace/NUCLEO_LL_Project_LCD/STM32_template_proj/Core/Src\stm32f1xx_it.c **** 
 168:C:/Users/nace/OneDrive/Desktop/STM32/Projects_nace/NUCLEO_LL_Project_LCD/STM32_template_proj/Core/Src\stm32f1xx_it.c **** void TIM1_UP_IRQHandler(void)
 169:C:/Users/nace/OneDrive/Desktop/STM32/Projects_nace/NUCLEO_LL_Project_LCD/STM32_template_proj/Core/Src\stm32f1xx_it.c **** {
 251              		.loc 1 169 1 is_stmt 1 view -0
 252              		.cfi_startproc
 253              		@ args = 0, pretend = 0, frame = 0
 254              		@ frame_needed = 0, uses_anonymous_args = 0
 255              		@ link register save eliminated.
 170:C:/Users/nace/OneDrive/Desktop/STM32/Projects_nace/NUCLEO_LL_Project_LCD/STM32_template_proj/Core/Src\stm32f1xx_it.c ****   if (LL_TIM_IsActiveFlag_UPDATE(TIM1))
 256              		.loc 1 170 3 view .LVU37
 257              	.LVL4:
 258              	.LBB46:
 259              	.LBI46:
 260              		.file 3 "C:/Users/nace/OneDrive/Desktop/STM32/Projects_nace/NUCLEO_LL_Project_LCD/STM32_template_p
   1:C:/Users/nace/OneDrive/Desktop/STM32/Projects_nace/NUCLEO_LL_Project_LCD/STM32_template_proj/Drivers/STM32F1xx_HAL_Driver/Inc\stm32f1xx_ll_tim.h **** /**
   2:C:/Users/nace/OneDrive/Desktop/STM32/Projects_nace/NUCLEO_LL_Project_LCD/STM32_template_proj/Drivers/STM32F1xx_HAL_Driver/Inc\stm32f1xx_ll_tim.h ****   ******************************************************************************
   3:C:/Users/nace/OneDrive/Desktop/STM32/Projects_nace/NUCLEO_LL_Project_LCD/STM32_template_proj/Drivers/STM32F1xx_HAL_Driver/Inc\stm32f1xx_ll_tim.h ****   * @file    stm32f1xx_ll_tim.h
   4:C:/Users/nace/OneDrive/Desktop/STM32/Projects_nace/NUCLEO_LL_Project_LCD/STM32_template_proj/Drivers/STM32F1xx_HAL_Driver/Inc\stm32f1xx_ll_tim.h ****   * @author  MCD Application Team
   5:C:/Users/nace/OneDrive/Desktop/STM32/Projects_nace/NUCLEO_LL_Project_LCD/STM32_template_proj/Drivers/STM32F1xx_HAL_Driver/Inc\stm32f1xx_ll_tim.h ****   * @brief   Header file of TIM LL module.
   6:C:/Users/nace/OneDrive/Desktop/STM32/Projects_nace/NUCLEO_LL_Project_LCD/STM32_template_proj/Drivers/STM32F1xx_HAL_Driver/Inc\stm32f1xx_ll_tim.h ****   ******************************************************************************
   7:C:/Users/nace/OneDrive/Desktop/STM32/Projects_nace/NUCLEO_LL_Project_LCD/STM32_template_proj/Drivers/STM32F1xx_HAL_Driver/Inc\stm32f1xx_ll_tim.h ****   * @attention
   8:C:/Users/nace/OneDrive/Desktop/STM32/Projects_nace/NUCLEO_LL_Project_LCD/STM32_template_proj/Drivers/STM32F1xx_HAL_Driver/Inc\stm32f1xx_ll_tim.h ****   *
   9:C:/Users/nace/OneDrive/Desktop/STM32/Projects_nace/NUCLEO_LL_Project_LCD/STM32_template_proj/Drivers/STM32F1xx_HAL_Driver/Inc\stm32f1xx_ll_tim.h ****   * Copyright (c) 2016 STMicroelectronics.
  10:C:/Users/nace/OneDrive/Desktop/STM32/Projects_nace/NUCLEO_LL_Project_LCD/STM32_template_proj/Drivers/STM32F1xx_HAL_Driver/Inc\stm32f1xx_ll_tim.h ****   * All rights reserved.
  11:C:/Users/nace/OneDrive/Desktop/STM32/Projects_nace/NUCLEO_LL_Project_LCD/STM32_template_proj/Drivers/STM32F1xx_HAL_Driver/Inc\stm32f1xx_ll_tim.h ****   *
  12:C:/Users/nace/OneDrive/Desktop/STM32/Projects_nace/NUCLEO_LL_Project_LCD/STM32_template_proj/Drivers/STM32F1xx_HAL_Driver/Inc\stm32f1xx_ll_tim.h ****   * This software is licensed under terms that can be found in the LICENSE file
  13:C:/Users/nace/OneDrive/Desktop/STM32/Projects_nace/NUCLEO_LL_Project_LCD/STM32_template_proj/Drivers/STM32F1xx_HAL_Driver/Inc\stm32f1xx_ll_tim.h ****   * in the root directory of this software component.
  14:C:/Users/nace/OneDrive/Desktop/STM32/Projects_nace/NUCLEO_LL_Project_LCD/STM32_template_proj/Drivers/STM32F1xx_HAL_Driver/Inc\stm32f1xx_ll_tim.h ****   * If no LICENSE file comes with this software, it is provided AS-IS.
  15:C:/Users/nace/OneDrive/Desktop/STM32/Projects_nace/NUCLEO_LL_Project_LCD/STM32_template_proj/Drivers/STM32F1xx_HAL_Driver/Inc\stm32f1xx_ll_tim.h ****   *
  16:C:/Users/nace/OneDrive/Desktop/STM32/Projects_nace/NUCLEO_LL_Project_LCD/STM32_template_proj/Drivers/STM32F1xx_HAL_Driver/Inc\stm32f1xx_ll_tim.h ****   ******************************************************************************
  17:C:/Users/nace/OneDrive/Desktop/STM32/Projects_nace/NUCLEO_LL_Project_LCD/STM32_template_proj/Drivers/STM32F1xx_HAL_Driver/Inc\stm32f1xx_ll_tim.h ****   */
  18:C:/Users/nace/OneDrive/Desktop/STM32/Projects_nace/NUCLEO_LL_Project_LCD/STM32_template_proj/Drivers/STM32F1xx_HAL_Driver/Inc\stm32f1xx_ll_tim.h **** 
  19:C:/Users/nace/OneDrive/Desktop/STM32/Projects_nace/NUCLEO_LL_Project_LCD/STM32_template_proj/Drivers/STM32F1xx_HAL_Driver/Inc\stm32f1xx_ll_tim.h **** /* Define to prevent recursive inclusion -------------------------------------*/
  20:C:/Users/nace/OneDrive/Desktop/STM32/Projects_nace/NUCLEO_LL_Project_LCD/STM32_template_proj/Drivers/STM32F1xx_HAL_Driver/Inc\stm32f1xx_ll_tim.h **** #ifndef __STM32F1xx_LL_TIM_H
  21:C:/Users/nace/OneDrive/Desktop/STM32/Projects_nace/NUCLEO_LL_Project_LCD/STM32_template_proj/Drivers/STM32F1xx_HAL_Driver/Inc\stm32f1xx_ll_tim.h **** #define __STM32F1xx_LL_TIM_H
  22:C:/Users/nace/OneDrive/Desktop/STM32/Projects_nace/NUCLEO_LL_Project_LCD/STM32_template_proj/Drivers/STM32F1xx_HAL_Driver/Inc\stm32f1xx_ll_tim.h **** 
  23:C:/Users/nace/OneDrive/Desktop/STM32/Projects_nace/NUCLEO_LL_Project_LCD/STM32_template_proj/Drivers/STM32F1xx_HAL_Driver/Inc\stm32f1xx_ll_tim.h **** #ifdef __cplusplus
  24:C:/Users/nace/OneDrive/Desktop/STM32/Projects_nace/NUCLEO_LL_Project_LCD/STM32_template_proj/Drivers/STM32F1xx_HAL_Driver/Inc\stm32f1xx_ll_tim.h **** extern "C" {
  25:C:/Users/nace/OneDrive/Desktop/STM32/Projects_nace/NUCLEO_LL_Project_LCD/STM32_template_proj/Drivers/STM32F1xx_HAL_Driver/Inc\stm32f1xx_ll_tim.h **** #endif
  26:C:/Users/nace/OneDrive/Desktop/STM32/Projects_nace/NUCLEO_LL_Project_LCD/STM32_template_proj/Drivers/STM32F1xx_HAL_Driver/Inc\stm32f1xx_ll_tim.h **** 
  27:C:/Users/nace/OneDrive/Desktop/STM32/Projects_nace/NUCLEO_LL_Project_LCD/STM32_template_proj/Drivers/STM32F1xx_HAL_Driver/Inc\stm32f1xx_ll_tim.h **** /* Includes ------------------------------------------------------------------*/
  28:C:/Users/nace/OneDrive/Desktop/STM32/Projects_nace/NUCLEO_LL_Project_LCD/STM32_template_proj/Drivers/STM32F1xx_HAL_Driver/Inc\stm32f1xx_ll_tim.h **** #include "stm32f1xx.h"
  29:C:/Users/nace/OneDrive/Desktop/STM32/Projects_nace/NUCLEO_LL_Project_LCD/STM32_template_proj/Drivers/STM32F1xx_HAL_Driver/Inc\stm32f1xx_ll_tim.h **** 
  30:C:/Users/nace/OneDrive/Desktop/STM32/Projects_nace/NUCLEO_LL_Project_LCD/STM32_template_proj/Drivers/STM32F1xx_HAL_Driver/Inc\stm32f1xx_ll_tim.h **** /** @addtogroup STM32F1xx_LL_Driver
  31:C:/Users/nace/OneDrive/Desktop/STM32/Projects_nace/NUCLEO_LL_Project_LCD/STM32_template_proj/Drivers/STM32F1xx_HAL_Driver/Inc\stm32f1xx_ll_tim.h ****   * @{
  32:C:/Users/nace/OneDrive/Desktop/STM32/Projects_nace/NUCLEO_LL_Project_LCD/STM32_template_proj/Drivers/STM32F1xx_HAL_Driver/Inc\stm32f1xx_ll_tim.h ****   */
  33:C:/Users/nace/OneDrive/Desktop/STM32/Projects_nace/NUCLEO_LL_Project_LCD/STM32_template_proj/Drivers/STM32F1xx_HAL_Driver/Inc\stm32f1xx_ll_tim.h **** 
  34:C:/Users/nace/OneDrive/Desktop/STM32/Projects_nace/NUCLEO_LL_Project_LCD/STM32_template_proj/Drivers/STM32F1xx_HAL_Driver/Inc\stm32f1xx_ll_tim.h **** #if defined (TIM1) || defined (TIM2) || defined (TIM3) || defined (TIM4) || defined (TIM5) || defin
  35:C:/Users/nace/OneDrive/Desktop/STM32/Projects_nace/NUCLEO_LL_Project_LCD/STM32_template_proj/Drivers/STM32F1xx_HAL_Driver/Inc\stm32f1xx_ll_tim.h **** 
  36:C:/Users/nace/OneDrive/Desktop/STM32/Projects_nace/NUCLEO_LL_Project_LCD/STM32_template_proj/Drivers/STM32F1xx_HAL_Driver/Inc\stm32f1xx_ll_tim.h **** /** @defgroup TIM_LL TIM
  37:C:/Users/nace/OneDrive/Desktop/STM32/Projects_nace/NUCLEO_LL_Project_LCD/STM32_template_proj/Drivers/STM32F1xx_HAL_Driver/Inc\stm32f1xx_ll_tim.h ****   * @{
  38:C:/Users/nace/OneDrive/Desktop/STM32/Projects_nace/NUCLEO_LL_Project_LCD/STM32_template_proj/Drivers/STM32F1xx_HAL_Driver/Inc\stm32f1xx_ll_tim.h ****   */
  39:C:/Users/nace/OneDrive/Desktop/STM32/Projects_nace/NUCLEO_LL_Project_LCD/STM32_template_proj/Drivers/STM32F1xx_HAL_Driver/Inc\stm32f1xx_ll_tim.h **** 
  40:C:/Users/nace/OneDrive/Desktop/STM32/Projects_nace/NUCLEO_LL_Project_LCD/STM32_template_proj/Drivers/STM32F1xx_HAL_Driver/Inc\stm32f1xx_ll_tim.h **** /* Private types -------------------------------------------------------------*/
  41:C:/Users/nace/OneDrive/Desktop/STM32/Projects_nace/NUCLEO_LL_Project_LCD/STM32_template_proj/Drivers/STM32F1xx_HAL_Driver/Inc\stm32f1xx_ll_tim.h **** /* Private variables ---------------------------------------------------------*/
  42:C:/Users/nace/OneDrive/Desktop/STM32/Projects_nace/NUCLEO_LL_Project_LCD/STM32_template_proj/Drivers/STM32F1xx_HAL_Driver/Inc\stm32f1xx_ll_tim.h **** /** @defgroup TIM_LL_Private_Variables TIM Private Variables
  43:C:/Users/nace/OneDrive/Desktop/STM32/Projects_nace/NUCLEO_LL_Project_LCD/STM32_template_proj/Drivers/STM32F1xx_HAL_Driver/Inc\stm32f1xx_ll_tim.h ****   * @{
  44:C:/Users/nace/OneDrive/Desktop/STM32/Projects_nace/NUCLEO_LL_Project_LCD/STM32_template_proj/Drivers/STM32F1xx_HAL_Driver/Inc\stm32f1xx_ll_tim.h ****   */
  45:C:/Users/nace/OneDrive/Desktop/STM32/Projects_nace/NUCLEO_LL_Project_LCD/STM32_template_proj/Drivers/STM32F1xx_HAL_Driver/Inc\stm32f1xx_ll_tim.h **** static const uint8_t OFFSET_TAB_CCMRx[] =
  46:C:/Users/nace/OneDrive/Desktop/STM32/Projects_nace/NUCLEO_LL_Project_LCD/STM32_template_proj/Drivers/STM32F1xx_HAL_Driver/Inc\stm32f1xx_ll_tim.h **** {
  47:C:/Users/nace/OneDrive/Desktop/STM32/Projects_nace/NUCLEO_LL_Project_LCD/STM32_template_proj/Drivers/STM32F1xx_HAL_Driver/Inc\stm32f1xx_ll_tim.h ****   0x00U,   /* 0: TIMx_CH1  */
  48:C:/Users/nace/OneDrive/Desktop/STM32/Projects_nace/NUCLEO_LL_Project_LCD/STM32_template_proj/Drivers/STM32F1xx_HAL_Driver/Inc\stm32f1xx_ll_tim.h ****   0x00U,   /* 1: TIMx_CH1N */
  49:C:/Users/nace/OneDrive/Desktop/STM32/Projects_nace/NUCLEO_LL_Project_LCD/STM32_template_proj/Drivers/STM32F1xx_HAL_Driver/Inc\stm32f1xx_ll_tim.h ****   0x00U,   /* 2: TIMx_CH2  */
  50:C:/Users/nace/OneDrive/Desktop/STM32/Projects_nace/NUCLEO_LL_Project_LCD/STM32_template_proj/Drivers/STM32F1xx_HAL_Driver/Inc\stm32f1xx_ll_tim.h ****   0x00U,   /* 3: TIMx_CH2N */
  51:C:/Users/nace/OneDrive/Desktop/STM32/Projects_nace/NUCLEO_LL_Project_LCD/STM32_template_proj/Drivers/STM32F1xx_HAL_Driver/Inc\stm32f1xx_ll_tim.h ****   0x04U,   /* 4: TIMx_CH3  */
  52:C:/Users/nace/OneDrive/Desktop/STM32/Projects_nace/NUCLEO_LL_Project_LCD/STM32_template_proj/Drivers/STM32F1xx_HAL_Driver/Inc\stm32f1xx_ll_tim.h ****   0x04U,   /* 5: TIMx_CH3N */
  53:C:/Users/nace/OneDrive/Desktop/STM32/Projects_nace/NUCLEO_LL_Project_LCD/STM32_template_proj/Drivers/STM32F1xx_HAL_Driver/Inc\stm32f1xx_ll_tim.h ****   0x04U    /* 6: TIMx_CH4  */
  54:C:/Users/nace/OneDrive/Desktop/STM32/Projects_nace/NUCLEO_LL_Project_LCD/STM32_template_proj/Drivers/STM32F1xx_HAL_Driver/Inc\stm32f1xx_ll_tim.h **** };
  55:C:/Users/nace/OneDrive/Desktop/STM32/Projects_nace/NUCLEO_LL_Project_LCD/STM32_template_proj/Drivers/STM32F1xx_HAL_Driver/Inc\stm32f1xx_ll_tim.h **** 
  56:C:/Users/nace/OneDrive/Desktop/STM32/Projects_nace/NUCLEO_LL_Project_LCD/STM32_template_proj/Drivers/STM32F1xx_HAL_Driver/Inc\stm32f1xx_ll_tim.h **** static const uint8_t SHIFT_TAB_OCxx[] =
  57:C:/Users/nace/OneDrive/Desktop/STM32/Projects_nace/NUCLEO_LL_Project_LCD/STM32_template_proj/Drivers/STM32F1xx_HAL_Driver/Inc\stm32f1xx_ll_tim.h **** {
  58:C:/Users/nace/OneDrive/Desktop/STM32/Projects_nace/NUCLEO_LL_Project_LCD/STM32_template_proj/Drivers/STM32F1xx_HAL_Driver/Inc\stm32f1xx_ll_tim.h ****   0U,            /* 0: OC1M, OC1FE, OC1PE */
  59:C:/Users/nace/OneDrive/Desktop/STM32/Projects_nace/NUCLEO_LL_Project_LCD/STM32_template_proj/Drivers/STM32F1xx_HAL_Driver/Inc\stm32f1xx_ll_tim.h ****   0U,            /* 1: - NA */
  60:C:/Users/nace/OneDrive/Desktop/STM32/Projects_nace/NUCLEO_LL_Project_LCD/STM32_template_proj/Drivers/STM32F1xx_HAL_Driver/Inc\stm32f1xx_ll_tim.h ****   8U,            /* 2: OC2M, OC2FE, OC2PE */
  61:C:/Users/nace/OneDrive/Desktop/STM32/Projects_nace/NUCLEO_LL_Project_LCD/STM32_template_proj/Drivers/STM32F1xx_HAL_Driver/Inc\stm32f1xx_ll_tim.h ****   0U,            /* 3: - NA */
  62:C:/Users/nace/OneDrive/Desktop/STM32/Projects_nace/NUCLEO_LL_Project_LCD/STM32_template_proj/Drivers/STM32F1xx_HAL_Driver/Inc\stm32f1xx_ll_tim.h ****   0U,            /* 4: OC3M, OC3FE, OC3PE */
  63:C:/Users/nace/OneDrive/Desktop/STM32/Projects_nace/NUCLEO_LL_Project_LCD/STM32_template_proj/Drivers/STM32F1xx_HAL_Driver/Inc\stm32f1xx_ll_tim.h ****   0U,            /* 5: - NA */
  64:C:/Users/nace/OneDrive/Desktop/STM32/Projects_nace/NUCLEO_LL_Project_LCD/STM32_template_proj/Drivers/STM32F1xx_HAL_Driver/Inc\stm32f1xx_ll_tim.h ****   8U             /* 6: OC4M, OC4FE, OC4PE */
  65:C:/Users/nace/OneDrive/Desktop/STM32/Projects_nace/NUCLEO_LL_Project_LCD/STM32_template_proj/Drivers/STM32F1xx_HAL_Driver/Inc\stm32f1xx_ll_tim.h **** };
  66:C:/Users/nace/OneDrive/Desktop/STM32/Projects_nace/NUCLEO_LL_Project_LCD/STM32_template_proj/Drivers/STM32F1xx_HAL_Driver/Inc\stm32f1xx_ll_tim.h **** 
  67:C:/Users/nace/OneDrive/Desktop/STM32/Projects_nace/NUCLEO_LL_Project_LCD/STM32_template_proj/Drivers/STM32F1xx_HAL_Driver/Inc\stm32f1xx_ll_tim.h **** static const uint8_t SHIFT_TAB_ICxx[] =
  68:C:/Users/nace/OneDrive/Desktop/STM32/Projects_nace/NUCLEO_LL_Project_LCD/STM32_template_proj/Drivers/STM32F1xx_HAL_Driver/Inc\stm32f1xx_ll_tim.h **** {
  69:C:/Users/nace/OneDrive/Desktop/STM32/Projects_nace/NUCLEO_LL_Project_LCD/STM32_template_proj/Drivers/STM32F1xx_HAL_Driver/Inc\stm32f1xx_ll_tim.h ****   0U,            /* 0: CC1S, IC1PSC, IC1F */
  70:C:/Users/nace/OneDrive/Desktop/STM32/Projects_nace/NUCLEO_LL_Project_LCD/STM32_template_proj/Drivers/STM32F1xx_HAL_Driver/Inc\stm32f1xx_ll_tim.h ****   0U,            /* 1: - NA */
  71:C:/Users/nace/OneDrive/Desktop/STM32/Projects_nace/NUCLEO_LL_Project_LCD/STM32_template_proj/Drivers/STM32F1xx_HAL_Driver/Inc\stm32f1xx_ll_tim.h ****   8U,            /* 2: CC2S, IC2PSC, IC2F */
  72:C:/Users/nace/OneDrive/Desktop/STM32/Projects_nace/NUCLEO_LL_Project_LCD/STM32_template_proj/Drivers/STM32F1xx_HAL_Driver/Inc\stm32f1xx_ll_tim.h ****   0U,            /* 3: - NA */
  73:C:/Users/nace/OneDrive/Desktop/STM32/Projects_nace/NUCLEO_LL_Project_LCD/STM32_template_proj/Drivers/STM32F1xx_HAL_Driver/Inc\stm32f1xx_ll_tim.h ****   0U,            /* 4: CC3S, IC3PSC, IC3F */
  74:C:/Users/nace/OneDrive/Desktop/STM32/Projects_nace/NUCLEO_LL_Project_LCD/STM32_template_proj/Drivers/STM32F1xx_HAL_Driver/Inc\stm32f1xx_ll_tim.h ****   0U,            /* 5: - NA */
  75:C:/Users/nace/OneDrive/Desktop/STM32/Projects_nace/NUCLEO_LL_Project_LCD/STM32_template_proj/Drivers/STM32F1xx_HAL_Driver/Inc\stm32f1xx_ll_tim.h ****   8U             /* 6: CC4S, IC4PSC, IC4F */
  76:C:/Users/nace/OneDrive/Desktop/STM32/Projects_nace/NUCLEO_LL_Project_LCD/STM32_template_proj/Drivers/STM32F1xx_HAL_Driver/Inc\stm32f1xx_ll_tim.h **** };
  77:C:/Users/nace/OneDrive/Desktop/STM32/Projects_nace/NUCLEO_LL_Project_LCD/STM32_template_proj/Drivers/STM32F1xx_HAL_Driver/Inc\stm32f1xx_ll_tim.h **** 
  78:C:/Users/nace/OneDrive/Desktop/STM32/Projects_nace/NUCLEO_LL_Project_LCD/STM32_template_proj/Drivers/STM32F1xx_HAL_Driver/Inc\stm32f1xx_ll_tim.h **** static const uint8_t SHIFT_TAB_CCxP[] =
  79:C:/Users/nace/OneDrive/Desktop/STM32/Projects_nace/NUCLEO_LL_Project_LCD/STM32_template_proj/Drivers/STM32F1xx_HAL_Driver/Inc\stm32f1xx_ll_tim.h **** {
  80:C:/Users/nace/OneDrive/Desktop/STM32/Projects_nace/NUCLEO_LL_Project_LCD/STM32_template_proj/Drivers/STM32F1xx_HAL_Driver/Inc\stm32f1xx_ll_tim.h ****   0U,            /* 0: CC1P */
  81:C:/Users/nace/OneDrive/Desktop/STM32/Projects_nace/NUCLEO_LL_Project_LCD/STM32_template_proj/Drivers/STM32F1xx_HAL_Driver/Inc\stm32f1xx_ll_tim.h ****   2U,            /* 1: CC1NP */
  82:C:/Users/nace/OneDrive/Desktop/STM32/Projects_nace/NUCLEO_LL_Project_LCD/STM32_template_proj/Drivers/STM32F1xx_HAL_Driver/Inc\stm32f1xx_ll_tim.h ****   4U,            /* 2: CC2P */
  83:C:/Users/nace/OneDrive/Desktop/STM32/Projects_nace/NUCLEO_LL_Project_LCD/STM32_template_proj/Drivers/STM32F1xx_HAL_Driver/Inc\stm32f1xx_ll_tim.h ****   6U,            /* 3: CC2NP */
  84:C:/Users/nace/OneDrive/Desktop/STM32/Projects_nace/NUCLEO_LL_Project_LCD/STM32_template_proj/Drivers/STM32F1xx_HAL_Driver/Inc\stm32f1xx_ll_tim.h ****   8U,            /* 4: CC3P */
  85:C:/Users/nace/OneDrive/Desktop/STM32/Projects_nace/NUCLEO_LL_Project_LCD/STM32_template_proj/Drivers/STM32F1xx_HAL_Driver/Inc\stm32f1xx_ll_tim.h ****   10U,           /* 5: CC3NP */
  86:C:/Users/nace/OneDrive/Desktop/STM32/Projects_nace/NUCLEO_LL_Project_LCD/STM32_template_proj/Drivers/STM32F1xx_HAL_Driver/Inc\stm32f1xx_ll_tim.h ****   12U            /* 6: CC4P */
  87:C:/Users/nace/OneDrive/Desktop/STM32/Projects_nace/NUCLEO_LL_Project_LCD/STM32_template_proj/Drivers/STM32F1xx_HAL_Driver/Inc\stm32f1xx_ll_tim.h **** };
  88:C:/Users/nace/OneDrive/Desktop/STM32/Projects_nace/NUCLEO_LL_Project_LCD/STM32_template_proj/Drivers/STM32F1xx_HAL_Driver/Inc\stm32f1xx_ll_tim.h **** 
  89:C:/Users/nace/OneDrive/Desktop/STM32/Projects_nace/NUCLEO_LL_Project_LCD/STM32_template_proj/Drivers/STM32F1xx_HAL_Driver/Inc\stm32f1xx_ll_tim.h **** static const uint8_t SHIFT_TAB_OISx[] =
  90:C:/Users/nace/OneDrive/Desktop/STM32/Projects_nace/NUCLEO_LL_Project_LCD/STM32_template_proj/Drivers/STM32F1xx_HAL_Driver/Inc\stm32f1xx_ll_tim.h **** {
  91:C:/Users/nace/OneDrive/Desktop/STM32/Projects_nace/NUCLEO_LL_Project_LCD/STM32_template_proj/Drivers/STM32F1xx_HAL_Driver/Inc\stm32f1xx_ll_tim.h ****   0U,            /* 0: OIS1 */
  92:C:/Users/nace/OneDrive/Desktop/STM32/Projects_nace/NUCLEO_LL_Project_LCD/STM32_template_proj/Drivers/STM32F1xx_HAL_Driver/Inc\stm32f1xx_ll_tim.h ****   1U,            /* 1: OIS1N */
  93:C:/Users/nace/OneDrive/Desktop/STM32/Projects_nace/NUCLEO_LL_Project_LCD/STM32_template_proj/Drivers/STM32F1xx_HAL_Driver/Inc\stm32f1xx_ll_tim.h ****   2U,            /* 2: OIS2 */
  94:C:/Users/nace/OneDrive/Desktop/STM32/Projects_nace/NUCLEO_LL_Project_LCD/STM32_template_proj/Drivers/STM32F1xx_HAL_Driver/Inc\stm32f1xx_ll_tim.h ****   3U,            /* 3: OIS2N */
  95:C:/Users/nace/OneDrive/Desktop/STM32/Projects_nace/NUCLEO_LL_Project_LCD/STM32_template_proj/Drivers/STM32F1xx_HAL_Driver/Inc\stm32f1xx_ll_tim.h ****   4U,            /* 4: OIS3 */
  96:C:/Users/nace/OneDrive/Desktop/STM32/Projects_nace/NUCLEO_LL_Project_LCD/STM32_template_proj/Drivers/STM32F1xx_HAL_Driver/Inc\stm32f1xx_ll_tim.h ****   5U,            /* 5: OIS3N */
  97:C:/Users/nace/OneDrive/Desktop/STM32/Projects_nace/NUCLEO_LL_Project_LCD/STM32_template_proj/Drivers/STM32F1xx_HAL_Driver/Inc\stm32f1xx_ll_tim.h ****   6U             /* 6: OIS4 */
  98:C:/Users/nace/OneDrive/Desktop/STM32/Projects_nace/NUCLEO_LL_Project_LCD/STM32_template_proj/Drivers/STM32F1xx_HAL_Driver/Inc\stm32f1xx_ll_tim.h **** };
  99:C:/Users/nace/OneDrive/Desktop/STM32/Projects_nace/NUCLEO_LL_Project_LCD/STM32_template_proj/Drivers/STM32F1xx_HAL_Driver/Inc\stm32f1xx_ll_tim.h **** /**
 100:C:/Users/nace/OneDrive/Desktop/STM32/Projects_nace/NUCLEO_LL_Project_LCD/STM32_template_proj/Drivers/STM32F1xx_HAL_Driver/Inc\stm32f1xx_ll_tim.h ****   * @}
 101:C:/Users/nace/OneDrive/Desktop/STM32/Projects_nace/NUCLEO_LL_Project_LCD/STM32_template_proj/Drivers/STM32F1xx_HAL_Driver/Inc\stm32f1xx_ll_tim.h ****   */
 102:C:/Users/nace/OneDrive/Desktop/STM32/Projects_nace/NUCLEO_LL_Project_LCD/STM32_template_proj/Drivers/STM32F1xx_HAL_Driver/Inc\stm32f1xx_ll_tim.h **** 
 103:C:/Users/nace/OneDrive/Desktop/STM32/Projects_nace/NUCLEO_LL_Project_LCD/STM32_template_proj/Drivers/STM32F1xx_HAL_Driver/Inc\stm32f1xx_ll_tim.h **** /* Private constants ---------------------------------------------------------*/
 104:C:/Users/nace/OneDrive/Desktop/STM32/Projects_nace/NUCLEO_LL_Project_LCD/STM32_template_proj/Drivers/STM32F1xx_HAL_Driver/Inc\stm32f1xx_ll_tim.h **** /** @defgroup TIM_LL_Private_Constants TIM Private Constants
 105:C:/Users/nace/OneDrive/Desktop/STM32/Projects_nace/NUCLEO_LL_Project_LCD/STM32_template_proj/Drivers/STM32F1xx_HAL_Driver/Inc\stm32f1xx_ll_tim.h ****   * @{
 106:C:/Users/nace/OneDrive/Desktop/STM32/Projects_nace/NUCLEO_LL_Project_LCD/STM32_template_proj/Drivers/STM32F1xx_HAL_Driver/Inc\stm32f1xx_ll_tim.h ****   */
 107:C:/Users/nace/OneDrive/Desktop/STM32/Projects_nace/NUCLEO_LL_Project_LCD/STM32_template_proj/Drivers/STM32F1xx_HAL_Driver/Inc\stm32f1xx_ll_tim.h **** 
 108:C:/Users/nace/OneDrive/Desktop/STM32/Projects_nace/NUCLEO_LL_Project_LCD/STM32_template_proj/Drivers/STM32F1xx_HAL_Driver/Inc\stm32f1xx_ll_tim.h **** 
 109:C:/Users/nace/OneDrive/Desktop/STM32/Projects_nace/NUCLEO_LL_Project_LCD/STM32_template_proj/Drivers/STM32F1xx_HAL_Driver/Inc\stm32f1xx_ll_tim.h **** 
 110:C:/Users/nace/OneDrive/Desktop/STM32/Projects_nace/NUCLEO_LL_Project_LCD/STM32_template_proj/Drivers/STM32F1xx_HAL_Driver/Inc\stm32f1xx_ll_tim.h **** /* Mask used to set the TDG[x:0] of the DTG bits of the TIMx_BDTR register */
 111:C:/Users/nace/OneDrive/Desktop/STM32/Projects_nace/NUCLEO_LL_Project_LCD/STM32_template_proj/Drivers/STM32F1xx_HAL_Driver/Inc\stm32f1xx_ll_tim.h **** #define DT_DELAY_1 ((uint8_t)0x7F)
 112:C:/Users/nace/OneDrive/Desktop/STM32/Projects_nace/NUCLEO_LL_Project_LCD/STM32_template_proj/Drivers/STM32F1xx_HAL_Driver/Inc\stm32f1xx_ll_tim.h **** #define DT_DELAY_2 ((uint8_t)0x3F)
 113:C:/Users/nace/OneDrive/Desktop/STM32/Projects_nace/NUCLEO_LL_Project_LCD/STM32_template_proj/Drivers/STM32F1xx_HAL_Driver/Inc\stm32f1xx_ll_tim.h **** #define DT_DELAY_3 ((uint8_t)0x1F)
 114:C:/Users/nace/OneDrive/Desktop/STM32/Projects_nace/NUCLEO_LL_Project_LCD/STM32_template_proj/Drivers/STM32F1xx_HAL_Driver/Inc\stm32f1xx_ll_tim.h **** #define DT_DELAY_4 ((uint8_t)0x1F)
 115:C:/Users/nace/OneDrive/Desktop/STM32/Projects_nace/NUCLEO_LL_Project_LCD/STM32_template_proj/Drivers/STM32F1xx_HAL_Driver/Inc\stm32f1xx_ll_tim.h **** 
 116:C:/Users/nace/OneDrive/Desktop/STM32/Projects_nace/NUCLEO_LL_Project_LCD/STM32_template_proj/Drivers/STM32F1xx_HAL_Driver/Inc\stm32f1xx_ll_tim.h **** /* Mask used to set the DTG[7:5] bits of the DTG bits of the TIMx_BDTR register */
 117:C:/Users/nace/OneDrive/Desktop/STM32/Projects_nace/NUCLEO_LL_Project_LCD/STM32_template_proj/Drivers/STM32F1xx_HAL_Driver/Inc\stm32f1xx_ll_tim.h **** #define DT_RANGE_1 ((uint8_t)0x00)
 118:C:/Users/nace/OneDrive/Desktop/STM32/Projects_nace/NUCLEO_LL_Project_LCD/STM32_template_proj/Drivers/STM32F1xx_HAL_Driver/Inc\stm32f1xx_ll_tim.h **** #define DT_RANGE_2 ((uint8_t)0x80)
 119:C:/Users/nace/OneDrive/Desktop/STM32/Projects_nace/NUCLEO_LL_Project_LCD/STM32_template_proj/Drivers/STM32F1xx_HAL_Driver/Inc\stm32f1xx_ll_tim.h **** #define DT_RANGE_3 ((uint8_t)0xC0)
 120:C:/Users/nace/OneDrive/Desktop/STM32/Projects_nace/NUCLEO_LL_Project_LCD/STM32_template_proj/Drivers/STM32F1xx_HAL_Driver/Inc\stm32f1xx_ll_tim.h **** #define DT_RANGE_4 ((uint8_t)0xE0)
 121:C:/Users/nace/OneDrive/Desktop/STM32/Projects_nace/NUCLEO_LL_Project_LCD/STM32_template_proj/Drivers/STM32F1xx_HAL_Driver/Inc\stm32f1xx_ll_tim.h **** 
 122:C:/Users/nace/OneDrive/Desktop/STM32/Projects_nace/NUCLEO_LL_Project_LCD/STM32_template_proj/Drivers/STM32F1xx_HAL_Driver/Inc\stm32f1xx_ll_tim.h **** 
 123:C:/Users/nace/OneDrive/Desktop/STM32/Projects_nace/NUCLEO_LL_Project_LCD/STM32_template_proj/Drivers/STM32F1xx_HAL_Driver/Inc\stm32f1xx_ll_tim.h **** /**
 124:C:/Users/nace/OneDrive/Desktop/STM32/Projects_nace/NUCLEO_LL_Project_LCD/STM32_template_proj/Drivers/STM32F1xx_HAL_Driver/Inc\stm32f1xx_ll_tim.h ****   * @}
 125:C:/Users/nace/OneDrive/Desktop/STM32/Projects_nace/NUCLEO_LL_Project_LCD/STM32_template_proj/Drivers/STM32F1xx_HAL_Driver/Inc\stm32f1xx_ll_tim.h ****   */
 126:C:/Users/nace/OneDrive/Desktop/STM32/Projects_nace/NUCLEO_LL_Project_LCD/STM32_template_proj/Drivers/STM32F1xx_HAL_Driver/Inc\stm32f1xx_ll_tim.h **** 
 127:C:/Users/nace/OneDrive/Desktop/STM32/Projects_nace/NUCLEO_LL_Project_LCD/STM32_template_proj/Drivers/STM32F1xx_HAL_Driver/Inc\stm32f1xx_ll_tim.h **** /* Private macros ------------------------------------------------------------*/
 128:C:/Users/nace/OneDrive/Desktop/STM32/Projects_nace/NUCLEO_LL_Project_LCD/STM32_template_proj/Drivers/STM32F1xx_HAL_Driver/Inc\stm32f1xx_ll_tim.h **** /** @defgroup TIM_LL_Private_Macros TIM Private Macros
 129:C:/Users/nace/OneDrive/Desktop/STM32/Projects_nace/NUCLEO_LL_Project_LCD/STM32_template_proj/Drivers/STM32F1xx_HAL_Driver/Inc\stm32f1xx_ll_tim.h ****   * @{
 130:C:/Users/nace/OneDrive/Desktop/STM32/Projects_nace/NUCLEO_LL_Project_LCD/STM32_template_proj/Drivers/STM32F1xx_HAL_Driver/Inc\stm32f1xx_ll_tim.h ****   */
 131:C:/Users/nace/OneDrive/Desktop/STM32/Projects_nace/NUCLEO_LL_Project_LCD/STM32_template_proj/Drivers/STM32F1xx_HAL_Driver/Inc\stm32f1xx_ll_tim.h **** /** @brief  Convert channel id into channel index.
 132:C:/Users/nace/OneDrive/Desktop/STM32/Projects_nace/NUCLEO_LL_Project_LCD/STM32_template_proj/Drivers/STM32F1xx_HAL_Driver/Inc\stm32f1xx_ll_tim.h ****   * @param  __CHANNEL__ This parameter can be one of the following values:
 133:C:/Users/nace/OneDrive/Desktop/STM32/Projects_nace/NUCLEO_LL_Project_LCD/STM32_template_proj/Drivers/STM32F1xx_HAL_Driver/Inc\stm32f1xx_ll_tim.h ****   *         @arg @ref LL_TIM_CHANNEL_CH1
 134:C:/Users/nace/OneDrive/Desktop/STM32/Projects_nace/NUCLEO_LL_Project_LCD/STM32_template_proj/Drivers/STM32F1xx_HAL_Driver/Inc\stm32f1xx_ll_tim.h ****   *         @arg @ref LL_TIM_CHANNEL_CH1N
 135:C:/Users/nace/OneDrive/Desktop/STM32/Projects_nace/NUCLEO_LL_Project_LCD/STM32_template_proj/Drivers/STM32F1xx_HAL_Driver/Inc\stm32f1xx_ll_tim.h ****   *         @arg @ref LL_TIM_CHANNEL_CH2
 136:C:/Users/nace/OneDrive/Desktop/STM32/Projects_nace/NUCLEO_LL_Project_LCD/STM32_template_proj/Drivers/STM32F1xx_HAL_Driver/Inc\stm32f1xx_ll_tim.h ****   *         @arg @ref LL_TIM_CHANNEL_CH2N
 137:C:/Users/nace/OneDrive/Desktop/STM32/Projects_nace/NUCLEO_LL_Project_LCD/STM32_template_proj/Drivers/STM32F1xx_HAL_Driver/Inc\stm32f1xx_ll_tim.h ****   *         @arg @ref LL_TIM_CHANNEL_CH3
 138:C:/Users/nace/OneDrive/Desktop/STM32/Projects_nace/NUCLEO_LL_Project_LCD/STM32_template_proj/Drivers/STM32F1xx_HAL_Driver/Inc\stm32f1xx_ll_tim.h ****   *         @arg @ref LL_TIM_CHANNEL_CH3N
 139:C:/Users/nace/OneDrive/Desktop/STM32/Projects_nace/NUCLEO_LL_Project_LCD/STM32_template_proj/Drivers/STM32F1xx_HAL_Driver/Inc\stm32f1xx_ll_tim.h ****   *         @arg @ref LL_TIM_CHANNEL_CH4
 140:C:/Users/nace/OneDrive/Desktop/STM32/Projects_nace/NUCLEO_LL_Project_LCD/STM32_template_proj/Drivers/STM32F1xx_HAL_Driver/Inc\stm32f1xx_ll_tim.h ****   * @retval none
 141:C:/Users/nace/OneDrive/Desktop/STM32/Projects_nace/NUCLEO_LL_Project_LCD/STM32_template_proj/Drivers/STM32F1xx_HAL_Driver/Inc\stm32f1xx_ll_tim.h ****   */
 142:C:/Users/nace/OneDrive/Desktop/STM32/Projects_nace/NUCLEO_LL_Project_LCD/STM32_template_proj/Drivers/STM32F1xx_HAL_Driver/Inc\stm32f1xx_ll_tim.h **** #define TIM_GET_CHANNEL_INDEX( __CHANNEL__) \
 143:C:/Users/nace/OneDrive/Desktop/STM32/Projects_nace/NUCLEO_LL_Project_LCD/STM32_template_proj/Drivers/STM32F1xx_HAL_Driver/Inc\stm32f1xx_ll_tim.h ****   (((__CHANNEL__) == LL_TIM_CHANNEL_CH1) ? 0U :\
 144:C:/Users/nace/OneDrive/Desktop/STM32/Projects_nace/NUCLEO_LL_Project_LCD/STM32_template_proj/Drivers/STM32F1xx_HAL_Driver/Inc\stm32f1xx_ll_tim.h ****    ((__CHANNEL__) == LL_TIM_CHANNEL_CH1N) ? 1U :\
 145:C:/Users/nace/OneDrive/Desktop/STM32/Projects_nace/NUCLEO_LL_Project_LCD/STM32_template_proj/Drivers/STM32F1xx_HAL_Driver/Inc\stm32f1xx_ll_tim.h ****    ((__CHANNEL__) == LL_TIM_CHANNEL_CH2) ? 2U :\
 146:C:/Users/nace/OneDrive/Desktop/STM32/Projects_nace/NUCLEO_LL_Project_LCD/STM32_template_proj/Drivers/STM32F1xx_HAL_Driver/Inc\stm32f1xx_ll_tim.h ****    ((__CHANNEL__) == LL_TIM_CHANNEL_CH2N) ? 3U :\
 147:C:/Users/nace/OneDrive/Desktop/STM32/Projects_nace/NUCLEO_LL_Project_LCD/STM32_template_proj/Drivers/STM32F1xx_HAL_Driver/Inc\stm32f1xx_ll_tim.h ****    ((__CHANNEL__) == LL_TIM_CHANNEL_CH3) ? 4U :\
 148:C:/Users/nace/OneDrive/Desktop/STM32/Projects_nace/NUCLEO_LL_Project_LCD/STM32_template_proj/Drivers/STM32F1xx_HAL_Driver/Inc\stm32f1xx_ll_tim.h ****    ((__CHANNEL__) == LL_TIM_CHANNEL_CH3N) ? 5U : 6U)
 149:C:/Users/nace/OneDrive/Desktop/STM32/Projects_nace/NUCLEO_LL_Project_LCD/STM32_template_proj/Drivers/STM32F1xx_HAL_Driver/Inc\stm32f1xx_ll_tim.h **** 
 150:C:/Users/nace/OneDrive/Desktop/STM32/Projects_nace/NUCLEO_LL_Project_LCD/STM32_template_proj/Drivers/STM32F1xx_HAL_Driver/Inc\stm32f1xx_ll_tim.h **** /** @brief  Calculate the deadtime sampling period(in ps).
 151:C:/Users/nace/OneDrive/Desktop/STM32/Projects_nace/NUCLEO_LL_Project_LCD/STM32_template_proj/Drivers/STM32F1xx_HAL_Driver/Inc\stm32f1xx_ll_tim.h ****   * @param  __TIMCLK__ timer input clock frequency (in Hz).
 152:C:/Users/nace/OneDrive/Desktop/STM32/Projects_nace/NUCLEO_LL_Project_LCD/STM32_template_proj/Drivers/STM32F1xx_HAL_Driver/Inc\stm32f1xx_ll_tim.h ****   * @param  __CKD__ This parameter can be one of the following values:
 153:C:/Users/nace/OneDrive/Desktop/STM32/Projects_nace/NUCLEO_LL_Project_LCD/STM32_template_proj/Drivers/STM32F1xx_HAL_Driver/Inc\stm32f1xx_ll_tim.h ****   *         @arg @ref LL_TIM_CLOCKDIVISION_DIV1
 154:C:/Users/nace/OneDrive/Desktop/STM32/Projects_nace/NUCLEO_LL_Project_LCD/STM32_template_proj/Drivers/STM32F1xx_HAL_Driver/Inc\stm32f1xx_ll_tim.h ****   *         @arg @ref LL_TIM_CLOCKDIVISION_DIV2
 155:C:/Users/nace/OneDrive/Desktop/STM32/Projects_nace/NUCLEO_LL_Project_LCD/STM32_template_proj/Drivers/STM32F1xx_HAL_Driver/Inc\stm32f1xx_ll_tim.h ****   *         @arg @ref LL_TIM_CLOCKDIVISION_DIV4
 156:C:/Users/nace/OneDrive/Desktop/STM32/Projects_nace/NUCLEO_LL_Project_LCD/STM32_template_proj/Drivers/STM32F1xx_HAL_Driver/Inc\stm32f1xx_ll_tim.h ****   * @retval none
 157:C:/Users/nace/OneDrive/Desktop/STM32/Projects_nace/NUCLEO_LL_Project_LCD/STM32_template_proj/Drivers/STM32F1xx_HAL_Driver/Inc\stm32f1xx_ll_tim.h ****   */
 158:C:/Users/nace/OneDrive/Desktop/STM32/Projects_nace/NUCLEO_LL_Project_LCD/STM32_template_proj/Drivers/STM32F1xx_HAL_Driver/Inc\stm32f1xx_ll_tim.h **** #define TIM_CALC_DTS(__TIMCLK__, __CKD__)                                                        \
 159:C:/Users/nace/OneDrive/Desktop/STM32/Projects_nace/NUCLEO_LL_Project_LCD/STM32_template_proj/Drivers/STM32F1xx_HAL_Driver/Inc\stm32f1xx_ll_tim.h ****   (((__CKD__) == LL_TIM_CLOCKDIVISION_DIV1) ? ((uint64_t)1000000000000U/(__TIMCLK__))         : \
 160:C:/Users/nace/OneDrive/Desktop/STM32/Projects_nace/NUCLEO_LL_Project_LCD/STM32_template_proj/Drivers/STM32F1xx_HAL_Driver/Inc\stm32f1xx_ll_tim.h ****    ((__CKD__) == LL_TIM_CLOCKDIVISION_DIV2) ? ((uint64_t)1000000000000U/((__TIMCLK__) >> 1U)) : \
 161:C:/Users/nace/OneDrive/Desktop/STM32/Projects_nace/NUCLEO_LL_Project_LCD/STM32_template_proj/Drivers/STM32F1xx_HAL_Driver/Inc\stm32f1xx_ll_tim.h ****    ((uint64_t)1000000000000U/((__TIMCLK__) >> 2U)))
 162:C:/Users/nace/OneDrive/Desktop/STM32/Projects_nace/NUCLEO_LL_Project_LCD/STM32_template_proj/Drivers/STM32F1xx_HAL_Driver/Inc\stm32f1xx_ll_tim.h **** /**
 163:C:/Users/nace/OneDrive/Desktop/STM32/Projects_nace/NUCLEO_LL_Project_LCD/STM32_template_proj/Drivers/STM32F1xx_HAL_Driver/Inc\stm32f1xx_ll_tim.h ****   * @}
 164:C:/Users/nace/OneDrive/Desktop/STM32/Projects_nace/NUCLEO_LL_Project_LCD/STM32_template_proj/Drivers/STM32F1xx_HAL_Driver/Inc\stm32f1xx_ll_tim.h ****   */
 165:C:/Users/nace/OneDrive/Desktop/STM32/Projects_nace/NUCLEO_LL_Project_LCD/STM32_template_proj/Drivers/STM32F1xx_HAL_Driver/Inc\stm32f1xx_ll_tim.h **** 
 166:C:/Users/nace/OneDrive/Desktop/STM32/Projects_nace/NUCLEO_LL_Project_LCD/STM32_template_proj/Drivers/STM32F1xx_HAL_Driver/Inc\stm32f1xx_ll_tim.h **** 
 167:C:/Users/nace/OneDrive/Desktop/STM32/Projects_nace/NUCLEO_LL_Project_LCD/STM32_template_proj/Drivers/STM32F1xx_HAL_Driver/Inc\stm32f1xx_ll_tim.h **** /* Exported types ------------------------------------------------------------*/
 168:C:/Users/nace/OneDrive/Desktop/STM32/Projects_nace/NUCLEO_LL_Project_LCD/STM32_template_proj/Drivers/STM32F1xx_HAL_Driver/Inc\stm32f1xx_ll_tim.h **** #if defined(USE_FULL_LL_DRIVER)
 169:C:/Users/nace/OneDrive/Desktop/STM32/Projects_nace/NUCLEO_LL_Project_LCD/STM32_template_proj/Drivers/STM32F1xx_HAL_Driver/Inc\stm32f1xx_ll_tim.h **** /** @defgroup TIM_LL_ES_INIT TIM Exported Init structure
 170:C:/Users/nace/OneDrive/Desktop/STM32/Projects_nace/NUCLEO_LL_Project_LCD/STM32_template_proj/Drivers/STM32F1xx_HAL_Driver/Inc\stm32f1xx_ll_tim.h ****   * @{
 171:C:/Users/nace/OneDrive/Desktop/STM32/Projects_nace/NUCLEO_LL_Project_LCD/STM32_template_proj/Drivers/STM32F1xx_HAL_Driver/Inc\stm32f1xx_ll_tim.h ****   */
 172:C:/Users/nace/OneDrive/Desktop/STM32/Projects_nace/NUCLEO_LL_Project_LCD/STM32_template_proj/Drivers/STM32F1xx_HAL_Driver/Inc\stm32f1xx_ll_tim.h **** 
 173:C:/Users/nace/OneDrive/Desktop/STM32/Projects_nace/NUCLEO_LL_Project_LCD/STM32_template_proj/Drivers/STM32F1xx_HAL_Driver/Inc\stm32f1xx_ll_tim.h **** /**
 174:C:/Users/nace/OneDrive/Desktop/STM32/Projects_nace/NUCLEO_LL_Project_LCD/STM32_template_proj/Drivers/STM32F1xx_HAL_Driver/Inc\stm32f1xx_ll_tim.h ****   * @brief  TIM Time Base configuration structure definition.
 175:C:/Users/nace/OneDrive/Desktop/STM32/Projects_nace/NUCLEO_LL_Project_LCD/STM32_template_proj/Drivers/STM32F1xx_HAL_Driver/Inc\stm32f1xx_ll_tim.h ****   */
 176:C:/Users/nace/OneDrive/Desktop/STM32/Projects_nace/NUCLEO_LL_Project_LCD/STM32_template_proj/Drivers/STM32F1xx_HAL_Driver/Inc\stm32f1xx_ll_tim.h **** typedef struct
 177:C:/Users/nace/OneDrive/Desktop/STM32/Projects_nace/NUCLEO_LL_Project_LCD/STM32_template_proj/Drivers/STM32F1xx_HAL_Driver/Inc\stm32f1xx_ll_tim.h **** {
 178:C:/Users/nace/OneDrive/Desktop/STM32/Projects_nace/NUCLEO_LL_Project_LCD/STM32_template_proj/Drivers/STM32F1xx_HAL_Driver/Inc\stm32f1xx_ll_tim.h ****   uint16_t Prescaler;         /*!< Specifies the prescaler value used to divide the TIM clock.
 179:C:/Users/nace/OneDrive/Desktop/STM32/Projects_nace/NUCLEO_LL_Project_LCD/STM32_template_proj/Drivers/STM32F1xx_HAL_Driver/Inc\stm32f1xx_ll_tim.h ****                                    This parameter can be a number between Min_Data=0x0000 and Max_D
 180:C:/Users/nace/OneDrive/Desktop/STM32/Projects_nace/NUCLEO_LL_Project_LCD/STM32_template_proj/Drivers/STM32F1xx_HAL_Driver/Inc\stm32f1xx_ll_tim.h **** 
 181:C:/Users/nace/OneDrive/Desktop/STM32/Projects_nace/NUCLEO_LL_Project_LCD/STM32_template_proj/Drivers/STM32F1xx_HAL_Driver/Inc\stm32f1xx_ll_tim.h ****                                    This feature can be modified afterwards using unitary function
 182:C:/Users/nace/OneDrive/Desktop/STM32/Projects_nace/NUCLEO_LL_Project_LCD/STM32_template_proj/Drivers/STM32F1xx_HAL_Driver/Inc\stm32f1xx_ll_tim.h ****                                    @ref LL_TIM_SetPrescaler().*/
 183:C:/Users/nace/OneDrive/Desktop/STM32/Projects_nace/NUCLEO_LL_Project_LCD/STM32_template_proj/Drivers/STM32F1xx_HAL_Driver/Inc\stm32f1xx_ll_tim.h **** 
 184:C:/Users/nace/OneDrive/Desktop/STM32/Projects_nace/NUCLEO_LL_Project_LCD/STM32_template_proj/Drivers/STM32F1xx_HAL_Driver/Inc\stm32f1xx_ll_tim.h ****   uint32_t CounterMode;       /*!< Specifies the counter mode.
 185:C:/Users/nace/OneDrive/Desktop/STM32/Projects_nace/NUCLEO_LL_Project_LCD/STM32_template_proj/Drivers/STM32F1xx_HAL_Driver/Inc\stm32f1xx_ll_tim.h ****                                    This parameter can be a value of @ref TIM_LL_EC_COUNTERMODE.
 186:C:/Users/nace/OneDrive/Desktop/STM32/Projects_nace/NUCLEO_LL_Project_LCD/STM32_template_proj/Drivers/STM32F1xx_HAL_Driver/Inc\stm32f1xx_ll_tim.h **** 
 187:C:/Users/nace/OneDrive/Desktop/STM32/Projects_nace/NUCLEO_LL_Project_LCD/STM32_template_proj/Drivers/STM32F1xx_HAL_Driver/Inc\stm32f1xx_ll_tim.h ****                                    This feature can be modified afterwards using unitary function
 188:C:/Users/nace/OneDrive/Desktop/STM32/Projects_nace/NUCLEO_LL_Project_LCD/STM32_template_proj/Drivers/STM32F1xx_HAL_Driver/Inc\stm32f1xx_ll_tim.h ****                                    @ref LL_TIM_SetCounterMode().*/
 189:C:/Users/nace/OneDrive/Desktop/STM32/Projects_nace/NUCLEO_LL_Project_LCD/STM32_template_proj/Drivers/STM32F1xx_HAL_Driver/Inc\stm32f1xx_ll_tim.h **** 
 190:C:/Users/nace/OneDrive/Desktop/STM32/Projects_nace/NUCLEO_LL_Project_LCD/STM32_template_proj/Drivers/STM32F1xx_HAL_Driver/Inc\stm32f1xx_ll_tim.h ****   uint32_t Autoreload;        /*!< Specifies the auto reload value to be loaded into the active
 191:C:/Users/nace/OneDrive/Desktop/STM32/Projects_nace/NUCLEO_LL_Project_LCD/STM32_template_proj/Drivers/STM32F1xx_HAL_Driver/Inc\stm32f1xx_ll_tim.h ****                                    Auto-Reload Register at the next update event.
 192:C:/Users/nace/OneDrive/Desktop/STM32/Projects_nace/NUCLEO_LL_Project_LCD/STM32_template_proj/Drivers/STM32F1xx_HAL_Driver/Inc\stm32f1xx_ll_tim.h ****                                    This parameter must be a number between Min_Data=0x0000 and Max_
 193:C:/Users/nace/OneDrive/Desktop/STM32/Projects_nace/NUCLEO_LL_Project_LCD/STM32_template_proj/Drivers/STM32F1xx_HAL_Driver/Inc\stm32f1xx_ll_tim.h ****                                    Some timer instances may support 32 bits counters. In that case 
 194:C:/Users/nace/OneDrive/Desktop/STM32/Projects_nace/NUCLEO_LL_Project_LCD/STM32_template_proj/Drivers/STM32F1xx_HAL_Driver/Inc\stm32f1xx_ll_tim.h ****                                    be a number between 0x0000 and 0xFFFFFFFF.
 195:C:/Users/nace/OneDrive/Desktop/STM32/Projects_nace/NUCLEO_LL_Project_LCD/STM32_template_proj/Drivers/STM32F1xx_HAL_Driver/Inc\stm32f1xx_ll_tim.h **** 
 196:C:/Users/nace/OneDrive/Desktop/STM32/Projects_nace/NUCLEO_LL_Project_LCD/STM32_template_proj/Drivers/STM32F1xx_HAL_Driver/Inc\stm32f1xx_ll_tim.h ****                                    This feature can be modified afterwards using unitary function
 197:C:/Users/nace/OneDrive/Desktop/STM32/Projects_nace/NUCLEO_LL_Project_LCD/STM32_template_proj/Drivers/STM32F1xx_HAL_Driver/Inc\stm32f1xx_ll_tim.h ****                                    @ref LL_TIM_SetAutoReload().*/
 198:C:/Users/nace/OneDrive/Desktop/STM32/Projects_nace/NUCLEO_LL_Project_LCD/STM32_template_proj/Drivers/STM32F1xx_HAL_Driver/Inc\stm32f1xx_ll_tim.h **** 
 199:C:/Users/nace/OneDrive/Desktop/STM32/Projects_nace/NUCLEO_LL_Project_LCD/STM32_template_proj/Drivers/STM32F1xx_HAL_Driver/Inc\stm32f1xx_ll_tim.h ****   uint32_t ClockDivision;     /*!< Specifies the clock division.
 200:C:/Users/nace/OneDrive/Desktop/STM32/Projects_nace/NUCLEO_LL_Project_LCD/STM32_template_proj/Drivers/STM32F1xx_HAL_Driver/Inc\stm32f1xx_ll_tim.h ****                                    This parameter can be a value of @ref TIM_LL_EC_CLOCKDIVISION.
 201:C:/Users/nace/OneDrive/Desktop/STM32/Projects_nace/NUCLEO_LL_Project_LCD/STM32_template_proj/Drivers/STM32F1xx_HAL_Driver/Inc\stm32f1xx_ll_tim.h **** 
 202:C:/Users/nace/OneDrive/Desktop/STM32/Projects_nace/NUCLEO_LL_Project_LCD/STM32_template_proj/Drivers/STM32F1xx_HAL_Driver/Inc\stm32f1xx_ll_tim.h ****                                    This feature can be modified afterwards using unitary function
 203:C:/Users/nace/OneDrive/Desktop/STM32/Projects_nace/NUCLEO_LL_Project_LCD/STM32_template_proj/Drivers/STM32F1xx_HAL_Driver/Inc\stm32f1xx_ll_tim.h ****                                    @ref LL_TIM_SetClockDivision().*/
 204:C:/Users/nace/OneDrive/Desktop/STM32/Projects_nace/NUCLEO_LL_Project_LCD/STM32_template_proj/Drivers/STM32F1xx_HAL_Driver/Inc\stm32f1xx_ll_tim.h **** 
 205:C:/Users/nace/OneDrive/Desktop/STM32/Projects_nace/NUCLEO_LL_Project_LCD/STM32_template_proj/Drivers/STM32F1xx_HAL_Driver/Inc\stm32f1xx_ll_tim.h ****   uint32_t RepetitionCounter;  /*!< Specifies the repetition counter value. Each time the RCR downc
 206:C:/Users/nace/OneDrive/Desktop/STM32/Projects_nace/NUCLEO_LL_Project_LCD/STM32_template_proj/Drivers/STM32F1xx_HAL_Driver/Inc\stm32f1xx_ll_tim.h ****                                    reaches zero, an update event is generated and counting restarts
 207:C:/Users/nace/OneDrive/Desktop/STM32/Projects_nace/NUCLEO_LL_Project_LCD/STM32_template_proj/Drivers/STM32F1xx_HAL_Driver/Inc\stm32f1xx_ll_tim.h ****                                    from the RCR value (N).
 208:C:/Users/nace/OneDrive/Desktop/STM32/Projects_nace/NUCLEO_LL_Project_LCD/STM32_template_proj/Drivers/STM32F1xx_HAL_Driver/Inc\stm32f1xx_ll_tim.h ****                                    This means in PWM mode that (N+1) corresponds to:
 209:C:/Users/nace/OneDrive/Desktop/STM32/Projects_nace/NUCLEO_LL_Project_LCD/STM32_template_proj/Drivers/STM32F1xx_HAL_Driver/Inc\stm32f1xx_ll_tim.h ****                                       - the number of PWM periods in edge-aligned mode
 210:C:/Users/nace/OneDrive/Desktop/STM32/Projects_nace/NUCLEO_LL_Project_LCD/STM32_template_proj/Drivers/STM32F1xx_HAL_Driver/Inc\stm32f1xx_ll_tim.h ****                                       - the number of half PWM period in center-aligned mode
 211:C:/Users/nace/OneDrive/Desktop/STM32/Projects_nace/NUCLEO_LL_Project_LCD/STM32_template_proj/Drivers/STM32F1xx_HAL_Driver/Inc\stm32f1xx_ll_tim.h ****                                    GP timers: this parameter must be a number between Min_Data = 0x
 212:C:/Users/nace/OneDrive/Desktop/STM32/Projects_nace/NUCLEO_LL_Project_LCD/STM32_template_proj/Drivers/STM32F1xx_HAL_Driver/Inc\stm32f1xx_ll_tim.h ****                                    Max_Data = 0xFF.
 213:C:/Users/nace/OneDrive/Desktop/STM32/Projects_nace/NUCLEO_LL_Project_LCD/STM32_template_proj/Drivers/STM32F1xx_HAL_Driver/Inc\stm32f1xx_ll_tim.h ****                                    Advanced timers: this parameter must be a number between Min_Dat
 214:C:/Users/nace/OneDrive/Desktop/STM32/Projects_nace/NUCLEO_LL_Project_LCD/STM32_template_proj/Drivers/STM32F1xx_HAL_Driver/Inc\stm32f1xx_ll_tim.h ****                                    Max_Data = 0xFFFF.
 215:C:/Users/nace/OneDrive/Desktop/STM32/Projects_nace/NUCLEO_LL_Project_LCD/STM32_template_proj/Drivers/STM32F1xx_HAL_Driver/Inc\stm32f1xx_ll_tim.h **** 
 216:C:/Users/nace/OneDrive/Desktop/STM32/Projects_nace/NUCLEO_LL_Project_LCD/STM32_template_proj/Drivers/STM32F1xx_HAL_Driver/Inc\stm32f1xx_ll_tim.h ****                                    This feature can be modified afterwards using unitary function
 217:C:/Users/nace/OneDrive/Desktop/STM32/Projects_nace/NUCLEO_LL_Project_LCD/STM32_template_proj/Drivers/STM32F1xx_HAL_Driver/Inc\stm32f1xx_ll_tim.h ****                                    @ref LL_TIM_SetRepetitionCounter().*/
 218:C:/Users/nace/OneDrive/Desktop/STM32/Projects_nace/NUCLEO_LL_Project_LCD/STM32_template_proj/Drivers/STM32F1xx_HAL_Driver/Inc\stm32f1xx_ll_tim.h **** } LL_TIM_InitTypeDef;
 219:C:/Users/nace/OneDrive/Desktop/STM32/Projects_nace/NUCLEO_LL_Project_LCD/STM32_template_proj/Drivers/STM32F1xx_HAL_Driver/Inc\stm32f1xx_ll_tim.h **** 
 220:C:/Users/nace/OneDrive/Desktop/STM32/Projects_nace/NUCLEO_LL_Project_LCD/STM32_template_proj/Drivers/STM32F1xx_HAL_Driver/Inc\stm32f1xx_ll_tim.h **** /**
 221:C:/Users/nace/OneDrive/Desktop/STM32/Projects_nace/NUCLEO_LL_Project_LCD/STM32_template_proj/Drivers/STM32F1xx_HAL_Driver/Inc\stm32f1xx_ll_tim.h ****   * @brief  TIM Output Compare configuration structure definition.
 222:C:/Users/nace/OneDrive/Desktop/STM32/Projects_nace/NUCLEO_LL_Project_LCD/STM32_template_proj/Drivers/STM32F1xx_HAL_Driver/Inc\stm32f1xx_ll_tim.h ****   */
 223:C:/Users/nace/OneDrive/Desktop/STM32/Projects_nace/NUCLEO_LL_Project_LCD/STM32_template_proj/Drivers/STM32F1xx_HAL_Driver/Inc\stm32f1xx_ll_tim.h **** typedef struct
 224:C:/Users/nace/OneDrive/Desktop/STM32/Projects_nace/NUCLEO_LL_Project_LCD/STM32_template_proj/Drivers/STM32F1xx_HAL_Driver/Inc\stm32f1xx_ll_tim.h **** {
 225:C:/Users/nace/OneDrive/Desktop/STM32/Projects_nace/NUCLEO_LL_Project_LCD/STM32_template_proj/Drivers/STM32F1xx_HAL_Driver/Inc\stm32f1xx_ll_tim.h ****   uint32_t OCMode;        /*!< Specifies the output mode.
 226:C:/Users/nace/OneDrive/Desktop/STM32/Projects_nace/NUCLEO_LL_Project_LCD/STM32_template_proj/Drivers/STM32F1xx_HAL_Driver/Inc\stm32f1xx_ll_tim.h ****                                This parameter can be a value of @ref TIM_LL_EC_OCMODE.
 227:C:/Users/nace/OneDrive/Desktop/STM32/Projects_nace/NUCLEO_LL_Project_LCD/STM32_template_proj/Drivers/STM32F1xx_HAL_Driver/Inc\stm32f1xx_ll_tim.h **** 
 228:C:/Users/nace/OneDrive/Desktop/STM32/Projects_nace/NUCLEO_LL_Project_LCD/STM32_template_proj/Drivers/STM32F1xx_HAL_Driver/Inc\stm32f1xx_ll_tim.h ****                                This feature can be modified afterwards using unitary function
 229:C:/Users/nace/OneDrive/Desktop/STM32/Projects_nace/NUCLEO_LL_Project_LCD/STM32_template_proj/Drivers/STM32F1xx_HAL_Driver/Inc\stm32f1xx_ll_tim.h ****                                @ref LL_TIM_OC_SetMode().*/
 230:C:/Users/nace/OneDrive/Desktop/STM32/Projects_nace/NUCLEO_LL_Project_LCD/STM32_template_proj/Drivers/STM32F1xx_HAL_Driver/Inc\stm32f1xx_ll_tim.h **** 
 231:C:/Users/nace/OneDrive/Desktop/STM32/Projects_nace/NUCLEO_LL_Project_LCD/STM32_template_proj/Drivers/STM32F1xx_HAL_Driver/Inc\stm32f1xx_ll_tim.h ****   uint32_t OCState;       /*!< Specifies the TIM Output Compare state.
 232:C:/Users/nace/OneDrive/Desktop/STM32/Projects_nace/NUCLEO_LL_Project_LCD/STM32_template_proj/Drivers/STM32F1xx_HAL_Driver/Inc\stm32f1xx_ll_tim.h ****                                This parameter can be a value of @ref TIM_LL_EC_OCSTATE.
 233:C:/Users/nace/OneDrive/Desktop/STM32/Projects_nace/NUCLEO_LL_Project_LCD/STM32_template_proj/Drivers/STM32F1xx_HAL_Driver/Inc\stm32f1xx_ll_tim.h **** 
 234:C:/Users/nace/OneDrive/Desktop/STM32/Projects_nace/NUCLEO_LL_Project_LCD/STM32_template_proj/Drivers/STM32F1xx_HAL_Driver/Inc\stm32f1xx_ll_tim.h ****                                This feature can be modified afterwards using unitary functions
 235:C:/Users/nace/OneDrive/Desktop/STM32/Projects_nace/NUCLEO_LL_Project_LCD/STM32_template_proj/Drivers/STM32F1xx_HAL_Driver/Inc\stm32f1xx_ll_tim.h ****                                @ref LL_TIM_CC_EnableChannel() or @ref LL_TIM_CC_DisableChannel().*/
 236:C:/Users/nace/OneDrive/Desktop/STM32/Projects_nace/NUCLEO_LL_Project_LCD/STM32_template_proj/Drivers/STM32F1xx_HAL_Driver/Inc\stm32f1xx_ll_tim.h **** 
 237:C:/Users/nace/OneDrive/Desktop/STM32/Projects_nace/NUCLEO_LL_Project_LCD/STM32_template_proj/Drivers/STM32F1xx_HAL_Driver/Inc\stm32f1xx_ll_tim.h ****   uint32_t OCNState;      /*!< Specifies the TIM complementary Output Compare state.
 238:C:/Users/nace/OneDrive/Desktop/STM32/Projects_nace/NUCLEO_LL_Project_LCD/STM32_template_proj/Drivers/STM32F1xx_HAL_Driver/Inc\stm32f1xx_ll_tim.h ****                                This parameter can be a value of @ref TIM_LL_EC_OCSTATE.
 239:C:/Users/nace/OneDrive/Desktop/STM32/Projects_nace/NUCLEO_LL_Project_LCD/STM32_template_proj/Drivers/STM32F1xx_HAL_Driver/Inc\stm32f1xx_ll_tim.h **** 
 240:C:/Users/nace/OneDrive/Desktop/STM32/Projects_nace/NUCLEO_LL_Project_LCD/STM32_template_proj/Drivers/STM32F1xx_HAL_Driver/Inc\stm32f1xx_ll_tim.h ****                                This feature can be modified afterwards using unitary functions
 241:C:/Users/nace/OneDrive/Desktop/STM32/Projects_nace/NUCLEO_LL_Project_LCD/STM32_template_proj/Drivers/STM32F1xx_HAL_Driver/Inc\stm32f1xx_ll_tim.h ****                                @ref LL_TIM_CC_EnableChannel() or @ref LL_TIM_CC_DisableChannel().*/
 242:C:/Users/nace/OneDrive/Desktop/STM32/Projects_nace/NUCLEO_LL_Project_LCD/STM32_template_proj/Drivers/STM32F1xx_HAL_Driver/Inc\stm32f1xx_ll_tim.h **** 
 243:C:/Users/nace/OneDrive/Desktop/STM32/Projects_nace/NUCLEO_LL_Project_LCD/STM32_template_proj/Drivers/STM32F1xx_HAL_Driver/Inc\stm32f1xx_ll_tim.h ****   uint32_t CompareValue;  /*!< Specifies the Compare value to be loaded into the Capture Compare Re
 244:C:/Users/nace/OneDrive/Desktop/STM32/Projects_nace/NUCLEO_LL_Project_LCD/STM32_template_proj/Drivers/STM32F1xx_HAL_Driver/Inc\stm32f1xx_ll_tim.h ****                                This parameter can be a number between Min_Data=0x0000 and Max_Data=
 245:C:/Users/nace/OneDrive/Desktop/STM32/Projects_nace/NUCLEO_LL_Project_LCD/STM32_template_proj/Drivers/STM32F1xx_HAL_Driver/Inc\stm32f1xx_ll_tim.h **** 
 246:C:/Users/nace/OneDrive/Desktop/STM32/Projects_nace/NUCLEO_LL_Project_LCD/STM32_template_proj/Drivers/STM32F1xx_HAL_Driver/Inc\stm32f1xx_ll_tim.h ****                                This feature can be modified afterwards using unitary function
 247:C:/Users/nace/OneDrive/Desktop/STM32/Projects_nace/NUCLEO_LL_Project_LCD/STM32_template_proj/Drivers/STM32F1xx_HAL_Driver/Inc\stm32f1xx_ll_tim.h ****                                LL_TIM_OC_SetCompareCHx (x=1..6).*/
 248:C:/Users/nace/OneDrive/Desktop/STM32/Projects_nace/NUCLEO_LL_Project_LCD/STM32_template_proj/Drivers/STM32F1xx_HAL_Driver/Inc\stm32f1xx_ll_tim.h **** 
 249:C:/Users/nace/OneDrive/Desktop/STM32/Projects_nace/NUCLEO_LL_Project_LCD/STM32_template_proj/Drivers/STM32F1xx_HAL_Driver/Inc\stm32f1xx_ll_tim.h ****   uint32_t OCPolarity;    /*!< Specifies the output polarity.
 250:C:/Users/nace/OneDrive/Desktop/STM32/Projects_nace/NUCLEO_LL_Project_LCD/STM32_template_proj/Drivers/STM32F1xx_HAL_Driver/Inc\stm32f1xx_ll_tim.h ****                                This parameter can be a value of @ref TIM_LL_EC_OCPOLARITY.
 251:C:/Users/nace/OneDrive/Desktop/STM32/Projects_nace/NUCLEO_LL_Project_LCD/STM32_template_proj/Drivers/STM32F1xx_HAL_Driver/Inc\stm32f1xx_ll_tim.h **** 
 252:C:/Users/nace/OneDrive/Desktop/STM32/Projects_nace/NUCLEO_LL_Project_LCD/STM32_template_proj/Drivers/STM32F1xx_HAL_Driver/Inc\stm32f1xx_ll_tim.h ****                                This feature can be modified afterwards using unitary function
 253:C:/Users/nace/OneDrive/Desktop/STM32/Projects_nace/NUCLEO_LL_Project_LCD/STM32_template_proj/Drivers/STM32F1xx_HAL_Driver/Inc\stm32f1xx_ll_tim.h ****                                @ref LL_TIM_OC_SetPolarity().*/
 254:C:/Users/nace/OneDrive/Desktop/STM32/Projects_nace/NUCLEO_LL_Project_LCD/STM32_template_proj/Drivers/STM32F1xx_HAL_Driver/Inc\stm32f1xx_ll_tim.h **** 
 255:C:/Users/nace/OneDrive/Desktop/STM32/Projects_nace/NUCLEO_LL_Project_LCD/STM32_template_proj/Drivers/STM32F1xx_HAL_Driver/Inc\stm32f1xx_ll_tim.h ****   uint32_t OCNPolarity;   /*!< Specifies the complementary output polarity.
 256:C:/Users/nace/OneDrive/Desktop/STM32/Projects_nace/NUCLEO_LL_Project_LCD/STM32_template_proj/Drivers/STM32F1xx_HAL_Driver/Inc\stm32f1xx_ll_tim.h ****                                This parameter can be a value of @ref TIM_LL_EC_OCPOLARITY.
 257:C:/Users/nace/OneDrive/Desktop/STM32/Projects_nace/NUCLEO_LL_Project_LCD/STM32_template_proj/Drivers/STM32F1xx_HAL_Driver/Inc\stm32f1xx_ll_tim.h **** 
 258:C:/Users/nace/OneDrive/Desktop/STM32/Projects_nace/NUCLEO_LL_Project_LCD/STM32_template_proj/Drivers/STM32F1xx_HAL_Driver/Inc\stm32f1xx_ll_tim.h ****                                This feature can be modified afterwards using unitary function
 259:C:/Users/nace/OneDrive/Desktop/STM32/Projects_nace/NUCLEO_LL_Project_LCD/STM32_template_proj/Drivers/STM32F1xx_HAL_Driver/Inc\stm32f1xx_ll_tim.h ****                                @ref LL_TIM_OC_SetPolarity().*/
 260:C:/Users/nace/OneDrive/Desktop/STM32/Projects_nace/NUCLEO_LL_Project_LCD/STM32_template_proj/Drivers/STM32F1xx_HAL_Driver/Inc\stm32f1xx_ll_tim.h **** 
 261:C:/Users/nace/OneDrive/Desktop/STM32/Projects_nace/NUCLEO_LL_Project_LCD/STM32_template_proj/Drivers/STM32F1xx_HAL_Driver/Inc\stm32f1xx_ll_tim.h **** 
 262:C:/Users/nace/OneDrive/Desktop/STM32/Projects_nace/NUCLEO_LL_Project_LCD/STM32_template_proj/Drivers/STM32F1xx_HAL_Driver/Inc\stm32f1xx_ll_tim.h ****   uint32_t OCIdleState;   /*!< Specifies the TIM Output Compare pin state during Idle state.
 263:C:/Users/nace/OneDrive/Desktop/STM32/Projects_nace/NUCLEO_LL_Project_LCD/STM32_template_proj/Drivers/STM32F1xx_HAL_Driver/Inc\stm32f1xx_ll_tim.h ****                                This parameter can be a value of @ref TIM_LL_EC_OCIDLESTATE.
 264:C:/Users/nace/OneDrive/Desktop/STM32/Projects_nace/NUCLEO_LL_Project_LCD/STM32_template_proj/Drivers/STM32F1xx_HAL_Driver/Inc\stm32f1xx_ll_tim.h **** 
 265:C:/Users/nace/OneDrive/Desktop/STM32/Projects_nace/NUCLEO_LL_Project_LCD/STM32_template_proj/Drivers/STM32F1xx_HAL_Driver/Inc\stm32f1xx_ll_tim.h ****                                This feature can be modified afterwards using unitary function
